fc:_glClearStencil
X4g:_mbrlen
Czf:__Z67RuntimeInvoker_Il2CppObject_Il2CppObject_IntPtr_t_Int32_t2847414787PK10MethodInfoPvPS2_
Bnd:_RSAManaged_get_PublicOnly_m3109512522
oFa:__ZN17PersistentManager13GetAllFileIDsERKNSt3__112basic_stringIcNS0_11char_traitsIcEENS0_9allocatorIcEEEER13dynamic_arrayIxLj8EE
Ccg:__ZN6il2cpp2vm5Array13GetByteLengthEP11Il2CppArray
hEc:__ZN15DownloadHandler7OnAbortEv
Q9b:__ZN9b2Fixture14DestroyProxiesEP12b2BroadPhase
O$e:_AnimationPlayable_GetHashCode_m1995312370
nAd:_Array_InternalArray__get_Item_TisDouble_t534516614_m3142342990_gshared
L4d:_FtpRequestCreator_Create_m2169393454
rpa:__Z21SourceMipLevelForBlitiiii
Uke:_Comparer_1_get_Default_m498666998_gshared
ySg:__ZL81HttpsClientStream_t2708006830_CustomAttributesCacheGenerator_U3CU3Ef__amU24cache3P21CustomAttributesCache
eGg:__ZL126Missing_t630192020_CustomAttributesCacheGenerator_Missing_System_Runtime_Serialization_ISerializable_GetObjectData_m3445091833P21CustomAttributesCache
VNg:__ZL78Convert_t1097883944_CustomAttributesCacheGenerator_Convert_ToInt16_m1004862972P21CustomAttributesCache
r9e:_SafeHandle_Finalize_m2699031691
HDe:_MonoProperty_IsDefined_m436586773
Igc:__ZN13RuntimeStaticINSt3__16vectorIN5physx25PxVehicleWheelQueryResultENS0_9allocatorIS3_EEEEE13StaticDestroyEPv
ny:__ZN4FMOD4DSPI9getBypassEPb
O9d:_X509ChainElement_get_StatusFlags_m2269812416
kz:__ZN4FMOD7SystemI17setSoftwareFormatEi17FMOD_SOUND_FORMATii18FMOD_DSP_RESAMPLER
xq:__ZN11UnityEngine9Animation28GenericAnimationBindingCacheD2Ev
Zfh:__ZNSt3__16vectorIPNS_6locale5facetENS_15__sso_allocatorIS3_Lj28EEEEC2Ej
yPa:__Z13IsFileCreatedRKNSt3__112basic_stringIcNS_11char_traitsIcEENS_9allocatorIcEEEE
WT:__Z18RestoreRenderStateR20CameraRenderOldStateR17ShaderPassContext
Bhe:_InternalEnumerator_1__ctor_m1585494054_gshared
Lwf:__Z70RuntimeInvoker_Boolean_t211005341_Il2CppObject_IPAddressU26_t429204193PK10MethodInfoPvPS2_
BZd:_SslClientStream_RaisePrivateKeySelection_m3264140164
J$d:_SendRecordAsyncResult__ctor_m1199829305
O0b:__ZN6IDList10BeginOnGUIEv
YKe:_SerializationInfo_AddValue_m787542410
Gpg:__ZN16VirtFuncInvoker1IbP15Uri_t2776692961E6InvokeEjPvS1_
lOd:_MonoType_get_DeclaringType_m3073537512
d$b:__ZN13RuntimeStaticI18BackgroundJobQueueE13StaticDestroyEPv
GTc:_Array_SetValue_m3564402974
JFa:__ZN17PersistentManager22CheckInstanceIDsLoadedEPii
R_a:__ZN7ApiGLES17CopyBufferSubDataEjjlll
mIc:_SHA256Managed_ProcessFinalBlock_m2991256248
aee:_List_1_get_IsReadOnly_m2997428951_gshared
tzd:_Dictionary_2_Do_CopyTo_TisKeyValuePair_2_t816448501_TisKeyValuePair_2_t816448501_m300416536_gshared
$0b:__Z32Event_Get_Custom_PropCommandNameP15ScriptingObject
qYg:__ZL82GUISkin_t2614611333_CustomAttributesCacheGenerator_m_horizontalScrollbarLeftButtonP21CustomAttributesCache
nMf:_ReadOnlyCollection_1_get_Count_m2721592069_gshared
t5g:_wmemmove
Jtg:__ZNSt3__16__treeINS_12__value_typeIP11Il2CppClassS3_EENS_19__map_value_compareIS3_S4_NS_4lessIS3_EELb1EEENS_9allocatorIS4_EEE4findIS3_EENS_15__tree_iteratorIS4_PNS_11__tree_nodeIS4_PvEEiEERKT_
xmg:__ZN16VirtFuncInvoker1IP8String_tP20ByteU5BU5D_t58506160E6InvokeEjPvS3_
h0:__ZN17PrePassRenderLoop14RenderBasePassEP13RenderTextureRK14LightingLayersR13dynamic_arrayI16RenderObjectDataLj4EERbR10MinMaxAABB
ued:_CultureInfo__ctor_m3984190515
_H:__ZN9rapidjson6WriterINS_19GenericStringBufferINS_4UTF8IcEENS_12CrtAllocatorEEES3_S3_S4_E11WriteDoubleEd
ZP:__ZN17GlobalGameManager23VirtualRedirectTransferER17RemapPPtrTransfer
Brc:_sfnt_stream_close
I0b:__ZN5IMGUI18RepaintModalWindowER8GUIState
Ize:_TypeBuilder_setup_internal_class_m1841540458
d_e:_Component_SendMessageUpwards_m2772130661
EGd:_DirectoryInfo_ToString_m2661500299
agf:_QuickSearch_GetChar_m2212630365
Uoa:__ZN7Texture13SetFilterModeEi
ajb:__Z33BuildSerializationCommandQueueForI19StreamedBinaryWriteILb0EEEvRK34BuildSerializationCommandQueueArgsR32SerializationCommandQueueBuilderRP20AllowNameConversionsbPK18TransferField_Info
A3:__Z14CreateJobQueuePKcS0_
Ucg:__ZN6il2cpp8metadata13GenericMethod9GetMethodEPK19Il2CppGenericMethod
qdd:_Environment_InternalGetFolderPath_m3585366137
S1a:__ZN13GfxDeviceGLES11SetViewportERK5RectTIiE
wRc:_Encoding_get_ISOLatin1_m4135279598
x8c:_DateTimeOffset_GetHashCode_m1972583858
Fd:_emscripten_glDepthRange
GUc:_Array_new_gap_m3653386306
tAd:_Array_InternalArray__get_Item_TisCustomAttributeNamedArgument_t318735129_m25283667_gshared
fla:__ZNK16LightmapSettings17AcquireSharedDataEv
Ozg:__ZL73Enum_t2778772662_CustomAttributesCacheGenerator_Enum_ToString_m3635159947P21CustomAttributesCache
X6b:__ZN17PhysicsMaterial2D13RegisterClassEv
oRg:__ZL111X509Certificate2Collection_t123613238_CustomAttributesCacheGenerator_X509Certificate2Collection_Find_m162772545P21CustomAttributesCache
Xid:_Escape_t2084662433_marshal_pinvoke_back
Tw:__ZNK11SoundHandle8IsStreamEv
uaf:_CrossAppDomainSink_get_TargetDomainId_m1065872077
Jpf:__Z178RuntimeInvoker_Void_t2779279689_Il2CppObject_Int32_t2847414787_Int32_t2847414787_Il2CppObject_Int32_t2847414787_Int32_t2847414787_Il2CppObject_Int32_t2847414787_Int32_t2847414787PK10MethodInfoPvPS2_
YEf:__Z56RuntimeInvoker_Boolean_t211005341_Nullable_1_t3649900800PK10MethodInfoPvPS2_
reb:__ZN4crndL20crnd_default_reallocEPvjPjbS0_
Xoa:__ZN7Texture11SetWrapModeEi
Q2d:_U24ArrayTypeU2412_t214874487_marshal_pinvoke_cleanup
CLc:_StringBuilder_Append_m2143093878
Old:_CryptoConvert_ToCapiKeyBlob_m2611438349
Glf:__Z97RuntimeInvoker_Boolean_t211005341_Il2CppObject_Int32_t2847414787_Il2CppObject_ByteU26_t2164727883PK10MethodInfoPvPS2_
MZb:__ZN13RuntimeStaticINSt3__13mapIy8TFShaderNS0_4lessIyEENS0_9allocatorINS0_4pairIKyS2_EEEEEEE13StaticDestroyEPv
Kpf:__Z58RuntimeInvoker_DSAParameters_t2524359253_SByte_t2855346064PK10MethodInfoPvPS2_
tjc:_UNITY_FT_Init_Class_ft_bitmap_glyph_class
VHc:_SHA1Internal_HashFinal_m844484623
eYb:__ZN4PPtrI13RenderTextureE8TransferI18StreamedBinaryReadILb0EEEEvRT_
eJb:__ZL22Transfer_ManagedObjectI18StreamedBinaryReadILb0EELb0EEvRK29SerializationCommandArgumentsR31RuntimeSerializationCommandInfo
Hkc:_UNITY_FT_Stream_GetChar
UYg:__ZL85GUIStyle_t1006925219_CustomAttributesCacheGenerator_GUIStyle_set_wordWrap_m3800572853P21CustomAttributesCache
bIe:_RemotingServices_CreateClientProxyForContextBound_m9934294
b4g:__ZNSt3__114__split_bufferIN6il2cpp2os19SocketHandleWrapperERNS_9allocatorIS3_EEED2Ev
ewc:__ZNK19TextRenderingModule8TMGenGetERK11UTF16StringPN13TextRendering4FontE10TextAnchor13TextAlignmentfffbb11ColorRGBA32fii
_3f:_il2cpp_class_get_name
P4e:_GUIStyle_GetCursorStringIndex_m3223359742
zNg:__ZL76Convert_t1097883944_CustomAttributesCacheGenerator_Convert_ToByte_m509069849P21CustomAttributesCache
Jmf:__Z51RuntimeInvoker_Boolean_t211005341_Single_t958209021PK10MethodInfoPvPS2_
bVf:_ScriptableObject__ctor_m1827087273
JYe:_BoxCollider2D_set_size_m1211670560
WZe:_Component_GetComponents_m2975031400
EJa:__ZN10FileSystem12MountHandlerEP17FileSystemHandler
sNb:__ZNSt3__16vectorIi13stl_allocatorIiL18MemLabelIdentifier12ELi16EEE6assignINS_11__wrap_iterIPiEEEENS_9enable_ifIXaasr21__is_forward_iteratorIT_EE5valuesr16is_constructibleIiNS_15iterator_traitsISA_E9referenceEEE5valueEvE4typeESA_SA_
o1c:_SortedList__cctor_m2648532460
n3g:__ZN6il2cpp6icalls8mscorlib6SystemL8IsStaticEPK12PropertyInfo
ITg:__ZL87CullingGroup_t281933724_CustomAttributesCacheGenerator_CullingGroup_Dispose_m3554617051P21CustomAttributesCache
IYa:__Z9InitInputv
t0a:__ZN4gles10SetTextureER15DeviceStateGLESj16TextureDimensionj19BuiltinSamplerState
rnc:_UNITY_tt_face_build_cmaps
jOa:__ZN16MemoryFileSystem6DeleteER13FileEntryDatab
Yqf:__Z99RuntimeInvoker_Boolean_t211005341_Il2CppObject_MonoIOStatU26_t1701154972_MonoIOErrorU26_t4132330282PK10MethodInfoPvPS2_
Oq:__ZN18StreamedBinaryReadILb0EE21TransferSTLStyleArrayI13dynamic_arrayIjLj4EEEEvRT_17TransferMetaFlags
Fwe:_EnumBuilder_GetElementType_m2881513647
Eld:_CryptoConvert_GetBytesLE_m62772046
bJ:_UNITY_png_icc_set_sRGB
nw:__ZN20SoundChannelInstance15setChannelGroupEPN4FMOD12ChannelGroupE
RIc:_SHA512Managed_Sum0_m1128336038
ufb:__ZL11init_sourceP22jpeg_decompress_struct
G5g:__ZdlPv
iLd:_TextReader_Read_m2439891293
uNa:__ZN20ArchiveStorageReader17MakeStorageUnusedEv
ppd:_PKCS12_AddCertificate_m1604686507
cee:_List_1_set_Item_m4266691535_gshared
fWe:_UIntPtr__cctor_m3952213328
KP:__ZN17GlobalGameManager13RegisterClassEv
M6:__Z10SetupLexerPKcj
qQg:__ZL70UnhandledExceptionEventArgs_t2796503648_CustomAttributesCacheGeneratorP21CustomAttributesCache
ZLa:__ZN17ArchiveFileSystem11CreateAsDirER13FileEntryData
QFg:__ZL70CustomAttributeTypedArgument_t560415562_CustomAttributesCacheGeneratorP21CustomAttributesCache
Whh:dynCall_iiiiiiiiiiii
PAd:_Component_GetComponent_TisIl2CppObject_m267839954_gshared
Qkf:__Z45RuntimeInvoker_UInt64_t985925421_Il2CppObjectPK10MethodInfoPvPS2_
kDf:__Z66RuntimeInvoker_Void_t2779279689_Int32_t2847414787_Mark_t3725932776PK10MethodInfoPvPS2_
rtb:__ZN22VertexDeclarationCacheD0Ev
YTb:__ZN6prcoreL17RemapGenericFloatI16TexFormatRGFloat17TexFormatRGBAHalfEEvPKNS_9InnerInfoE
kwb:__ZNK21AssetBundleFileSystem8PositionERK13FileEntryData
Dt:__ZN12AudioManager22CreateFMODSoundFromWWWEP10IWWWStream15FMOD_SOUND_TYPE17FMOD_SOUND_FORMATjjbbP10SampleClip
j$g:__ZL89ArgumentCache_t2732610389_CustomAttributesCacheGenerator_m_ObjectArgumentAssemblyTypeNameP21CustomAttributesCache
ZMg:__ZL60ActivationContext_t3292525358_CustomAttributesCacheGeneratorP21CustomAttributesCache
ZUf:_SceneManager_Internal_SceneUnloaded_m3773648285
yzf:__Z35RuntimeInvoker_Playable_t3404354247PK10MethodInfoPvPS2_
OKf:_Collection_1_ConvertItem_m1502097962_gshared
HLc:_SecurityElement_SearchForChildByTag_m1597451503
nf:_uselocale
qdb:__Z26TransformVerticesInnerLoopILb0ELb0ELb0EEvPhRK10Matrix4x4fRK10Matrix3x3fjPKhiiiS8_ii25GfxTransformVerticesFlags
Uvb:__ZN17FileSystemHandler10AtomicMoveER13FileEntryDataS1_
Ua:invoke_iiiiiifffiiifii
Ofd:_DaylightTime_get_End_m1152979434
IIf:_List_1_RemoveAt_m3002746776_gshared
_Ef:__Z89RuntimeInvoker_Il2CppObject_Scene_t2772977204_Int32_t2847414787_Il2CppObject_Il2CppObjectPK10MethodInfoPvPS2_
C1g:__ZNSt3__114__split_bufferIN6il2cpp2vm17TypeNameParseInfoERNS_9allocatorIS3_EEEC2EjjS6_
eG:__ZN11UnityEngine15CloudWebService13WWWRestClientC2Ev
MBb:__ZN12NativeBufferI27Converter_SimpleNativeClassI10RectOffsetEE19ProcessAfterReadingER9ArrayInfoP14ScriptingClass
L3c:_Convert_ToDecimal_m2497651492
WUa:__Z48Register_UnityEngine_Application_get_absoluteURLv
zKd:_StreamWriter_Decode_m2860657820
ISc:_UnicodeEncoding_GetString_m254667515
ytf:__Z149RuntimeInvoker_Int32_t2847414787_Il2CppObject_Int32_t2847414787_Int32_t2847414787_Il2CppObject_Int32_t2847414787_DecoderFallbackBufferU26_t1882349766PK10MethodInfoPvPS2_
GJd:_Stream_Dispose_m3908539837
Lf:_poll
iEd:_Int32_FindOther_m2390480221
erf:__Z49RuntimeInvoker_Void_t2779279689_Int16_t2847414729PK10MethodInfoPvPS2_
Tcc:__Z55Register_UnityEngine_Rigidbody2D_INTERNAL_CALL_AddForcev
VSg:__ZL175U3CGetExtensionMethodsU3Ec__IteratorC_t1663269283_CustomAttributesCacheGenerator_U3CGetExtensionMethodsU3Ec__IteratorC_System_Collections_IEnumerable_GetEnumerator_m2454778882P21CustomAttributesCache
Fnb:__ZN15dense_hashtableINSt3__14pairIKNS0_12basic_stringIcNS0_11char_traitsIcEE13stl_allocatorIcL18MemLabelIdentifier54ELi16EEEEP20ArchiveStorageReaderEES8_11djb2_hash_tIS8_EN14dense_hash_mapIS8_SB_SE_NS0_8equal_toIS8_EES5_ISC_LS6_54ELi16EEE9SelectKeyESH_SI_E12resize_deltaEjj
CVb:__ZN14qsort_internal8_QSortMTIP15RODataDepthPassi17ROSorterDepthPassE12ThreadedSortEPNS4_9JobHeaderE
Bag:__ZN6il2cpp8metadata15GenericMetadata15GetGenericClassEiPK17Il2CppGenericInst
j1:__Z24GetFixedBehaviourManagerv
dFg:__ZL93TypeBuilder_t4287691406_CustomAttributesCacheGenerator_TypeBuilder_MakeGenericType_m740236136P21CustomAttributesCache
cOd:_MonoType_get_BaseType_m3982183046
Z2f:__ZN6il2cpp2vm10ThreadPool4WaitEP17Il2CppAsyncResultPPv
Jxf:__Z55RuntimeInvoker_Il2CppObject_RegexOptionsU26_t4043008606PK10MethodInfoPvPS2_
dg:_vfprintf
k$b:__ZN10GUIManager12AddGUIScriptER8ListNodeI13MonoBehaviourE
oWd:_CipherSuite_createDecryptionCipher_m2049229685
tmd:_KeyPairPersistence_get_MachinePath_m4003471731
rLg:__ZL63CodeAccessPermission_t1537136389_CustomAttributesCacheGeneratorP21CustomAttributesCache
C0e:_Gradient_t1677180829_marshal_pinvoke_cleanup
$Wb:__ZN20DynamicPropertySheetD0Ev
Cpe:_Dictionary_2_Resize_m1861476060_gshared
kEa:__ZN14SafeBinaryRead17RegisterConverterEPKcS1_PFbPvRS_E
mSa:__ZN35RegisterRuntimeInitializeAndCleanup8RegisterEPFvPvES2_iS0_
jVf:_RequiredByNativeCodeAttribute__ctor_m940065582
Ngh:__ZNSt3__16vectorIPNS_6locale5facetENS_15__sso_allocatorIS3_Lj28EEEE26__swap_out_circular_bufferERNS_14__split_bufferIS3_RS5_EE
svd:_Array_InternalArray__IndexOf_TisParameterModifier_t500203470_m3583138579_gshared
edc:__ZN4PPtrI17PhysicsMaterial2DE8TransferI18StreamedBinaryReadILb0EEEEvRT_
Zqf:__Z135RuntimeInvoker_IntPtr_t_Il2CppObject_Int32_t2847414787_Int32_t2847414787_Int32_t2847414787_Int32_t2847414787_MonoIOErrorU26_t4132330282PK10MethodInfoPvPS2_
NJ:_UNITY_png_create_read_struct
CZf:_EqualityComparer_1_System_Collections_IEqualityComparer_GetHashCode_m193354475_gshared
wDd:_Int32_GetFormatException_m2892587262
IGc:_RIPEMD160Managed_H_m4094699255
Aoc:_UNITY_TT_Get_MM_Var
X7b:__ZN11Rigidbody2D8AddForceERK8Vector2f11ForceMode2D
RQc:_EncoderFallbackException__ctor_m2276513379
ia:invoke_diddi
nAf:__Z115RuntimeInvoker_Void_t2779279689_Rect_t1525428817_Il2CppObject_Int32_t2847414787_Int32_t2847414787_Int32_t2847414787PK10MethodInfoPvPS2_
nDg:__ZL62DebuggableAttribute_t3859458445_CustomAttributesCacheGeneratorP21CustomAttributesCache
uTd:_ASN1Convert_ToOid_m581448231
k2f:__ZN6il2cpp2vm13MetadataCache30GetPropertyDefinitionFromIndexEi
snf:__Z52RuntimeInvoker_UInt16_t985925268_Decimal_t1688557254PK10MethodInfoPvPS2_
$j:_glColorMask
HO:__ZN6Object13RegisterClassEv
inh:_emscripten_glDeleteBuffers__wrapper
Sqg:__ZN21InterfaceFuncInvoker0IP21Exception_t1967233988E6InvokeEjP11Il2CppClassPv
ASd:_BigInteger_op_LessThan_m1693109759
J6a:_alloc_sarray
Csc:_gray_raster_reset
eDf:__Z74RuntimeInvoker_Void_t2779279689_Int32_t2847414787_MonoResource_t1936012254PK10MethodInfoPvPS2_
Yla:__ZN2UI13RectTransform16UpdateCachedRectEv
wDb:__ZNSt3__16vectorIj13stl_allocatorIjL18MemLabelIdentifier1ELi16EEE6assignINS_11__wrap_iterIPjEEEENS_9enable_ifIXaasr21__is_forward_iteratorIT_EE5valuesr16is_constructibleIjNS_15iterator_traitsISA_E9referenceEEE5valueEvE4typeESA_SA_
Ug:_catgets
RLb:__Z16Transfer_BuiltinIf19StreamedBinaryWriteILb0EELb1EEvRK29SerializationCommandArgumentsR31RuntimeSerializationCommandInfo
iE:__ZN19CloudServiceHandler17InitServiceFolderEv
f4c:_Convert_ToDouble_m2259716742
dZg:__ZL87GUIStyle_t1006925219_CustomAttributesCacheGenerator_GUIStyle_get_stretchWidth_m38609341P21CustomAttributesCache
Knc:_UNITY_tt_face_load_pclt
MMa:__ZN21ArchiveStorageCreator14StoreDirectoryEv
Qjb:__ZL34GetComponentsImplementationRecurseILb1ELi0ELi2EEbR10GameObjectbRK17CompareParametersRK39GetComponentsImplementation_ReturnValue
Jrf:__Z42RuntimeInvoker_EventAttributes_t1168020927PK10MethodInfoPvPS2_
Dld:_CryptoConvert_ToUInt32LE_m558101659
kpf:__Z77RuntimeInvoker_Boolean_t211005341_Il2CppObject_Il2CppObject_Int32_t2847414787PK10MethodInfoPvPS2_
h5a:__GLOBAL__sub_I_MeshVertexFormat_cpp
CJf:_Collection_1_get_Item_m2356360623_gshared
l4d:_EditorBrowsableAttribute__ctor_m2031704921
kU:__ZNK6Camera18WorldToScreenPointERK8Vector3fPb
JQd:_OperatingSystem__ctor_m1430692681
TYd:_Context_set_RandomSC_m2143148452
G7d:_OidEnumerator_Reset_m2251511182
jJd:_NullStream_ReadByte_m1443497884
rUf:_RectOffset_get_left_m4104523390
pae:_X509ChainElement_Count_m466237836
$jf:_Uri_get_Parser_m533607664
iDe:_MonoMethod_GetObjectData_m1160867688
XPd:_NumberFormatter_FastAppendDigits_m4132924828
ZPb:__ZN26EnlightenSystemInformation8TransferI14SafeBinaryReadEEvRT_
gvf:__Z50RuntimeInvoker_UInt64_t985925421_Int16_t2847414729PK10MethodInfoPvPS2_
I9d:_X509Store_get_Certificates_m806880954
LSg:__ZL81List_1_t3580084621_CustomAttributesCacheGenerator_List_1_GetEnumerator_m902426192P21CustomAttributesCache
t_f:_GenericEqualityComparer_1_Equals_m2036593421_gshared
JYf:_DefaultComparer_Equals_m1585251629_gshared
rC:__ZN4PPtrI15AudioMixerGroupE8TransferI18StreamedBinaryReadILb1EEEEvRT_
PAf:__Z96RuntimeInvoker_Void_t2779279689_IntPtr_t_Il2CppObject_Vector2_t3525329788_Vector2U26_t2646958564PK10MethodInfoPvPS2_
Th:_utime
d_f:_GenericEqualityComparer_1_GetHashCode_m3724492626_gshared
k9a:__ZNSt3__16__treeINS_12__value_typeIi17ShadowCachingDataEENS_19__map_value_compareIiS3_NS_4lessIiEELb1EEE13stl_allocatorIS3_L18MemLabelIdentifier64ELi16EEE7destroyEPNS_11__tree_nodeIS3_PvEE
Ikf:__Z47RuntimeInvoker_Decimal_t1688557254_Il2CppObjectPK10MethodInfoPvPS2_
Sn:FUNCTION_TABLE_viiiiii
Jze:_TypeBuilder_GetAttributeFlagsImpl_m2415994065
k_f:_GenericEqualityComparer_1_Equals_m3984360348_gshared
Myc:__ZN11UnityEngine7Connect13ConnectConfig11ResetValuesEv
_ff:_QuickSearch_get_Length_m2171114063
ZAb:__ZN27Converter_SimpleNativeClassI17AnimationCurveTplIfEE17NativeToScriptingERKS1_RP15ScriptingObject
J$:__ZN15LightmapSTCacheC2ER13BatchRendererR15RenderLoopStats
r6:__ZN9ShaderLab11shaderprops9GetVectorEPK19ShaderPropertySheetS3_NS_16FastPropertyNameERNS0_16PropertyLocationE
qSd:_Kernel_multiByteDivide_m1455363991
YP:__ZN17GlobalGameManager23VirtualRedirectTransferER19StreamedBinaryWriteILb0EE
ted:_CompareInfo_System_Runtime_Serialization_IDeserializationCallback_OnDeserialization_m3454540043
Fse:_AssemblyName__ctor_m2021574845
Kmg:__ZN16VirtFuncInvoker1IiP8String_tE6InvokeEjPvS1_
qlh:_glGetShaderInfoLog__wrapper
yi:_emscripten_glGetTexParameteriv
Tte:_Default_check_type_with_score_m4064381425
zid:_SimpleCollator_IsPrefix_m3891336350
CWd:_Context_get_ServerWriteKey_m2037627211
SOd:_NumberFormatter_InitDecHexDigits_m2164786199
OMg:__ZL79Thread_t1674723085_CustomAttributesCacheGenerator_Thread_GetHashCode_m736270528P21CustomAttributesCache
yfh:__ZNKSt3__17num_getIcNS_19istreambuf_iteratorIcNS_11char_traitsIcEEEEE17__do_get_unsignedIjEES4_S4_S4_RNS_8ios_baseERjRT_
MHd:_FileStreamAsyncResult__ctor_m3962676300
F9:__ZN8PlayableD0Ev
fC:__ZN12AudioManager8TransferI19StreamedBinaryWriteILb0EEEEvRT_
MFg:__ZL62CustomAttributeData_t2584644259_CustomAttributesCacheGeneratorP21CustomAttributesCache
WWc:_Byte_Equals_m2522538359
SOb:__ZNK32RendererMaterialAnimationBinding12GetPPtrValueERKN11UnityEngine9Animation10BoundCurveE
i6b:__ZN16CircleCollider2D10SmartResetEv
_tf:__Z87RuntimeInvoker_Boolean_t211005341_Int64_t2847414882_Int64_t2847414882_SByte_t2855346064PK10MethodInfoPvPS2_
IXg:__ZL57EventModifiers_t3870720879_CustomAttributesCacheGeneratorP21CustomAttributesCache
GKa:__ZN22LocalFileSystemHandler9MakeLocalER13FileEntryDatab
jXe:_Version_ToString_m3622155194
Tdg:__ZN6il2cpp2vm8Profiler10AllocationEP12Il2CppObjectP11Il2CppClass
v2g:__ZN6il2cpp2gc9AllocatorIPNSt3__111__hash_nodeINS2_17__hash_value_typeINS2_4pairIPK12PropertyInfoP11Il2CppClassEEP24Il2CppReflectionPropertyEEPvEEE10deallocateESF_j
R$f:_GameManager__ctor_m1049824251
n1g:__ZN13dynamic_arrayIP12Il2CppObjectLj4EE10reallocateEPS1_j
Qkd:_PrimalityTests_RabinMillerTest_m2609046185
o8c:_DateTimeOffset_get_UtcDateTime_m2831969300
Kwf:__Z90RuntimeInvoker_Boolean_t211005341_Il2CppObject_Il2CppObject_Il2CppObject_Int32_t2847414787PK10MethodInfoPvPS2_
a1e:_GUI_set_changed_m727947722
Bxd:_Array_InternalArray__Insert_TisKeyValuePair_2_t3312956448_m2139203001_gshared
HVe:_UInt64_System_IConvertible_ToInt16_m1880750917
v$f:_U3CGetExtensionMethodsU3Ec__IteratorC_System_Collections_IEnumerator_get_Current_m2916943977
ay:__ZN4FMOD8ChannelI15setChannelGroupEPNS_12ChannelGroupE
ZQd:_RankException__ctor_m1930204271
Laa:__ZN14CompressedMesh10GetQualityE15MeshCompression
HWb:__ZN25DeferredRenderLoopScratchD0Ev
cEc:__ZN21DownloadHandlerBufferD0Ev
bvb:__ZN15ResourceManagerD0Ev
IBe:_MonoCMethod_GetParameters_m993439667
gJb:__Z22Transfer_Builtin_AlignIa18StreamedBinaryReadILb0EELb0EEvRK29SerializationCommandArgumentsR31RuntimeSerializationCommandInfo
Fga:__ZN22CreateGpuProgramOutputD2Ev
Iaf:_ConfigHandler_OnStartParsing_m1924122290
I1:__ZNK18DelayedCallManager25GetClassIDVirtualInternalEv
q9a:__ZNSt3__16__sortIR23CompareReflectionProbesP31RuntimeReflectionProbeBlendInfoEEvT0_S5_T_
A9f:__ZN6il2cpp6icalls8mscorlib6System2IO6MonoIO9SetLengthE12Il2CppIntPtrxPi
sPe:_UTF8Encoding_GetBytes_m332798299
gLa:__ZN12HandlerChain4OpenER13FileEntryData14FilePermission16FileAutoBehavior
B4:__ZN14FileCacherReadD2Ev
pUa:__Z50Register_UnityEngine_CullingGroup_FinalizerFailurev
rvb:__ZN27UnloadUnusedAssetsOperationD0Ev
FNd:_MonoType_GetConstructors_m2914995340
FPg:__ZL68InvalidOperationException_t2420574324_CustomAttributesCacheGeneratorP21CustomAttributesCache
_lg:__ZN6il2cpp2vm14PlatformInvoke18MarshalArrayResultIhEEP11Il2CppArrayP11Il2CppClassPT_j
w9f:__ZN6il2cpp6icalls8mscorlib6System2IO6MonoIO9GetLengthE12Il2CppIntPtrPi
D$c:_KeyNotFoundException__ctor_m171814565
bcb:__ZNSt3__16vectorIN9ShaderLab16ParserSubProgram14ConstantBufferENS_9allocatorIS3_EEE21__push_back_slow_pathIKS3_EEvRT_
cbd:_DelegateEntry_DeserializeDelegate_m151701220
tBe:_Missing__cctor_m3581784475
Cs:__ZN9AudioClip23VirtualRedirectTransferER18StreamedBinaryReadILb0EE
nwd:_Array_InternalArray__ICollection_Add_TisParameterModifier_t500203470_m353338327_gshared
eRd:_U24ArrayTypeU2420_t214874516_marshal_pinvoke
nsg:__ZN16VirtFuncInvoker1IP22AnchorInfo_t1997143859bE6InvokeEjPvb
F0d:_SslClientStream_get_PrivateKeyCertSelectionDelegate_m3305681381
HUc:_Array_compare_m3860906437
qjd:_BigInteger_op_Equality_m2978468520
Nv:__ZN5audio5mixer22UpdateAudioMixerMemoryERKNS0_18AudioMixerConstantERNS0_16AudioMixerMemoryEfPN4FMOD6SystemEf
bk:_glCopyTexSubImage2D
VOb:__ZNK24RendererAnimationBinding13GetFloatValueERKN11UnityEngine9Animation10BoundCurveE
rx:__ZN4FMOD6SoundIC2EPNS_7SystemIE
Hhc:__ZL21InitializeCachedStripPv
zL:_UNITY_png_write_zTXt
VYa:__ZN18ScreenManagerWebGL13SetShowCursorEb
V6g:_frexp
Mlf:__Z51RuntimeInvoker_Boolean_t211005341_Int16_t2847414729PK10MethodInfoPvPS2_
oyd:_Array_InternalArray__set_Item_TisKeyValuePair_2_t2686855369_m1062512971_gshared
znh:_emscripten_glGenVertexArrays__wrapper
E7a:__ZN11GameManager7PRODUCEE18MemLabelIdentifier18ObjectCreationMode
jie:_InternalEnumerator_1__ctor_m374673841_gshared
HSc:_UnicodeEncoding_GetCharsInternal_m801541210
Tab:__ZN6prcoreL21CreateRemapAnyBlitterE13TextureFormatS0_
Ekg:__ZN6il2cpp2os5Event4WaitEjb
hva:__ZN17AnimationCurveTplIfE16StripInvalidKeysEv
iah:__ZNSt3__19__num_getIcE19__stage2_float_loopEcRbRcPcRS4_ccRKNS_12basic_stringIcNS_11char_traitsIcEENS_9allocatorIcEEEEPjRSE_RjS4_
oib:__ZN15dense_hashtableINSt3__14pairIKiiEEi21InstanceIDHashFunctorN14dense_hash_mapIiiS4_NS0_8equal_toIiEE13stl_allocatorIS3_L18MemLabelIdentifier1ELi16EEE9SelectKeyES7_SA_E12maybe_shrinkEv
eAc:__ZN20UnityWebRequestProtoI19TransportJavaScript16AtomicRefCounter14RedirectHelper14ResponseHelper15DownloadHandler13UploadHandler12HeaderHelper14AsyncOperationE19Job_InvokeCoroutineEPv
zzg:__ZL40UIntPtr_t_CustomAttributesCacheGeneratorP21CustomAttributesCache
vdc:__ZN14Raycast2DQuery8RunQueryEb
x0c:_Hashtable_KeyEquals_m1149622430
Usa:__Z26RegisterClass_InputManagerv
y7d:_OidCollection_System_Collections_IEnumerable_GetEnumerator_m494890284
xH:__ZN11UnityEngine15CloudWebService13WWWRestClient18GetEditableHeadersEv
nzb:__ZN14SafeBinaryRead19TransferSTLStyleMapINSt3__13mapIN9ShaderLab16FastPropertyNameEfNS1_4lessIS4_EENS1_9allocatorINS1_4pairIKS4_fEEEEEEEEvRT_17TransferMetaFlags
uzb:__ZN4PPtrI7TextureE8TransferI14SafeBinaryReadEEvRT_
Xpa:__Z23RegisterClass_Texture2Dv
fLf:_ReadOnlyCollection_1_System_Collections_IList_RemoveAt_m1730676936_gshared
Nn:FUNCTION_TABLE_iiiiiiiiiiiiii
j1c:_SortedList__ctor_m3703218657
Ixb:__ZN14DrawBufferGLESI12VertexBuffer27VertexBufferUsageMapperGLESED2Ev
H$e:_UnityEventBase_DirtyPersistentCalls_m1636785090
DVg:__ZL86Object_t3878351788_CustomAttributesCacheGenerator_Object_DontDestroyOnLoad_m4064482788P21CustomAttributesCache
Mwc:__ZN19UnityConnectService18OnPlayerQuitStaticEPS_
vBc:__ZNK26DownloadHandlerAssetBundle11GetProgressEv
Bfb:__ZN16LightmapSettings8TransferI18StreamedBinaryReadILb0EEEEvRT_
snc:_UNITY_tt_get_cmap_info
JX:__ZN16ReflectionProbes8ScheduleEN18ReflectionProbeJob7JobTypeEP15ReflectionProbei
dLd:_SynchronizedWriter_WriteLine_m1236139023
RR:__ZN16MessageForwarder13HandleMessageEPviR11MessageData
S2c:_Decimal_op_Explicit_m444543858
CWb:__ZN14qsort_internal31_FindAndMovePivotToLastPositionIP16RenderObjectDatai26RenderDeferredObjectSorterEEvT_S4_T0_T1_
Q2g:__ZN6il2cpp2gc9AllocatorINSt3__111__hash_nodeINS2_17__hash_value_typeINS2_4pairIPK9FieldInfoP11Il2CppClassEEP21Il2CppReflectionFieldEEPvEEE10deallocateESF_j
UAe:_MemberInfoSerializationHolder_Serialize_m2526201284
hu:__ZN12AudioManager23VirtualRedirectTransferER13ProxyTransfer
W7g:__ZNSt3__112basic_stringIcNS_11char_traitsIcEENS_9allocatorIcEEEaSERKS5_
ojc:_UNITY_FT_GlyphLoader_Done
N8d:_X509ExtensionCollection_get_Item_m2341415937
p8c:_DateTimeOffset__ctor_m846097640
rGe:_SoapTypeAttribute_get_IsInteropXmlType_m2081107945
gof:__Z62RuntimeInvoker_Void_t2779279689_Il2CppObject_Int64_t2847414882PK10MethodInfoPvPS2_
xpd:_X501__cctor_m1545850908
gua:__Z25GetCachedActiveColorSpacev
tWd:_ClientContext_get_ClientHelloProtocol_m3083636780
mQg:__ZL51TypeCode_t2164429820_CustomAttributesCacheGeneratorP21CustomAttributesCache
bdb:__Z18SkinGenericMathLibILi2ELb1ELb0EEvR12SkinMeshInfo
xW:__ZNK21IntermediateRenderers16GetBoundingBoxesEv
ssc:_tt_cmap14_char_var_index
xbf:_Context_NotifyGlobalDynamicSinks_m4248729719
Ftc:_psh_globals_new
gBe:_MethodBase_get_next_table_index_m1161386136
MZa:__ZN7ApiGLES12DrawElementsE16GfxPrimitiveTypePKvjjj
_cf:_AsyncResult_get_CallMessage_m1178656201
uKd:_StreamWriter__cctor_m1403486551
Prb:__ZN9GfxDevice20SetMaxBufferedFramesEi
hmf:__Z45RuntimeInvoker_Il2CppObject_Int32_t2847414787PK10MethodInfoPvPS2_
Arf:__Z102RuntimeInvoker_Il2CppObject_Int32_t2847414787_Int32_t2847414787_Il2CppObject_Il2CppObject_Il2CppObjectPK10MethodInfoPvPS2_
LCf:__Z53RuntimeInvoker_Void_t2779279689_UriScheme_t3266528785PK10MethodInfoPvPS2_
Qah:__ZNKSt3__18time_getIcNS_19istreambuf_iteratorIcNS_11char_traitsIcEEEEE13do_date_orderEv
Cv:__ZN24AudioScriptBufferManagerD2Ev
iih:dynCall_vdd
Jbc:__ZN12b2MouseJoint11ShiftOriginERK6b2Vec2
jdh:__ZNKSt3__18messagesIcE7do_openERKNS_12basic_stringIcNS_11char_traitsIcEENS_9allocatorIcEEEERKNS_6localeE
K4:__ZN22MemoryCacherReadBlocksD2Ev
Kdd:_Exception_GetFullNameForStackTrace_m130874526
tUe:_TypeInitializationException_GetObjectData_m2924961818
eRf:_UnityWebRequest__ctor_m3561636576
YIe:_ObjectRecord_SetMemberValue_m4010306395
Aba:__ZN4Mesh24UpdateSubMeshVertexRangeEi
XUd:_RSAManaged_GetPaddedValue_m3945925723
FW:__Z20AddActiveLocalLightsRK27LocalLightCullingParametersRK14ShadowCullDataPK8Vector4fPPK5LightRK9IndexListPfRSC_R12ActiveLightsP15LightScreenInfo
vQe:_Monitor_Wait_m34507825
hZ:__ZNK14RenderSettings19GetFlatAmbientColorEv
Xab:__ZN6prcoreL10inner_flipILj4EEEvPhS1_j
wda:__Z19CalculateVertexSizejRK20VertexChannelsLayoutPj
Bje:_InternalEnumerator_1__ctor_m207626719_gshared
Zif:_RegularExpression_Compile_m201671475
Yid:_Escape_t2084662433_marshal_pinvoke_cleanup
YWf:_WWWTranscoder_QPEncode_m1021207296
jee:_List_1_Equals_m348709662_gshared
xqa:__ZN14Texture2DArray17UploadToGfxDeviceEv
jt:__Z14FMODMemoryFreePvjPKc
wOe:_UTF32Encoding_GetByteCount_m4053178303
Mtb:__ZThn28_N8RendererD0Ev
gVc:_Attribute_GetCustomAttribute_m506754809
cXg:__ZL99Rigidbody2D_t3632243084_CustomAttributesCacheGenerator_Rigidbody2D_INTERNAL_set_velocity_m136509638P21CustomAttributesCache
Tpf:__Z84RuntimeInvoker_Il2CppObject_Il2CppObject_Il2CppObject_Int32_t2847414787_Il2CppObjectPK10MethodInfoPvPS2_
Smc:_cf2_glyphpath_moveTo
dde:_IntervalCollection_Optimize_m2537418330
LRf:_UnityWebRequest_set_disposeDownloadHandlerOnDispose_m4263077100
R$c:_Hashtable__ctor_m775991879
Fpe:_Dictionary_2_ContainsKey_m2612169713_gshared
K0b:__ZN5IMGUI14GUIWindowStateD2Ev
CFd:_BinaryReader_Dispose_m2135076121
CYf:_DefaultComparer_GetHashCode_m4200825925_gshared
jCg:__ZL90SafeWaitHandle_t3630061075_CustomAttributesCacheGenerator_SafeWaitHandle__ctor_m2304648142P21CustomAttributesCache
mug:__ZN6il2cpp6icalls8mscorlib6SystemL16GetFieldFromTypeINS_5utils10functional6FilterINSt3__112basic_stringIcNS7_11char_traitsIcEENS7_9allocatorIcEEEENS4_11StringUtils23CaseInsensitiveComparerEEEEEP21Il2CppReflectionFieldP11Il2CppClassSK_iRKT_
cxa:__Z21PlayerStartFirstSceneb
OZd:_TlsClientHello_ProcessAsTls1_m4035741051
Nm:_emscripten_glIsTexture
xl:_emscripten_glHint
_sc:_ft_var_readpackeddeltas
PO:__ZN6Object15ClassIDToStringEi
eOc:_String_IndexOf_m4052910459
U0e:_GUILayoutUtility_SelectIDList_m801008209
dHf:_List_1_Contains_m4186092781_gshared
W_:__Z14DrawGUITextureRK5RectTIfEP7Texture11ColorRGBA32P8Material
fm:_SDL_UpperBlit
CJd:_PathTooLongException__ctor_m1393064838
Crd:_ApplicationException__ctor_m1727689164
Fbc:__ZNK12b2MouseJoint10GetAnchorAEv
pEa:__ZN14SafeBinaryRead20OverrideRootTypeNameEPKc
G4:__ZN14FileCacherRead16UnlockCacheBlockEj
OJf:_Collection_1_System_Collections_IList_IndexOf_m847658200_gshared
SUe:_UInt16_Parse_m148894233
Vcc:__Z52Register_UnityEngine_BoxCollider2D_INTERNAL_set_sizev
P$c:_Hashtable__ctor_m556844962
cU:__ZN6Camera6RenderER11CullResultsR17ShaderPassContextPK21CameraRenderingParamsNS_10RenderFlagE
W0c:_SyncHashtable_GetObjectData_m765378770
byd:_Array_InternalArray__Insert_TisUInt32_t985925326_m1191164322_gshared
Td:_emscripten_glUniform1f
R0g:__ZNSt3__16vectorIPK10Il2CppTypeNS_9allocatorIS3_EEE26__swap_out_circular_bufferERNS_14__split_bufferIS3_RS5_EE
zic:__Z20ParseImageParametersR11UTF16StringRiRN20TextRenderingPrivate16TextFormatChangeE
O8d:_X509SubjectKeyIdentifierExtension_get_SubjectKeyIdentifier_m2494939520
wc:_emscripten_glUniform1i
jgd:_U24ArrayTypeU2420_t214874515_marshal_pinvoke_back
sAa:__ZN13MonoBehaviour9CallAwakeEv
Hrg:__Z14bankers_roundff
GMc:_Single_IsNegativeInfinity_m3390831215
_ig:__ZN6il2cpp2os12Cryptography23GetCryptographyProviderEv
$Td:_MD2Managed__cctor_m782023554
UXf:_SymmetricTransform_TransformFinalBlock_m2524388439
GGg:__ZL52IsVolatile_t953699980_CustomAttributesCacheGeneratorP21CustomAttributesCache
Ykf:__Z124RuntimeInvoker_Void_t2779279689_Int32U26_t2544866037_Il2CppObject_Il2CppObject_BooleanU26_t3343357035_BooleanU26_t3343357035PK10MethodInfoPvPS2_
Jc:_emscripten_glAttachShader
LRa:__Z40DebugStringToFilePostprocessedStacktraceRK21DebugStringToFileData
$mg:__ZN16VirtFuncInvoker3IP20ByteU5BU5D_t58506160P22CharU5BU5D_t3416858730iiE6InvokeEjPvS3_ii
iib:__Z24GetComponentOrScriptNameRN5Unity9ComponentE
JMg:__ZL53Thread_t1674723085_CustomAttributesCacheGenerator__ecP21CustomAttributesCache
tba:__ZNK4Mesh25GetClassIDVirtualInternalEv
Vqg:__ZN21InterfaceFuncInvoker0IP22MethodBase_t3461000640E6InvokeEjP11Il2CppClassPv
w6e:_Internal_DrawArguments_t1561977533_marshal_pinvoke_back
khd:_ContractionComparer__cctor_m2104149
T5b:__ZN13BoxCollider2D16CheckConsistencyEv
xqf:__Z130RuntimeInvoker_Int32_t2847414787_Il2CppObject_Int32_t2847414787_Int32_t2847414787_Il2CppObject_Int32_t2847414787_SByte_t2855346064PK10MethodInfoPvPS2_
qZa:_tlsf_walk_heap
T$g:__ZN6il2cpp2os11MutexHandleD0Ev
qCc:__Z46DownloadHandler_CUSTOM_InternalCreateAudioClipP15ScriptingObjectP15ScriptingStringi
Enb:__ZN15dense_hashtableINSt3__14pairIKNS0_12basic_stringIcNS0_11char_traitsIcEE13stl_allocatorIcL18MemLabelIdentifier54ELi16EEEEP20ArchiveStorageReaderEES8_11djb2_hash_tIS8_EN14dense_hash_mapIS8_SB_SE_NS0_8equal_toIS8_EES5_ISC_LS6_54ELi16EEE9SelectKeyESH_SI_ED2Ev
Gxc:__ZN11UnityEngine15PlatformWrapper17IsUnityAdsEnabledEv
bgd:_U24ArrayTypeU24128_t2366141826_marshal_pinvoke_cleanup
Qsd:_Array_InternalArray__ICollection_Remove_TisTableRange_t476453423_m2754959145_gshared
db:invoke_vif
fda:__ZN14VertexDataInfo13UpdateStreamsEjjjRK19VertexStreamsLayoutRK20VertexChannelsLayout
eb:invoke_vid
fb:invoke_vii
Ebh:__ZNKSt3__18time_getIwNS_19istreambuf_iteratorIwNS_11char_traitsIwEEEEE11__get_am_pmERiRS4_S4_RjRKNS_5ctypeIwEE
L8:__ZN12TLSAllocatorI14StackAllocatorE16ThreadInitializeEP13BaseAllocator
t7b:__ZN17Physics2DSettings23VirtualRedirectTransferER18StreamedBinaryReadILb1EE
IUc:_Array_swap_m3373592551
E8e:_ComVisibleAttribute__ctor_m1005514726
pTc:_Array_SetValue_m2302374076
A$c:_DictionaryEntry_get_Key_m3516209325
Z2g:__ZN6il2cpp2gc9AllocatorIPNSt3__111__hash_nodeINS2_17__hash_value_typeINS2_4pairIPK14Il2CppAssemblyP11Il2CppClassEEP24Il2CppReflectionAssemblyEEPvEEE10deallocateESF_j
h$f:_RuntimeServices_IsPromotableNumeric_m4140154171
gia:__Z26scripting_field_get_offsetP14ScriptingField
aFc:_MACTripleDES_Setup_m1287775502
EYc:_ArrayList_Remove_m2154849791
u7f:__ZN6il2cpp6icalls8mscorlib6System9Threading6Thread27GetSerializedCurrentCultureEP12Il2CppThread
pld:_BitConverterLE_UShortFromBytes_m2244877436
Asa:__Z31CalculateHierarchyTransformType23TransformAccessReadOnly
xoa:__ZN6Sprite23VirtualRedirectTransferER13ProxyTransfer
gy:__ZN4FMOD8ChannelI11setPositionEjj
HF:__ZN11UnityEngine15CloudWebService16SessionContainer27GetDeleteErrorJsonDataBlockERK8UnityStrS4_RS2_
$wa:__Z24GetPlayerRunInBackgroundv
iec:__ZN10Collider2D12SetPolygon2DEP9Polygon2D
Vkd:_ASN1_Decode_m3655129841
Xte:_ConstructorInfo_get_MemberType_m1468140761
Ifg:_GC_set_fl_marks
lO:__ZN17BaseObjectManager13StaticDestroyEPv
b9:__ZN18PlayableController18DoesPlayableExistsEPK8Playable
Ft:__ZN12AudioManager14UpdateListenerERK8Vector3fS2_S2_S2_
mId:_FileSystemInfo_get_FullName_m2636706970
LA:__ZN4FMOD6Reverb13setPropertiesEPK22FMOD_REVERB_PROPERTIES
Y0b:__Z38Event_CUSTOM_Internal_GetMousePositionP15ScriptingObjectP13Vector2fIcall
J2b:__Z57Register_UnityEngine_GUIStyleState_INTERNAL_set_textColorv
Tng:__ZN16VirtFuncInvoker1IP22StackFrame_t2860697380iE6InvokeEjPvi
Hwa:__Z18ExtractTagThrowingR11ICallString
Ojd:_ModulusRing_Pow_m3873329921
hbb:__ZN4PPtrI6ShaderE8TransferI19StreamedBinaryWriteILb0EEEEvRT_
xBe:_Module_GetCustomAttributes_m2375287279
Wzd:_GameObject_GetComponentsInChildren_TisIl2CppObject_m2133301907_gshared
rob:__ZN4core20StringStorageDefaultIcE6assignEPKcj
b8g:__ZNSt3__112basic_stringIcNS_11char_traitsIcEENS_9allocatorIcEEE9push_backEc
B1d:_InternalAsyncResult_get_AsyncException_m789203443
JOc:_StringBuilder_Append_m2996071419
ysg:__ZN16VirtFuncInvoker1IhiE6InvokeEjPvi
zU:__ZN6Camera6SetFarEf
pMc:_Single_System_IConvertible_ToBoolean_m1763424693
ETb:__ZN6prcoreL12RemapGenericI17TexFormatABGR888817TexFormatARGB8888EEvPKNS_9InnerInfoE
yP:__ZN11GameManager17MainThreadCleanupEv
Pfd:_U24ArrayTypeU241024_t335950518_marshal_pinvoke
bgf:_QuickSearch_GetShiftDistance_m2673548988
cCg:__ZL54IAsyncResult_t537683269_CustomAttributesCacheGeneratorP21CustomAttributesCache
$Tc:_Array_Copy_m3799309042
u5b:__ZN10Collider2D12AddToManagerEv
BG:__ZN11UnityEngine15CloudWebService17CloudServiceEvent12ToJsonStringER8UnityStrjPKc
moc:_UNITY_tt_slot_init
ofa:__ZN9GfxDevice20DestroyRenderSurfaceER12ObjectHandleI17RenderSurface_TagP17RenderSurfaceBaseE
Bwg:__ZNSt3__16vectorIN6il2cpp2vm5Image20EmbeddedResourceDataENS_9allocatorIS4_EEE21__push_back_slow_pathIS4_EEvOT_
ftb:__ZN9GfxDevice22UpdateComputeResourcesEjPK9TextureIDPK16TextureDimensionPKijPKjjPK15ComputeBufferIDS7_PK20ComputeBufferCounterjSC_S2_S5_S9_SF_
M8:__ZN12TLSAllocatorI14StackAllocatorE13ThreadCleanupEv
vug:__ZN6il2cpp6icalls8mscorlib6System18CollectTypeMethodsINS_5utils10functional10TrueFilterEEEvP11Il2CppClassPKS7_jRKT_RNSt3__16vectorIPK10MethodInfoNSE_9allocatorISI_EEEERA65535_b
bu:__Z18GetAudioManagerPtrv
Djg:__ZN6il2cpp6icalls8mscorlib6System4Char20GetDataTablePointersEPPhS5_PPdPPtS9_S9_S9_
ATf:_Object_t3878351788_marshal_pinvoke
fba:__ZN4Mesh27SwizzleVertexColorsIfNeededEb
psa:__Z27FindActiveTransformWithPathPKc
PS:__ZN12BaseRendererD0Ev
Fne:_Transform_1_BeginInvoke_m788143672_gshared
Ttc:_ft_black_render
gQf:_X509Store__ctor_m3740673213
Poa:__ZN7Texture5ResetEv
iPg:__ZL79Convert_t1097883944_CustomAttributesCacheGenerator_Convert_ToUInt64_m2531670463P21CustomAttributesCache
Yvd:_Array_InternalArray__ICollection_Add_TisLink_t2496691359_m2712315396_gshared
P_a:__ZN7ApiGLES11UnmapBufferEjN2gl12BufferTargetE
fFc:_MACTripleDES_Initialize_m3105423192
tpa:__Z25GetNextAllowedTextureSizeib13TextureFormat
CQa:__ZN20LocalFileSystemWebGL4CopyER13FileEntryDataS1_
HAe:_FieldInfo_internal_from_handle_type_m449136039
ZDb:__Z22Transfer_Builtin_AlignIh14SafeBinaryReadLb0EEvRK29SerializationCommandArgumentsR31RuntimeSerializationCommandInfo
$jg:__ZN6il2cpp2os9Semaphore4WaitEb
GQd:_ObsoleteAttribute__ctor_m3622855086
Pec:__ZN15b2FrictionJointD0Ev
Sug:__ZNSt3__112__hash_tableINS_17__hash_value_typeINS_4pairIPK14Il2CppAssemblyP11Il2CppClassEEP24Il2CppReflectionAssemblyEENS_22__unordered_map_hasherIS8_SB_17ReflectionMapHashIS8_ELb1EEENS_21__unordered_map_equalIS8_SB_19ReflectionMapEqualsIS8_ELb1EEEN6il2cpp2gc9AllocatorISB_EEE15__insert_uniqueINS2_IKS8_SA_EEEENS2_INS_15__hash_iteratorIPNS_11__hash_nodeISB_PvEEEEbEEOT_
Ogd:_U24ArrayTypeU24640_t2366146685_marshal_pinvoke_cleanup
TS:__ZN12BaseRenderer20FlattenToRenderQueueER15RenderNodeQueueRK20DeprecatedSourceData
Lta:__ZN11TimeManager23VirtualRedirectTransferER18StreamedBinaryReadILb1EE
Cia:__Z34scripting_liveness_calculation_endPv
iSd:_BigInteger_op_Implicit_m2620841043
ePb:__ZNSt3__16vectorIN15QualitySettings14QualitySettingENS_9allocatorIS2_EEE7reserveEj
rJa:__Z35UnityPropertySheet_MakeSortedColorsRKNSt3__13mapIN9ShaderLab16FastPropertyNameE10ColorRGBAfNS_4lessIS2_EENS_9allocatorINS_4pairIKS2_S3_EEEEEER10vector_mapIS2_S3_S5_NS6_INS7_IS2_S3_EEEEE
add:_Enum_ToString_m4089777287
fjf:_Uri__ctor_m4101815696
u1e:_GUILayoutEntry_get_style_m3507897988
pAg:__ZL69Il2CppArray_CustomAttributesCacheGenerator_Array_GetValue_m2759746956P21CustomAttributesCache
QRc:_Latin1Encoding_GetBytes_m3819398871
lLc:_SecurityContext_get_FlowSuppressed_m2046518873
e8f:__ZN6il2cpp2vm6Thread6DetachEP12Il2CppThread
bba:__Z27ConvertSubMeshesToTrianglesRNSt3__16vectorI7SubMesh13stl_allocatorIS1_L18MemLabelIdentifier16ELi16EEEER13dynamic_arrayItLj2EE
huc:_Render_Single_Pass
WG:__ZN11UnityEngine15CloudWebService14DataDispatcher24PreformWebDispatchStaticEPv
lJb:__Z16Transfer_BuiltinIx18StreamedBinaryReadILb0EELb0EEvRK29SerializationCommandArgumentsR31RuntimeSerializationCommandInfo
RLc:_SecurityException_get_PermissionState_m2560577038
Kbg:__ZN6il2cpp2os10ThreadImpl5SleepEjb
exc:__ZN22BaseUnityConnectClient12IsNewSessionEv
idf:_ConstructionCall_get_ActivationType_m242799220
jKa:__ZN15FileSystemEntry4MoveERS_23FileSystemCopyMoveFlags
Egd:_U24ArrayTypeU2452_t214874610_marshal_pinvoke_back
$mh:_glBindSampler__wrapper
P6e:_Keyframe_t2095052507_marshal_pinvoke_cleanup
Of:_emscripten_set_mouseup_callback
h3g:__ZNK6il2cpp5utils10functional6FilterINSt3__112basic_stringIcNS3_11char_traitsIcEENS3_9allocatorIcEEEENS0_11StringUtils23CaseInsensitiveComparerEEclIPKcEEbRKT_
Usb:__ZN9GfxDevice27SetRandomWriteTargetTextureEi9TextureID
I_e:_DebugLogHandler__ctor_m1521597024
yAa:__ZN13MonoBehaviour19RebuildMonoInstanceEP14ScriptingClassP15ScriptingObjectP10MonoScript
PYa:__ZNK18ScreenManagerWebGL8GetWidthEv
ZKf:_ReadOnlyCollection_1_System_Collections_ICollection_CopyTo_m1945557633_gshared
nih:dynCall_iiifii
f2f:__ZN6il2cpp2vm13MetadataCache33GetFieldDefaultValueDataFromIndexEi
JC:__ZN10SampleClipD2Ev
Jbg:__ZN6il2cpp2os10ThreadImpl13SetWaitObjectEPNS0_5posix15PosixWaitObjectE
hQd:_NumberFormatter_AppendIntegerString_m2478096468
dpa:__ZN7Texture23VirtualRedirectTransferER13ProxyTransfer
crc:_cff_cmap_unicode_init
VVd:_CipherSuite_get_ClientHMAC_m3918386475
Pqb:__ZN14FileCacherRead13GetFileLengthEv
W2:__ZN15LODGroupManager21CalculateLODDataArrayERK17CullingParametersPK6Cameraf
sUc:_Array_Sort_m576952892
Txf:__Z98RuntimeInvoker_Void_t2779279689_Il2CppObject_Int32_t2847414787_Int32_t2847414787_UInt16_t985925268PK10MethodInfoPvPS2_
F2f:__ZN6il2cpp2vm29RaiseExecutionEngineExceptionEPKc
ZVc:_Boolean_System_IConvertible_ToUInt16_m136688779
LTd:_ARC4Managed_TransformBlock_m961675998
Qae:_X509KeyUsageExtension__ctor_m3332265501
Qod:_PKCS12_set_IterationCount_m2830125857
DFc:_RC2_get_KeySize_m4162312413
e6a:_consume_markers
Hoa:__ZNK6Sprite9GetBoundsE8Vector2fbb
EPf:_X509Crl__ctor_m1270803331
Jye:_MethodBuilder_get_Attributes_m2121429796
Q1d:_SslStreamBase_Flush_m2030445923
ZXa:__ZN11ContextGLES6CreateEi
Odd:_ExecutionEngineException__ctor_m303736736
tKb:__Z19TransferField_ArrayI18StreamedBinaryReadILb0EE27Converter_SimpleNativeClassI17AnimationCurveTplIfEEEvRK23StaticTransferFieldInfoR31RuntimeSerializationCommandInfoRT0_
wia:__Z29scripting_field_has_attributeP14ScriptingClassP14ScriptingFieldS0_
ly:__ZN4FMOD4DSPI13disconnectAllEbb
pLg:__ZL58WindowsIdentity_t4008973414_CustomAttributesCacheGeneratorP21CustomAttributesCache
h8e:_SatelliteContractVersionAttribute__ctor_m69110617
MJf:_Collection_1_System_Collections_IList_Add_m2420983424_gshared
nM:_jpeg_mem_available
W8a:__ZN16GraphicsSettings8TransferI18StreamedBinaryReadILb1EEEEvRT_
yBc:__ZN26DownloadHandlerAssetBundle13OnReceiveDataEPKvj
NDa:__ZN9Scripting28CreateEngineScriptableObjectEP15ScriptingObject
ZRa:__ZN11MessageLoopC2Ev
bNc:_String_System_IConvertible_ToInt32_m625301516
toa:__ZN11TextureData5ResetEv
uob:__ZL30InitializeCoreScriptingClassesv
jUe:_TypeLoadException__ctor_m2756824898
Mg:_glBlitFramebuffer
bIg:__ZL65IContributeDynamicSink_t2150711610_CustomAttributesCacheGeneratorP21CustomAttributesCache
gMa:__ZN17ArchiveFileSystem5TouchER13FileEntryData
l5f:__ZN6il2cpp2vm10Reflection15GetMethodObjectEPK10MethodInfoP11Il2CppClass
Fif:_Parser_ParseCharacterClass_m4053595992
t4:__ZN12CachedWriter15CompleteWritingEv
TWb:__ZN13dynamic_arrayI11CulledLightLj4EE6insertEPS0_PKS0_S4_
soh:_munmap__wrapper
MQg:__ZL58HybridDictionary_t370358365_CustomAttributesCacheGeneratorP21CustomAttributesCache
LCb:__ZNSt3__16vectorI8Vector3f13stl_allocatorIS1_L18MemLabelIdentifier1ELi16EEE6assignINS_11__wrap_iterIPS1_EEEENS_9enable_ifIXaasr21__is_forward_iteratorIT_EE5valuesr16is_constructibleIS1_NS_15iterator_traitsISB_E9referenceEEE5valueEvE4typeESB_SB_
v2c:_Convert__cctor_m707299055
JS:__ZN10TagManager23VirtualRedirectTransferER18StreamedBinaryReadILb1EE
ILg:__ZL89ASCIIEncoding_t15734376_CustomAttributesCacheGenerator_ASCIIEncoding_GetBytes_m1886644629P21CustomAttributesCache
fo:FUNCTION_TABLE_vif
go:FUNCTION_TABLE_vid
ho:FUNCTION_TABLE_vii
eL:_UNITY_png_create_write_struct
Hjc:_UNITY_FT_Set_Transform
ROb:__ZNK32RendererMaterialAnimationBinding12SetPPtrValueERKN11UnityEngine9Animation10BoundCurveEi
Fag:__ZN6il2cpp8metadata15GenericMetadata20RegisterGenericClassEP18Il2CppGenericClass
Hmh:_glDeleteFramebuffers__wrapper
xJd:_Path_IsDsc_m2558771155
hmd:_KeyGeneratedEventHandler_BeginInvoke_m3899350926
K$c:_Hashtable_ToPrime_m840372929
THe:_ServerIdentity_get_ObjectType_m2513984357
jCa:__ZN18ScriptingArguments9AddStructEPv
Bz:__ZN10ObjectPoolIN4FMOD3DSPENS0_4DSPIEE8ValidateEPS1_
Off:_PatternCompiler_EmitBranchEnd_m676018014
dbf:_ConfigHandler_ExtractAssembly_m1425451284
_Pb:__ZN28EnlightenRendererInformation8TransferI14SafeBinaryReadEEvRT_
OZa:__ZN7ApiGLES12DrawIndirectE16GfxPrimitiveTypej
MQa:__ZNK15Lz4Decompressor16DecompressMemoryEPKvPjPvS2_
KDc:__Z67Register_UnityEngine_Networking_UnityWebRequest_get_downloadHandlerv
$zb:__ZNSt3__16vectorI14ConstantStringNS_9allocatorIS1_EEE6assignINS_11__wrap_iterIPS1_EEEENS_9enable_ifIXaasr21__is_forward_iteratorIT_EE5valuesr16is_constructibleIS1_NS_15iterator_traitsISA_E9referenceEEE5valueEvE4typeESA_SA_
Qyg:__ZL69String_t_CustomAttributesCacheGenerator_String_GetHashCode_m471729487P21CustomAttributesCache
l7a:__ZNSt3__16__treeINS_12__value_typeINS_12basic_stringIcNS_11char_traitsIcEE13stl_allocatorIcL18MemLabelIdentifier54ELi16EEEEP11AssetBundleEENS_19__map_value_compareIS8_SB_NS_4lessIS8_EELb1EEES5_ISB_LS6_54ELi16EEE12__find_equalISB_EERPNS_16__tree_node_baseIPvEESN_RKT_
Lee:_U3CGetEnumeratorU3Ec__Iterator0_Dispose_m1616284631_gshared
Inc:_UNITY_tt_face_load_os2
x5c:_Convert_ToString_m1285681781
kKf:_Collection_1_CheckWritable_m240037625_gshared
wlg:__GLOBAL__sub_I_RCW_cpp
Cgd:_U24ArrayTypeU2448_t214874585_marshal_pinvoke_cleanup
Nfg:_GC_print_finalization_stats
Pka:__ZN11JpegDecoderC2Ev
Jde:_List_1__cctor_m1688715071_gshared
rpd:_PKCS12_AddCertificate_m3204746356
gYg:__ZL58GUISkin_t2614611333_CustomAttributesCacheGenerator_m_labelP21CustomAttributesCache
awe:_DynamicMethod_get_ReflectedType_m1158351066
GPb:__ZN4PPtrI11LightProbesE8TransferI18StreamedBinaryReadILb0EEEEvRT_
PNc:_String_CompareTo_m1951109700
sDa:__ZN9TextAsset8TransferI18StreamedBinaryReadILb1EEEEvRT_
Q6b:__ZN16Physics2DManager25DestroyColliderCollisionsEP10Collider2D
tyg:__ZL76UInt16_t985925268_CustomAttributesCacheGenerator_UInt16_TryParse_m1136207264P21CustomAttributesCache
mi:_JS_WebRequest_Release
Dag:__ZN6il2cpp8metadata15GenericMetadata7InflateEPK19Il2CppGenericMethodPK20Il2CppGenericContext
d3g:__ZNSt3__114__split_bufferIP11Il2CppClassRNS_9allocatorIS2_EEEC2EjjS5_
IYd:_Context_get_WriteSequenceNumber_m2425723185
tMe:_CryptographicException__ctor_m2400722889
G3d:_NameObjectCollectionBase__ctor_m1741929684
sTd:_ASN1Convert_FromOid_m1663059922
axg:__ZN6il2cpp6icalls8mscorlib6SystemL24string_icall_is_in_arrayEP11Il2CppArrayit
LJf:_Collection_1_System_Collections_IEnumerable_GetEnumerator_m934847197_gshared
N$b:__ZN8GUIState8EndOnGUIEv
s$e:_Event_t1590224583_marshal_pinvoke
xoc:_UNITY_TT_Get_VMetrics
rab:__ZN14qsort_internal6_QSortIP14RenderPassDataiN23ForwardShaderRenderLoop18RenderObjectSorterILb0EEEEEvR8JobFenceT_S8_T0_T1_RKS6_P19ProfilerInformation
$5g:__ZNSt8bad_castD0Ev
fah:__ZNSt3__19__num_getIwE17__stage2_int_loopEwiPcRS2_RjwRKNS_12basic_stringIcNS_11char_traitsIcEENS_9allocatorIcEEEEPjRSD_Pw
xbe:_FactoryCache_Add_m2875491713
xwa:__Z16CreateGameObjectRKNSt3__112basic_stringIcNS_11char_traitsIcEENS_9allocatorIcEEEEPKcz
jdd:_Environment_get_Platform_m977128040
Kde:_List_1_System_Collections_Generic_ICollectionU3CTU3E_Add_m356958225_gshared
Zoa:__ZN7Texture21GetMasterTextureLimitEv
wVc:_BitConverter_DoubleToInt64Bits_m4106078782
rL:_UNITY_png_write_sRGB
WKc:_StrongName_Equals_m3416747224
R_b:__ZN9ShaderLabL25StaticInitializeShaderLabEPv
j0c:_Hashtable_Clear_m3215138325
wfd:_DateTimeFormatInfo_set_Calendar_m2253923569
mKc:_SecurityPermission_ToXml_m258336926
_b:invoke_viiiiiffii
SR:__ZN16MessageForwarder23RegisterMessageCallbackEiPFvPviR11MessageDataEi
hZc:_ArrayListWrapper_IndexOf_m3715286313
uLe:_RuntimeMethodHandle_get_Value_m2270388129
Myg:__ZL74String_t_CustomAttributesCacheGenerator_String_Format_m3351777162____args2P21CustomAttributesCache
_cg:__ZN6il2cpp2os6Thread16GetCurrentThreadEv
UBd:_NumberFormatInfo_get_PercentNegativePattern_m1445269293
Irb:__ZThn28_N14SpriteRendererD1Ev
v8a:__ZN10TagManager8TransferI19StreamedBinaryWriteILb0EEEEvRT_
CBa:__ZN11PreloadData23VirtualRedirectTransferER18StreamedBinaryReadILb0EE
rpb:__Z15FindOrAddByNameI15ComputeShaderCBERT_RNSt3__16vectorIS1_NS3_9allocatorIS1_EEEERKS1_
HEe:_ResolveEventHandler__ctor_m2424315661
OFf:_Enumerator_System_Collections_IEnumerator_get_Current_m143716486_gshared
Fpc:__ZNSt3__16__treeINS_12__value_typeIN20TextRenderingPrivate7FontRefEP11FT_FaceRec_EENS_19__map_value_compareIS3_S6_NS_4lessIS3_EELb1EEENS_9allocatorIS6_EEE7destroyEPNS_11__tree_nodeIS6_PvEE
hlh:_glBlendFuncSeparate__wrapper
Hv:__ZN10AudioMixer14UpdateMuteSoloEv
fJb:__Z22Transfer_Builtin_AlignIt18StreamedBinaryReadILb0EELb0EEvRK29SerializationCommandArgumentsR31RuntimeSerializationCommandInfo
Wia:__Z17GetMonoManagerPtrv
P8f:__ZN6il2cpp2vm9Exception27RaiseNullReferenceExceptionEv
c_d:_TlsServerCertificate_validateCertificates_m3450033811
A5:__ZN9ShaderLab10SubProgram7CompileEv
__a:__ZN7ApiGLES16SetPatchVerticesEi
ssb:__ZN9GfxDevice12PresentFrameEPK14ChannelAssigns
rwf:__Z146RuntimeInvoker_Il2CppObject_Il2CppObject_Int32_t2847414787_Int32_t2847414787_Il2CppObject_SByte_t2855346064_Il2CppObject_Il2CppObject_Il2CppObjectPK10MethodInfoPvPS2_
Hk:_acosf
zp:__ZN6Object12SetHideFlagsEi
vOa:__ZN10MemoryFileC2E18MemLabelIdentifierP14MemoryFileData14FilePermission
o0f:__ZN6il2cpp2vm5Class20FromGenericParameterEPK22Il2CppGenericParameter
Ope:_Dictionary_2_ContainsKeyValuePair_m139391042_gshared
CNd:_MonoType_GetConstructorImpl_m2165817190
V_b:__ZN15GlobalCallbacksC2Ev
_6a:__ZN11AssetBundle8TransferI14SafeBinaryReadEEvRT_
yKd:_StreamWriter_Flush_m4024097848
$9b:__ZN7b2World10CreateBodyEPK9b2BodyDef
Qgg:_GC_add_ext_descriptor
nKf:_Collection_1_System_Collections_ICollection_CopyTo_m4131878781_gshared
MGe:_SerializationInfo_AddValue_m469120675
Njc:_UNITY_FT_New_Memory_Face
r5f:__ZN6il2cpp2vm10Reflection6IsTypeEP12Il2CppObject
tge:_InternalEnumerator_1_MoveNext_m4030197783_gshared
pfc:__ZNSt3__17__sort3IR29ColliderHitsByDepthComparitorPP10Collider2DEEjT0_S6_S6_T_
i6:__ZN9ShaderLab15PushParserStateEPNS_17ParserShaderStateE
rBb:__Z16Transfer_BuiltinIy18StreamedBinaryReadILb1EELb1EEvRK29SerializationCommandArgumentsR31RuntimeSerializationCommandInfo
lKd:_NullStreamReader_Peek_m2515952764
qmg:__Z15CastclassSealedP12Il2CppObjectP11Il2CppClass
Nuf:__Z50RuntimeInvoker_SByte_t2855346064_Single_t958209021PK10MethodInfoPvPS2_
TDg:__ZL91BinaryReader_t2158806251_CustomAttributesCacheGenerator_BinaryReader_ReadUInt64_m4114149001P21CustomAttributesCache
ova:__ZN15ApplicationInfo14GetSandboxTypeEv
r0e:_GameObject_GetComponentsInternal_m181453881
flg:__ZN6il2cpp2os10InitializeEv
adg:__ZN6il2cpp2os6Thread7SetNameERKNSt3__112basic_stringIcNS2_11char_traitsIcEENS2_9allocatorIcEEEE
LVe:_UInt64_System_IConvertible_ToSingle_m4123786431
VX:__ZN16ReflectionProbes40UpdateRealtimeReflectionProbesTimeslicedEv
Dkb:__ZNSt3__16__treeINS_12basic_stringIcNS_11char_traitsIcEENS_9allocatorIcEEEENS_4lessIS6_EE13stl_allocatorIS6_L18MemLabelIdentifier37ELi16EEE7destroyEPNS_11__tree_nodeIS6_PvEE
mle:_Enumerator_System_Collections_IDictionaryEnumerator_get_Entry_m2434214620_gshared
nIc:_SHA256Managed_Initialize_m2794356679
QV:__ZNK16GraphicsSettings25GetClassIDVirtualInternalEv
Bue:_AssemblyBuilder_GetModulesInternal_m2718782039
Xca:__ZN14SpriteRenderer11GetGeometryEv
$X:__ZN16ReflectionProbes15InitializeClassEv
O$d:_SendRecordAsyncResult_SetComplete_m323449559
$mc:_UNITY_FT_Destroy_Class_psnames_module_class
Kcc:__ZNK12b2WheelJoint17GetReactionTorqueEf
Rzf:__Z61RuntimeInvoker_Void_t2779279689_Rect_t1525428817_Il2CppObjectPK10MethodInfoPvPS2_
Tqd:_AccessViolationException__ctor_m1376995463
O9f:__ZN6il2cpp2vm5Image9GetCorlibEv
Tfb:__ZN2UI13RectTransform8TransferI18StreamedBinaryReadILb1EEEEvRT_
gqc:_ft_bitmap_glyph_bbox
Iwg:__ZN6il2cpp2vm11MethodStack17GetStackFramesRawEv
Igg:_GC_reclaim_uninit
LTc:_Array_CreateInstance_m1364223436
x5a:___cxx_global_var_init11101
pk:_glIsVertexArray
TMb:__ZNSt3__16__treeINS_12__value_typeI8UnityStr4PPtrI6ObjectEEENS_19__map_value_compareIS2_S6_NS_4lessIS2_EELb1EEENS_9allocatorIS6_EEE14__insert_multiERKS6_
KRe:_TimerCallback_BeginInvoke_m138041110
dPa:__ZN25SingleBlockMemoryFileDataC2E18MemLabelIdentifierPvjb
BR:__ZN5Unity9Component8TransferI18StreamedBinaryReadILb0EEEEvRT_
Hog:__ZN16VirtFuncInvoker0IhE6InvokeEjPv
ma:invoke_fff
Z4g:_mbsinit
Ybd:_Double_System_IConvertible_ToUInt32_m2350155386
wUa:__Z26AnimationCurve_CUSTOM_InitP15ScriptingObjectP14ScriptingArray
XZa:__ZN7ApiGLES13CreateProgramEv
$V:__ZN11HaloManager7AddHaloEv
Tqe:_Dictionary_2_System_Collections_ICollection_CopyTo_m1936628812_gshared
yeb:__ZN4crnd12crn_unpackerD2Ev
Lk:_emscripten_glTexImage2D
rpc:_tt_driver_class_pic_init
hCa:__ZN18ScriptingArguments9AddStringEPKc
rxg:_setup_header
bob:__ZN15dense_hashtableINSt3__14pairIKNS0_12basic_stringIcNS0_11char_traitsIcEENS0_9allocatorIcEEEES7_EES7_11djb2_hash_tIS7_EN14dense_hash_mapIS7_S7_SB_NS0_8equal_toIS7_EE13stl_allocatorIS9_L18MemLabelIdentifier54ELi16EEE9SelectKeyESE_SH_E15set_deleted_keyERKS9_
ohh:runPostSets
Zze:_TypeBuilder_GetMethodImpl_m2675220686
X6a:__ZL23stbir__resize_arbitraryPvPKviiiS_iiiffffPfiij14stbir_datatype12stbir_filterS4_10stbir_edgeS5_16stbir_colorspace
NGd:_File_OpenRead_m3104031109
Xk:_pthread_detach
S2f:__ZN6il2cpp2vm19SocketPollingThread7RunLoopEv
TLd:_UnmanagedMemoryStream_get_CanSeek_m2528474901
did:_SimpleCollator_GetSortKey_m1379820039
Cue:_AssemblyBuilder_GetTypes_m3461115874
l0e:_Font_InvokeTextureRebuilt_Internal_m1357223658
VOf:_X509Certificate_get_Version_m1452122189
irh:_emscripten_glIsShader__wrapper
rsc:_tt_cmap14_char_next
pch:__ZNKSt3__110moneypunctIwLb0EE16do_thousands_sepEv
MH:__ZN9rapidjson8internal5StackINS_19MemoryPoolAllocatorINS_12CrtAllocatorEEEE6ResizeEj
rS:__ZN11NamedObject8TransferI18StreamedBinaryReadILb0EEEEvRT_
Oxb:__ZNK17GPUSkinPoseBuffer12GetBoneCountEv
GCd:_Guid_CheckLength_m1965613350
AFe:_RemotingSurrogateSelector__ctor_m1480647200
LUf:_Resources_Load_m3601699608
twa:__Z12CanAddScriptR10GameObjectP14ScriptingClassPS2_S3_
WSg:__ZL217U3CGetExtensionMethodsU3Ec__IteratorC_t1663269283_CustomAttributesCacheGenerator_U3CGetExtensionMethodsU3Ec__IteratorC_System_Collections_Generic_IEnumerableU3CSystem_Reflection_MethodInfoU3E_GetEnumerator_m3662757521P21CustomAttributesCache
KNc:_String_Compare_m1439712187
ul:_emscripten_glMatrixMode
SM:_unity_z_inflate
q9c:_Decimal__ctor_m3224510834
oE:__ZN19CloudServiceHandler19StopEventDispatcherEv
iF:__ZN11UnityEngine15CloudWebService14DataDispatcher16PrepareDataBlockERNS0_16SessionContainerE
bWe:_UIntPtr__ctor_m3952300446
EJb:__ZL26Transfer_SimpleNativeClassI18StreamedBinaryReadILb0EE10RectOffsetLb0EEvRK29SerializationCommandArgumentsR31RuntimeSerializationCommandInfo
vjc:_UNITY_ft_destroy_default_module_classes
RKd:_SynchronizedReader__ctor_m2400239097
pUc:_Swapper_Invoke_m3507571047
Cab:__ZL12DepthPassJobPN21GfxDeviceAsyncCommand10ArgScratchEPKNS_3ArgE
Gl:_emscripten_asm_const_2
cNe:_DESTransform__ctor_m3930717539
A9c:_Decimal_System_IConvertible_ToBoolean_m632609316
vha:__Z30scripting_cast_object_to_arrayP15ScriptingObject
kga:__ZN14GfxDeviceStats16CopyAllDrawStatsERKS_
dXe:_Version_CompareTo_m673494338
pUe:_TypedReference_t1193563574_marshal_pinvoke
sn:FUNCTION_TABLE_iiiiiiiiiiii
lve:_ConstructorBuilder_GetILGenerator_m396483969
S2d:_U24ArrayTypeU24128_t2366141827_marshal_pinvoke_back
Bqb:__ZN16GraphicsSettingsD0Ev
vTe:_Type_get_ReflectedType_m3314355776
Ilb:__Z29StdTemplateConversionFunctionIshEbPvR14SafeBinaryRead
Vya:__Z26Transfer_UnityEngineObjectI13ProxyTransferLb1EEvRK29SerializationCommandArgumentsR31RuntimeSerializationCommandInfo
x_d:_TlsException__ctor_m1800218670
m:cttz_i8
sjc:_UNITY_FT_GlyphLoader_Add
xGb:__Z22Transfer_Builtin_AlignIs13ProxyTransferLb0EEvRK29SerializationCommandArgumentsR31RuntimeSerializationCommandInfo
ZQc:_EncoderReplacementFallbackBuffer_Fallback_m2505575553
u4c:_Convert_ToInt16_m686441237
zUd:_EncryptedPrivateKeyInfo_Decode_m236294626
iya:__ZNK15ResourceManager25GetClassIDVirtualInternalEv
Yjb:__ZNSt3__16vectorIP14ScriptingClassNS_9allocatorIS2_EEE8__appendEjRKS2_
D7e:_MonoBehaviour_set_useGUILayout_m589898551
hm:_emscripten_glViewport
TQc:_EncoderReplacementFallback_CreateFallbackBuffer_m2952723553
gba:__ZN4Mesh21UnswizzleVertexColorsEb
Wqc:_cff_parse_font_bbox
UGg:__ZL58DispIdAttribute_t3066611329_CustomAttributesCacheGeneratorP21CustomAttributesCache
Fxa:__ZN14PlayerSettings23VirtualRedirectTransferER18StreamedBinaryReadILb0EE
D$d:_RecordProtocol_ProcessCipherSpecV2Buffer_m572218255
d3e:_GUISkin_get_verticalScrollbar_m3029557256
MFb:__Z19TransferField_ArrayI14SafeBinaryRead19Converter_PrimitiveI8Vector2fEEvRK23StaticTransferFieldInfoR31RuntimeSerializationCommandInfoRT0_
Ckg:__ZN6il2cpp2os5Event5ResetEv
hEb:__Z15Transfer_StringI14SafeBinaryReadLb0EEvRK29SerializationCommandArgumentsR31RuntimeSerializationCommandInfo
yag:__ZN6il2cpp8metadata15GenericMetadata17InflateParametersEPK13ParameterInfohPK20Il2CppGenericContextb
Yyf:__Z53RuntimeInvoker_Boolean_t211005341_Vector3_t3525329789PK10MethodInfoPvPS2_
$Ea:__ZN18AwakeFromLoadQueue28InvokePersistentManagerAwakeEPNS_4ItemEj17AwakeFromLoadMode
ftf:__Z49RuntimeInvoker_StreamingContextStates_t2964666472PK10MethodInfoPvPS2_
XQb:__ZN4PPtrI6SpriteE8TransferI18StreamedBinaryReadILb0EEEEvRT_
ST:__ZNK6Camera23CalculateShadowDistanceEv
Vch:__ZNKSt3__19money_getIwNS_19istreambuf_iteratorIwNS_11char_traitsIwEEEEE6do_getES4_S4_bRNS_8ios_baseERjRNS_12basic_stringIwS3_NS_9allocatorIwEEEE
Kuf:__Z50RuntimeInvoker_SByte_t2855346064_SByte_t2855346064PK10MethodInfoPvPS2_
aVe:_UInt32_System_IConvertible_ToByte_m1898052640
b6g:__ZN10__cxxabiv116__shim_type_infoD2Ev
eqb:__ZN10GameObjectD2Ev
$Qg:__ZL63SecurityProtocolType_t2026288348_CustomAttributesCacheGeneratorP21CustomAttributesCache
$Qa:_LzmaDec_Free
lHd:_ObjectDisposedException__ctor_m1180707260
Qee:_U3CGetEnumeratorU3Ec__Iterator0_MoveNext_m1461469503_gshared
hDf:__Z74RuntimeInvoker_Void_t2779279689_Int32_t2847414787_ResourceInfo_t4074584572PK10MethodInfoPvPS2_
L0g:__ZNSt3__113__vector_baseI20Il2CppStackFrameInfoNS_9allocatorIS1_EEED2Ev
nza:__ZN9Coroutine16CleanupCoroutineEPv
Neh:__ZNKSt3__17codecvtIDic11__mbstate_tE13do_max_lengthEv
d8a:__ZNSt3__16__treeINS_12__value_typeINS_12basic_stringIcNS_11char_traitsIcEENS_9allocatorIcEEEE17MessageIdentifierEENS_19__map_value_compareIS7_S9_NS_4lessIS7_EELb1EEENS5_IS9_EEE7destroyEPNS_11__tree_nodeIS9_PvEE
q_a:__ZN7ApiGLES13CreateTextureEj16TextureDimensionN2gl9TexFormatEiiiii
hph:_emscripten_glTexParameterfv__wrapper
ENf:_PKCS12__ctor_m3732648396
sA:__ZN4FMOD12ChannelGroup10getChannelEiPPNS_7ChannelE
L4f:_il2cpp_method_get_param_count
o0d:_SslClientStream__ctor_m99328227
Udc:__ZN11Rigidbody2D8TransferI19StreamedBinaryWriteILb0EEEEvRT_
Tkg:__ZN6il2cpp8metadata26Il2CppGenericMethodCompare6EqualsEPK19Il2CppGenericMethodS4_
dKf:_Collection_1_RemoveItem_m496227798_gshared
Hzg:__ZL94Delegate_t3660574010_CustomAttributesCacheGenerator_Delegate_Combine_m2723747920____delegates0P21CustomAttributesCache
RWb:__ZNSt3__16__treeI4PPtrI10GUIElementENS_4lessIS3_EE11memory_poolIS3_EE15__insert_uniqueERKS3_
vtc:_ps_dimension_done
Afb:__ZN16LightmapSettings8TransferI14SafeBinaryReadEEvRT_
_$a:__ZN17BufferManagerGLES13ReleaseBufferEP14DataBufferGLES
mp:copyTempDouble
V4d:_HttpWebRequest__ctor_m3412251370
RDg:__ZL91BinaryReader_t2158806251_CustomAttributesCacheGenerator_BinaryReader_ReadUInt16_m3403093289P21CustomAttributesCache
loe:_ValueCollection_System_Collections_Generic_ICollectionU3CTValueU3E_get_IsReadOnly_m2661558818_gshared
rof:__Z94RuntimeInvoker_Int32_t2847414787_Il2CppObject_Il2CppObject_Int32_t2847414787_Int32_t2847414787PK10MethodInfoPvPS2_
jHc:_RSACryptoServiceProvider_Dispose_m4161630864
LPf:_X509Crl_get_NextUpdate_m1145701656
A3e:_SkinChangedDelegate__ctor_m1472037998
Mvd:_MonoProperty_StaticGetterAdapterFrame_TisIl2CppObject_m3228278087_gshared
kUe:_Type_get_IsGenericParameter_m1053942860
kwc:__ZN13RuntimeStaticINSt3__16vectorIPN20TextRenderingPrivate17TextMeshGeneratorENS0_9allocatorIS4_EEEEE13StaticDestroyEPv
PHd:_WriteDelegate__ctor_m1440879850
hp:stackSave
wuc:_ps_dimension_end
tOa:__ZN16MemoryFileSystem5TouchER13FileEntryData
$Fc:_RijndaelTransform_Clear_m4008934691
SMf:_UnityAction_1_BeginInvoke_m1225830823_gshared
CNb:__ZNSt3__16vectorI8UnityStr13stl_allocatorIS1_L18MemLabelIdentifier12ELi16EEE7reserveEj
hSg:__ZL72PKCS12_t2950126080_CustomAttributesCacheGenerator_U3CU3Ef__switchU24map6P21CustomAttributesCache
Ecd:_Enum_System_IConvertible_ToUInt64_m3959759976
rU:__ZN6Camera9SetAspectEf
CHg:__ZL50_Module_t2197041549_CustomAttributesCacheGeneratorP21CustomAttributesCache
aL:_UNITY_png_set_write_fn
xqh:_emscripten_glBindVertexArray__wrapper
Bse:_Assembly_FillName_m3921630801
qFc:_MD5CryptoServiceProvider_HashCore_m255435378
Az:__ZN10ObjectPoolIN4FMOD3DSPENS0_4DSPIEE7GetFreeEi
Dif:_Parser_ParseEscape_m675256065
HDg:__ZL59NumberFormatInfo_t3411951076_CustomAttributesCacheGeneratorP21CustomAttributesCache
fVf:_ScriptableObject_CreateInstanceFromType_m3795352533
sI:__ZTv0_n12_NSt3__119basic_ostringstreamIcNS_11char_traitsIcEENS_9allocatorIcEEED1Ev
m5a:__GLOBAL__sub_I_ScreenManager_cpp
Zba:__ZN17MeshRenderingData4InitEP4MeshS1_iP15SharedGfxBufferS3_
aSc:_StringBuilder__ctor_m3783410093
wLc:_String_Concat_m138640077
$Ef:__Z89RuntimeInvoker_Il2CppObject_Scene_t2772977204_Scene_t2772977204_Il2CppObject_Il2CppObjectPK10MethodInfoPvPS2_
t6b:__Z29ConvertCollision2DToScriptingP11Collision2D
Via:__Z14GetMonoManagerv
mGa:__ZNK14SerializedFile10GetClassIDEx
Jzc:__ZN11UnityEngine15CloudWebService14JsonBaseObject13AddArrayValueEPKc
lqd:_SecurityParser_OnEndElement_m2589612977
y3a:__ZN13GfxDeviceGLES26SetRandomWriteTargetBufferEi15ComputeBufferID
zof:__Z40RuntimeInvoker_TypeAttributes_t104824479PK10MethodInfoPvPS2_
mne:_Transform_1_EndInvoke_m2079925824_gshared
EI:__ZN11UnityEngine15CloudWebService17WebFileDownloaderINS0_13WWWRestClientENS0_16WWWRestHeaderMapEE10InitializeERK8UnityStr
oM:_jpeg_open_backing_store
hyb:__ZN15dense_hashtableINSt3__14pairIKNS0_12basic_stringIcNS0_11char_traitsIcEENS0_9allocatorIcEEEES7_EES7_11djb2_hash_tIS7_EN14dense_hash_mapIS7_S7_SB_NS0_8equal_toIS7_EE13stl_allocatorIS9_L18MemLabelIdentifier54ELi16EEE9SelectKeyESE_SH_E12expand_arrayEjN21dense_hash_map_traits17integral_constantIbLb0EEE
S5d:_pinvoke_delegate_wrapper_RemoteCertificateValidationCallback_t4087051103
VN:__ZN18AssetBundleManager19RegisterAssetBundleEP11AssetBundle
xeg:_GC_number_stack_black_listed
aQg:__ZL53PlatformID_t2455152771_CustomAttributesCacheGeneratorP21CustomAttributesCache
mJa:__ZN18UnityPropertySheet11UnityTexEnvC2Ev
oDf:__Z70RuntimeInvoker_Void_t2779279689_Int32_t2847414787_Keyframe_t2095052507PK10MethodInfoPvPS2_
nQg:__ZL69TypeInitializationException_t120817258_CustomAttributesCacheGeneratorP21CustomAttributesCache
eje:_InternalEnumerator_1_System_Collections_IEnumerator_Reset_m2455416042_gshared
RAa:__ZN10MonoScript13AwakeFromLoadE17AwakeFromLoadMode
Abb:__ZN13dynamic_arrayI16ShaderKeywordSetLj4EE6insertEPS0_PKS0_S4_
Cwe:_TypeBuilder_GetCustomAttributes_m425271400
H_c:_BitArrayEnumerator_get_Current_m1969619056
ARf:_WWWForm_get_data_m2893811951
vQc:_DecoderReplacementFallbackBuffer_GetNextChar_m581213919
BHd:_ReadDelegate__ctor_m383609331
Bna:__ZN13RenderTexture9SetHeightEi
kXd:_Context_get_ClientSettings_m4242530400
Jdd:_Exception_get_StackTrace_m382134187
kyc:__ZN11UnityEngine15PlatformWrapper20SetPlayerPrefsUInt64ERK8UnityStry
Ich:__ZNSt3__19money_getIcNS_19istreambuf_iteratorIcNS_11char_traitsIcEEEEED2Ev
fIc:_SHA256__ctor_m3526765978
u_e:_Coroutine_t2246592261_marshal_pinvoke_cleanup
t9f:__ZN6il2cpp6icalls8mscorlib6System2IO6MonoIO17GetFileAttributesEP12Il2CppStringPi
Tie:_InternalEnumerator_1__ctor_m2772733110_gshared
Yrc:_tt_cmap8_char_index
GOd:_NotImplementedException__ctor_m2063223793
idg:__ZN6il2cpp2os6Thread15CurrentThreadIdEv
kvb:__ZN23PreloadManagerOperationD0Ev
Wd:_emscripten_set_keydown_callback
Q$f:_U24_MoveNext_m850924581
pOf:_PKCS12_AddCertificate_m710679726
Zd:_glGetVertexAttribPointerv
yAd:_Array_InternalArray__get_Item_TisMonoResource_t1936012254_m358920598_gshared
oKa:__ZN12FileAccessorC2Ev
oze:_ModuleBuilder_set_wrappers_type_m3721446447
BHg:__ZL54_MethodInfo_t3831964880_CustomAttributesCacheGeneratorP21CustomAttributesCache
wsa:__ZN9Transform35SetLocalPositionWithoutNotificationERKN4math7_float3E
kPc:_String_memcpy1_m3274610253
mbc:__ZNK11b2GearJoint16GetReactionForceEf
mwe:_EnumBuilder_get_FullName_m1393656155
Mt:__ZN12AudioManager9SetVolumeEf
Crf:__Z79RuntimeInvoker_IntPtr_t_Il2CppObject_Int32U26_t2544866037_ModuleU26_t1373063222PK10MethodInfoPvPS2_
m7d:_X509EnhancedKeyUsageExtension__ctor_m1143045852
DXb:__ZNSt3__17__sort5IR23CompareReflectionProbesP31RuntimeReflectionProbeBlendInfoEEjT0_S5_S5_S5_S5_T_
dYe:_AsyncOperation_set_allowSceneActivation_m2093104207
Bbe:_Key_GetHashCode_m3621609140
jke:_InternalEnumerator_1__ctor_m2104644970_gshared
_og:__ZN16VirtFuncInvoker2IP11FieldInfo_tP8String_tiE6InvokeEjPvS3_i
BZg:__ZL90GUIStyle_t1006925219_CustomAttributesCacheGenerator_GUIStyle_Internal_CalcSize_m1389308622P21CustomAttributesCache
NY:__ZN13RenderManager18UpdateAllRenderersEv
cTc:_Array_System_Collections_IList_Insert_m3772933805
aIb:__Z16Transfer_BuiltinI4AABB17RemapPPtrTransferLb0EEvRK29SerializationCommandArgumentsR31RuntimeSerializationCommandInfo
Y4e:_GUIStyle_CalcHeight_m3565424293
a7g:_wctomb
FQ:__Z24MergeTransformComponentsR9TransformS0_b
g_g:__ZL110UnityWebRequest_t1582871641_CustomAttributesCacheGenerator_UnityWebRequest_InternalGetCustomMethod_m1233973213P21CustomAttributesCache
Rud:_Array_IndexOf_TisCustomAttributeTypedArgument_t560415562_m858079087_gshared
Okd:_PrimalityTests_GetSPPRounds_m2107793502
Hec:__ZN15b2CircleContactD0Ev
_Zf:_GenericComparer_1_Compare_m1091801313_gshared
qYd:_Context_get_AbbreviatedHandshake_m3621257066
rbb:__ZN4core20StringStorageDefaultIcE7replaceEjjPKcj
yHb:__ZL26Transfer_SimpleNativeClassI13ProxyTransfer11GradientNEWLb1EEvRK29SerializationCommandArgumentsR31RuntimeSerializationCommandInfo
Twd:_Array_InternalArray__ICollection_CopyTo_TisInt16_t2847414729_m1730455362_gshared
tNb:__ZNSt3__16vectorIi13stl_allocatorIiL18MemLabelIdentifier12ELi16EEE8__appendEj
kYd:_Context_get_MasterSecret_m2040743066
Zzg:__ZL42Il2CppArray_CustomAttributesCacheGeneratorP21CustomAttributesCache
BIc:_SHA512__ctor_m3297938999
KCd:_Guid_Equals_m1613304319
nk:_emscripten_glVertexAttribPointer
tBa:__ZN14PreloadManager26UpdatePreloadingSingleStepENS_21UpdatePreloadingFlagsEi
cLe:_SerializationInfoEnumerator_System_Collections_IEnumerator_get_Current_m1751158349
dga:__Z19InitializeGfxDevicej
J3:__ZN19RuntimeSceneManager11RemoveSceneEP10UnityScene
lee:_List_1_Contains_m1363263613_gshared
GTe:_Type_GetTypeCode_m2969996822
WJc:_X509Certificate_GetName_m2736019966
C_f:_Dispatcher_EndInvoke_m1615025250
USb:__ZN6prcoreL25inner_stretch_i8_bilinearEPKNS_9InnerInfoE
nG:__ZN11UnityEngine15CloudWebService13WWWRestClient17GetResponseStatusEv
Dwg:__ZNSt3__16vectorIPK10Il2CppTypeNS_9allocatorIS3_EEE21__push_back_slow_pathIS3_EEvOT_
fed:_CCMath_div_mod_m3137892397
b7e:_Mathf_Ceil_m3793305609
Xkd:_ASN1_get_Tag_m3498647997
fgf:_Regex_validate_options_m625353623
d6d:_ServicePoint_get_AvailableForRecycling_m4047613978
RSf:_UploadHandlerRaw_t3371584520_marshal_pinvoke_cleanup
fcg:__ZN6il2cpp6icalls8mscorlib6System9AppDomain22InternalGetProcessGuidEP12Il2CppString
hrc:_cf2_builder_moveTo
RTg:__ZL53Quaternion_t1891715979_CustomAttributesCacheGeneratorP21CustomAttributesCache
Sfe:_InternalEnumerator_1_get_Current_m2306301105_gshared
WUc:_AssemblyLoadEventHandler__ctor_m1325133929
Dmh:_glBindRenderbuffer__wrapper
A7b:__ZN11Rigidbody2D23VirtualRedirectTransferER13ProxyTransfer
mHf:_List_1_RemoveAt_m1301016856_gshared
jtg:__ZN6il2cpp2os12FastAutoLockD2Ev
q2c:_Console_OpenStandardInput_m3911497162
WOa:__ZN24RingBufferMemoryFileData4LockEPPv
Sed:_CultureInfo__ctor_m3309312746
pFa:__ZN17PersistentManager32GetAllFileIDsAndClassIDsFromPathERKNSt3__112basic_stringIcNS0_11char_traitsIcEENS0_9allocatorIcEEEER13dynamic_arrayIxLj8EERS9_IiLj4EE
rXd:_ClientRecordProtocol__ctor_m3035494461
Pnb:__ZNSt3__16__treeINS_12__value_typeINS_12basic_stringIcNS_11char_traitsIcEENS_9allocatorIcEEEEjEENS_19__map_value_compareIS7_S8_NS_4lessIS7_EELb1EEE13stl_allocatorIS8_L18MemLabelIdentifier54ELi16EEE7destroyEPNS_11__tree_nodeIS8_PvEE
Qf:_emscripten_glClearDepth
N9:__ZN8Playable12SetPlayStateE9PlayState
cJc:_SymmetricAlgorithm_set_Key_m4256764768
_$f:_GameManager_Main_m1889022306
Ugh:__ZNSt3__127__num_get_unsigned_integralImEET_PKcS3_Rji
fGa:__ZN14SerializedFile14InitializeReadERKNSt3__112basic_stringIcNS0_11char_traitsIcEENS0_9allocatorIcEEEER18ResourceImageGroupjj24TransferInstructionFlagsjj
v0d:_SslClientStream_remove_ClientCertSelection_m3341991123
pRb:__ZN15SerializeTraitsI13dynamic_arrayI10Matrix4x4fLj16EEE19ResizeSTLStyleArrayERS2_i18MemLabelIdentifier
zlc:_cff_font_load
ylg:__GLOBAL__sub_I_LibraryLoader_cpp
ZVf:_Time_get_timeScale_m1970669766
lZg:__ZL85GUIStyle_t1006925219_CustomAttributesCacheGenerator_GUIStyle_get_fontSize_m2938276678P21CustomAttributesCache
kZb:__ZL22stbir__encode_scanlineP11stbir__infoiPvPfiii
DJg:__ZL65OnSerializingAttribute_t1884757271_CustomAttributesCacheGeneratorP21CustomAttributesCache
B6d:_WebHeaderCollection_GetEnumerator_m671727323
Ahc:__ZN20QuadTreeNodeRenderer13StaticDestroyEPv
HC:__ZN14AudioBehaviourD2Ev
oig:__ZN6il2cpp6icalls8mscorlib6System9Threading16NativeEventCalls19CloseEvent_internalE12Il2CppIntPtr
Zjc:_UNITY_FT_Set_Pixel_Sizes
_Hd:_FileStream_Dispose_m376280481
gef:_MethodDictionary_System_Collections_IEnumerable_GetEnumerator_m630697764
$Yf:_EqualityComparer_1_System_Collections_IEqualityComparer_Equals_m3892247883_gshared
lwg:__ZN6il2cpp2vmL24thread_cleanup_on_cancelEPv
xAd:_Array_InternalArray__get_Item_TisILTokenInfo_t3723275281_m1012704117_gshared
gob:_LZ4_compress_generic
mng:__ZN21InterfaceFuncInvoker1IxP12Il2CppObjectE6InvokeEjP11Il2CppClassPvS1_
Daf:_ClientIdentity_CreateObjRef_m2789811095
MYe:_Camera_get_farClipPlane_m388706726
Auc:_Dual_Project
noe:_ValueCollection_CopyTo_m1295975294_gshared
b6f:__ZN6il2cpp2vm14TypeNameParser26ParseArrayModifierOptionalEv
Fcf:_InternalRemotingServices_GetCachedSoapAttribute_m1251902514
lQa:__ZN20LocalFileSystemPosix4ReadER13FileEntryDatayyPvPy
S6f:__ZN6il2cpp6icalls8mscorlib6System10Reflection8Assembly13get_code_baseEP24Il2CppReflectionAssemblyb
f4b:__ZNSt3__14listIN10GUIManager12SortedScriptE11memory_poolIS2_EE6__sortI13OldSortScriptEENS_15__list_iteratorIS2_PvEESA_SA_jRT_
$Rg:__ZL85BigInteger_t1694088928_CustomAttributesCacheGenerator_BigInteger_ToString_m2413330434P21CustomAttributesCache
Vdb:__ZNK15dense_hashtableINSt3__14pairIK9TextureIDiEES2_N12TextureIdMap20TextureIDHashFunctorEN14dense_hash_mapIS2_iS6_NS0_8equal_toIS2_EE13stl_allocatorIS4_L18MemLabelIdentifier65ELi16EEE9SelectKeyES9_SC_E13find_positionERS3_
ymd:_KeyPairPersistence_Load_m625005177
BOc:_String_ToUpperInvariant_m267877270
KCb:__Z14resize_trimmedINSt3__16vectorI8Vector3f13stl_allocatorIS2_L18MemLabelIdentifier1ELi16EEEEEvRT_j
TDe:_GetterAdapter__ctor_m1690259617
qdg:__ZN6il2cpp6icalls8mscorlib6System11Environment15internalGetHomeEv
BEf:__Z54RuntimeInvoker_KeyValuePair_2_t2686855369_Il2CppObjectPK10MethodInfoPvPS2_
bpg:__ZN16VirtFuncInvoker2IP22BigInteger_t1694088928iP12Il2CppObjectE6InvokeEjPviS3_
Jsf:__Z136RuntimeInvoker_Void_t2779279689_Byte_t2778693821_Il2CppObject_Int64U26_t2097784814_ObjectU26_t426379564_SerializationInfoU26_t3740776577PK10MethodInfoPvPS2_
hYe:_AttributeHelperEngine__cctor_m2686080064
WQ:__ZNK5Unity9Component7GetNameEv
dna:__ZN13RenderTexture9SetActiveEPS_i11CubemapFaceij
Wug:__ZNSt3__112__hash_tableINS_17__hash_value_typeIPK10Il2CppTypeP20Il2CppReflectionTypeEENS_22__unordered_map_hasherIS4_S7_N6il2cpp8metadata14Il2CppTypeHashELb1EEENS_21__unordered_map_equalIS4_S7_NSA_17Il2CppTypeCompareELb1EEENS9_2gc9AllocatorIS7_EEE15__insert_uniqueINS_4pairIKS4_S6_EEEENSL_INS_15__hash_iteratorIPNS_11__hash_nodeIS7_PvEEEEbEEOT_
foa:__ZN13ScreenManagerD0Ev
AJ:_UNITY_png_set_error_fn
FWe:_UnhandledExceptionEventHandler_EndInvoke_m2562785689
fLb:__Z16Transfer_BuiltinId19StreamedBinaryWriteILb0EELb0EEvRK29SerializationCommandArgumentsR31RuntimeSerializationCommandInfo
qcc:__ZNK11b2RopeJoint16GetReactionForceEf
Kjf:_Uri_CompactEscaped_m2021013591
Cud:_Array_BinarySearch_TisIl2CppObject_m1721333095_gshared
u4b:__ZN11IMGUIModule18MonoBehaviourDoGUIEiR14ObjectGUIStateN13MonoBehaviour13GUILayoutTypeEi21ScriptingMethodIl2Cpp4PPtrIS2_E
ITd:_ARC4Managed_GenerateKey_m4106080642
wnd:_RSAManaged_remove_KeyGenerated_m1973955406
UA:__ZN4FMOD6System7releaseEv
QNg:__ZL79Convert_t1097883944_CustomAttributesCacheGenerator_Convert_ToDouble_m2259713797P21CustomAttributesCache
dJc:_SymmetricAlgorithm_get_LegalKeySizes_m472333301
PVd:_CertificateValidationCallback2_EndInvoke_m2684174416
qcb:__ZN26RecursivePlayableTraverser8TraverseER9FrameDataP8PlayableS3_P14DirectorPlayeriPvf
bSf:_UnityWebRequest_get_useHttpContinue_m1179324476
tse:_Assembly_GetCustomAttributes_m4037441461
xzd:_Dictionary_2_Do_ICollectionCopyTo_TisIl2CppObject_m1567900510_gshared
dBa:__ZN10MonoScript23VirtualRedirectTransferER17RemapPPtrTransfer
L9:__ZN8Playable11SetDurationEd
Qje:_InternalEnumerator_1_Dispose_m1215749658_gshared
Mu:__ZN11AudioSource31UpdateEffectVirtualizationStateEb
At:__ZN12AudioManager29ShutdownReinitializeAndReloadEv
Q6f:__ZN6il2cpp6icalls8mscorlib6System10Reflection8Assembly22load_with_partial_nameEP12Il2CppStringP40mscorlib_System_Security_Policy_Evidence
t$e:_Event_t1590224583_marshal_pinvoke_back
zdc:__ZN17PhysicsMaterial2D7PRODUCEE18MemLabelIdentifier18ObjectCreationMode
xlg:__GLOBAL__sub_I_String_cpp
vgd:_U24ArrayTypeU243132_t336011090_marshal_pinvoke_back
I4d:_FileWebRequestCreator__ctor_m349516791
g5:__ZN9ShaderLab9IntShaderD2Ev
sGe:_SoapTypeAttribute_SetReflectionObject_m333377414
SEa:__Z29GetGlobalAllowNameConversionsv
tD:__ZN8WWWAudioD2Ev
eOd:_MonoType_IsDefined_m574655067
uFd:_InvalidOperationException__ctor_m355676978
GAb:__ZL26Transfer_SimpleNativeClassI18StreamedBinaryReadILb1EE8GUIStyleLb0EEvRK29SerializationCommandArgumentsR31RuntimeSerializationCommandInfo
UWd:_CipherSuiteCollection_get_Item_m95097157
Tpd:_X509CertificateCollection_GetHashCode_m2385527643
wLb:__ZN10RectOffset8TransferI19StreamedBinaryWriteILb0EEEEvRT_
L_f:_DispatcherKey__ctor_m2591469636
D_c:_BitArray_CopyTo_m4014022605
HMa:__ZN21ArchiveStorageCreatorC2Ev
f1a:__ZN14GfxContextGLES43AddRenderSurfaceToDeferredFBOInvalidateListEPK17RenderSurfaceGLES
hwf:__Z71RuntimeInvoker_Il2CppObject_Il2CppObject_Int16_t2847414729_Il2CppObjectPK10MethodInfoPvPS2_
C_c:_BitArray_Clone_m2861181472
gwf:__Z71RuntimeInvoker_Il2CppObject_Il2CppObject_SByte_t2855346064_Il2CppObjectPK10MethodInfoPvPS2_
n7f:__ZN6il2cpp6icalls8mscorlib6System9Threading6Thread15Thread_internalEP12Il2CppThreadP14Il2CppDelegate
kS:__ZN11NamedObject23VirtualRedirectTransferER14SafeBinaryRead
zD:__ZNK8WWWAudio14GetPartialDataEv
xBa:__ZN23PreloadManagerOperation6IsDoneEv
YId:_MonoIO_get_PathSeparator_m608723543
Zcf:_AsyncResult_SyncProcessMessage_m2452418033
g8b:__ZN10Effector2D10EndContactEP9b2Contact
C2b:__Z62GUIStyle_CUSTOM_INTERNAL_CALL_Internal_CalcSizeWithConstraints6IntPtrP15ScriptingObjectRK13Vector2fIcallPS2_
vIe:_SoapServices_PreLoad_m4092312816
Zmf:__Z52RuntimeInvoker_Int64_t2847414882_Decimal_t1688557254PK10MethodInfoPvPS2_
YW:__ZN21LightProbeProxyVolume18HasHardwareSupportEv
T$:__ZN26LightProbeProxyVolumeCacheC2ER13BatchRendererR15RenderLoopStats
Uab:__ZN6prcoreL31inner_stretch_argb8888_bilinearEPKNS_9InnerInfoE
VUg:__ZL106MonoBehaviour_t3012272455_CustomAttributesCacheGenerator_MonoBehaviour_Internal_CancelInvokeAll_m972795186P21CustomAttributesCache
Gdh:__ZNSt3__16locale5facetD0Ev
CJ:_UNITY_png_get_gAMA
hkc:_UNITY_FT_Outline_Decompose
qzd:_Array_swap_TisIl2CppObject_TisIl2CppObject_m872271628_gshared
ELg:__ZL72SecuritySafeCriticalAttribute_t2130178741_CustomAttributesCacheGeneratorP21CustomAttributesCache
FFe:_ReturnMessage_System_Runtime_Remoting_Messaging_IInternalMessage_set_Uri_m1208934489
Zgg:_GC_init_size_map
D7b:__ZN11Rigidbody2D23VirtualRedirectTransferER18StreamedBinaryReadILb1EE
LPc:_Encoding_get_DecoderFallback_m3409202121
hI:__ZN11UnityEngine15CloudWebService10RestClientINS0_16WWWRestHeaderMapEED2Ev
sJg:__ZL59FormatterServices_t821858337_CustomAttributesCacheGeneratorP21CustomAttributesCache
Tjd:_PrimalityTests_Test_m3408474536
JDb:__ZNSt3__16vectorIh13stl_allocatorIhL18MemLabelIdentifier1ELi16EEE8__appendEj
L9c:_Decimal_System_IConvertible_ToUInt16_m2878718708
wUb:__ZN6prcoreL17RemapGenericFloatI14TexFormatRHalf18TexFormatARGBFloatEEvPKNS_9InnerInfoE
Npb:__ZN23PreloadManagerOperation21MustCompleteNextFrameEv
_:Math_exp
LTe:_Type_IsInstanceOfType_m2263809757
No:FUNCTION_TABLE_iiifi
RCb:__ZNSt3__16vectorINS_12basic_stringIcNS_11char_traitsIcEE13stl_allocatorIcL18MemLabelIdentifier1ELi16EEEES4_IS7_LS5_1ELi16EEE8__appendEj
h0d:_SecurityParameters_set_ClientWriteMAC_m2390402827
Qqc:_cff_get_advances
URg:__ZL55g_Mono_Security_Assembly_CustomAttributesCacheGeneratorP21CustomAttributesCache
QAd:_Component_GetComponentInChildren_TisIl2CppObject_m772382058_gshared
onc:_UNITY_FT_Create_Class_sfnt_module_class
hYg:__ZL62GUISkin_t2614611333_CustomAttributesCacheGenerator_m_textFieldP21CustomAttributesCache
l5:__ZN9ShaderLab9IntShader15ResolveFallbackERKNS_12ParserShaderEP6ShaderRNSt3__16vectorI4PPtrIS4_ENS6_9allocatorIS9_EEEEbR12ShaderErrors
SJa:__ZNK10FileSystem16LastErrorMessageEv
qng:__ZN21InterfaceFuncInvoker1I19Decimal_t1688557254P12Il2CppObjectE6InvokeEjP11Il2CppClassPvS2_
Ezd:_Dictionary_2_Do_ICollectionCopyTo_TisKeyValuePair_2_t2686855369_m2005740386_gshared
RHf:_List_1_GetEnumerator_m712489085_gshared
xvf:__Z156RuntimeInvoker_Int32_t2847414787_Il2CppObject_Int32_t2847414787_Int32_t2847414787_Int32_t2847414787_SByte_t2855346064_SByte_t2855346064_Int32U26_t2544866037PK10MethodInfoPvPS2_
PYe:_Camera_get_pixelRect_m936851539
Rxe:_GenericTypeParameterBuilder_get_FullName_m79189380
HAc:__ZN22UnityWebRequestManager10InitializeEv
Y0c:_SyncHashtable_get_SyncRoot_m513487403
aVg:__ZL97MonoBehaviour_t3012272455_CustomAttributesCacheGenerator_MonoBehaviour_StartCoroutine_m2964903975P21CustomAttributesCache
M8d:_X509Certificate2Collection_Find_m162772545
rAa:__ZN13MonoBehaviour13AwakeFromLoadE17AwakeFromLoadMode
j6b:__ZN16CircleCollider2D14CreateInternalEP11Rigidbody2D
T4e:_GUIStyle_CalcSize_m2299809257
NQa:__ZN15Lz4Decompressor18ValidateBufferSizeEj
QCc:__Z38UnityWebRequest_Get_Custom_PropIsErrorP15ScriptingObject
u4:__ZN12CachedWriter9InitWriteER15CacheWriterBase
RSa:__Z21UnsignedInt64ToStringy
uBf:__Z60RuntimeInvoker_Boolean_t211005341_KeyValuePair_2_t2686855369PK10MethodInfoPvPS2_
D2e:_GUISkin_get_box_m3284280323
cTg:__ZL60AssetBundleRequest_t920637194_CustomAttributesCacheGeneratorP21CustomAttributesCache
EBc:__ZN24DownloadHandlerAudioClip13OnReceiveDataEPKvj
p0g:__ZNSt3__114__split_bufferIjRNS_9allocatorIjEEED2Ev
xFc:_RandomNumberGenerator_Create_m3168592393
cMc:_SecurityManager_Decode_m1966008144
lvg:__ZN6il2cpp2vmL10IsAssemblyEP12Il2CppObject
r7d:_X509SubjectKeyIdentifierExtension_ToString_m2596463486
nxd:_Array_InternalArray__ICollection_CopyTo_TisUInt64_t985925421_m29380902_gshared
jMg:__ZL88UTF7Encoding_t445806535_CustomAttributesCacheGenerator_UTF7Encoding_GetBytes_m2773420058P21CustomAttributesCache
zNc:_String_IndexOf_m1991631068
Tld:_DSAManaged_Generate_m1196580113
CL:_UNITY_png_write_pCAL
Z1c:_Stack_get_Count_m3511538634
hqh:_glLinkProgram__wrapper
lTa:__ZN13OpenFileCache10ForceCloseERKNSt3__112basic_stringIcNS0_11char_traitsIcEENS0_9allocatorIcEEEE
yTb:__ZN6prcoreL12RemapGenericI17TexFormatARGB888815TexFormatBGR888EEvPKNS_9InnerInfoE
K2c:_Convert_ToBoolean_m849533587
AAa:__ZN13MonoBehaviour35RebuildMonoInstanceFromScriptChangeEP14ScriptingClassP15ScriptingObject
N$d:_SendRecordAsyncResult_SetComplete_m1807552551
uEe:_StrongNameKeyPair__ctor_m583813794
IAa:__Z20RequiredComponentsOfP14ScriptingClass
A7f:__ZN6il2cpp6icalls8mscorlib6System13Globalization11CultureInfo35construct_internal_locale_from_nameEP17Il2CppCultureInfoP12Il2CppString
esa:__ZN9Transform8TransferI13ProxyTransferEEvRT_
I$c:_Hashtable__ctor_m2919534560
uvf:__Z78RuntimeInvoker_DateTime_t339033936_Il2CppObject_Il2CppObject_Int32_t2847414787PK10MethodInfoPvPS2_
yk:_emscripten_set_main_loop_timing
Mde:_List_1_System_Collections_Generic_IListU3CTU3E_Insert_m3229819320_gshared
bjf:_Repetition_GetWidth_m681452937
PFe:_ReturnMessage_get_Exception_m564038940
h0a:__ZN14DataBufferGLES12RecordRenderEv
Bve:_DynamicMethod__ctor_m1053671628
gUf:_Rect_Contains_m3556594010
WMc:_String_System_IConvertible_ToBoolean_m1435209676
rka:__ZN14ImageReference10FlipImageYEv
lB:__ZN4FMOD6System23set3DListenerAttributesEiPK11FMOD_VECTORS3_S3_S3_
Iib:__ZN30RuntimeInitializeOnLoadManager8TransferI18StreamedBinaryReadILb0EEEEvRT_
gYb:__Z32TransferEnumWithNameForceIntSizeI14SafeBinaryRead13TargetEyeMaskEvRT_RT0_PKc17TransferMetaFlags
B0b:__Z14GetDefaultSkini
DA:__ZN4FMOD3DSP9setBypassEb
YNd:_MonoType_ReorderParamArrayArguments_m3544296603
s6c:_CurrentSystemTimeZone_OnDeserialization_m3995478209
GYa:__Z19NormalizeWheelInputf
Jlb:__Z29StdTemplateConversionFunctionIsaEbPvR14SafeBinaryRead
xz:__ZN10ObjectPoolIN4FMOD5SoundENS0_6SoundIEE8ValidateEPS1_
DKc:_Evidence_GetEnumerator_m1666533534
Kia:__ZN11MonoManager25GetImageFromAssemblyIndexEi
pkg:__ZN6il2cpp2os20ThreadLocalValueImpl8SetValueEPv
feg:__ZN6il2cpp2os11Environment17GetProcessorCountEv
Nif:_Parser_ParseAssertionType_m3709247266
_Ce:_MonoMethod_get_DeclaringType_m833766374
cGc:_RijndaelManagedTransform_TransformFinalBlock_m1653937417
tcd:_Enum_System_IConvertible_ToDateTime_m4246330158
Z0g:__ZNSt3__13mapIP24Il2CppReflectionAssemblyPvNS_4lessIS2_EENS_9allocatorINS_4pairIKS2_S3_EEEEE25__construct_node_with_keyERS8_
kQg:__ZL50TimeSpan_t763862892_CustomAttributesCacheGeneratorP21CustomAttributesCache
clg:__ZN6il2cpp2os12MarshalAlloc4FreeEPv
wng:__ZN18VirtActionInvoker1IP12Il2CppObjectE6InvokeEjPvS1_
fCe:_MonoEvent_GetAddMethod_m3118173230
Wfa:__ZN9GfxDevice14ImmediateBeginE16GfxPrimitiveTypePK14ChannelAssigns
JV:__ZN16GraphicsSettings12CleanupClassEv
jdg:__ZN6il2cpp2os6Thread19DetachCurrentThreadEv
vpg:__ZN23InterfaceActionInvoker2IP12Il2CppObjectS1_E6InvokeEjP11Il2CppClassPvS1_S1_
ntg:__ZN6il2cpp2vmL21SetupInterfacesLockedEP11Il2CppClassRKNS_2os12FastAutoLockE
oob:__ZL31DeleteLastPathNameComponentImplRKNSt3__112basic_stringIcNS_11char_traitsIcEENS_9allocatorIcEEEEPKc
MTf:_Ray_get_direction_m3201866877
kF:__ZN11UnityEngine15CloudWebService14DataDispatcher15SetupWebRequestEv
HTg:__ZL54RenderTexture_t12905170_CustomAttributesCacheGeneratorP21CustomAttributesCache
oJf:_Collection_1_System_Collections_IList_set_Item_m2262756877_gshared
Gng:__ZN16VirtFuncInvoker2IbP12Il2CppObjectS1_E6InvokeEjPvS1_S1_
BDd:_Int32_Parse_m2659730549
BBc:__ZN24DownloadHandlerAudioClipC2ERKNSt3__112basic_stringIcNS0_11char_traitsIcEENS0_9allocatorIcEEEE15FMOD_SOUND_TYPE
hBd:_Resources_ConvertObjects_TisIl2CppObject_m1537961554_gshared
Srg:__ZN23InterfaceActionInvoker3IP12Il2CppObjectbbE6InvokeEjP11Il2CppClassPvS1_bb
Obg:__ZN6il2cpp2os10ThreadImpl22SetNativeThreadCleanupEPFvPvE
vVb:__ZN21FixedBehaviourManager6UpdateEv
wid:_PreviousInfo__ctor_m144561586
Cof:__Z76RuntimeInvoker_Il2CppObject_Il2CppObject_SByte_t2855346064_SByte_t2855346064PK10MethodInfoPvPS2_
ved:_CompareInfo_free_internal_collator_m1379817450
N3:__ZN19RuntimeSceneManager24BeginIntegrateMainThreadEP10UnityScene
h_c:_SynchronizedArrayListWrapper_RemoveAt_m761260536
jCd:_SortKey_GetHashCode_m3388500464
uue:_AssemblyBuilder_get_Location_m2002209681
klg:__GLOBAL__sub_I_ArrayMetadata_cpp
ANf:_X509CertificateCollection__ctor_m2517521230
UBf:__Z54RuntimeInvoker_Int32_t2847414787_TableRange_t476453423PK10MethodInfoPvPS2_
EGe:_ObjRef_get_EnvoyInfo_m2219083329
qtg:__ZN6il2cpp2vmL24SetupTypeHierarchyLockedEP11Il2CppClassRKNS_2os12FastAutoLockE
Hob:__ZL11TextHandleriPK23EmscriptenKeyboardEventPv
hX:__Z20CalculateLightMatrixRK15SharedLightDataP10Matrix4x4f
qqc:_destroy_face
rR:__ZN5Unity9Component13RegisterClassEv
wPf:_X509StoreManager_get_TrustedRootCertificates_m2593128238
exe:_FieldBuilder_get_FieldHandle_m1219776477
f2b:__Z37GUIStyle_Get_Custom_PropStretchHeightP15ScriptingObject
Fmh:_glBlendEquationSeparate__wrapper
zgc:__ZN5physx19PxAllocatorCallbackD2Ev
ADd:_Int16_Parse_m1284520629
Thg:__ZN6il2cpp6icalls8mscorlib6System8Security12Cryptography24RNGCryptoServiceProvider13RngInitializeEP11Il2CppArray
$Cd:_IndexOutOfRangeException__ctor_m1621772274
$zg:__ZL71Il2CppArray_CustomAttributesCacheGenerator_Array_get_Length_m1203127607P21CustomAttributesCache
CEg:__ZL54EnumBuilder_t3949082343_CustomAttributesCacheGeneratorP21CustomAttributesCache
pw:__ZN20SoundChannelInstance7setMuteEb
oXb:__ZN4PPtrI5LightE8TransferI19StreamedBinaryWriteILb0EEEEvRT_
Ppe:_Dictionary_2_GetEnumerator_m3720989159_gshared
UBb:__Z19TransferField_ArrayI18StreamedBinaryReadILb1EE27Converter_SimpleNativeClassI17AnimationCurveTplIfEEEvRK23StaticTransferFieldInfoR31RuntimeSerializationCommandInfoRT0_
cde:_IntervalCollection_GetMetaCollection_m1423119555
gCg:__ZL60MonoTODOAttribute_t1287393896_CustomAttributesCacheGeneratorP21CustomAttributesCache
Mvc:__ZN18StreamedBinaryReadILb0EE21TransferSTLStyleArrayINSt3__16vectorI8UnityStr13stl_allocatorIS4_L18MemLabelIdentifier34ELi16EEEEEEvRT_17TransferMetaFlags
_9b:__ZN7b2World18SetContactListenerEP17b2ContactListener
F0a:__ZN18GfxFramebufferGLES22MakeCurrentFramebufferENS_7BuiltinE
Qhg:__ZN6il2cpp2vm12MarshalAlloc4FreeEPv
iEf:__Z43RuntimeInvoker_ParameterModifier_t500203470PK10MethodInfoPvPS2_
E5c:_Convert_ToUInt16_m3511763385
Mjd:_BigInteger_ModPow_m3768768275
QDa:__ZN9Scripting42GetScriptingWrapperOfComponentOfGameObjectER10GameObjectRKNSt3__112basic_stringIcNS2_11char_traitsIcEENS2_9allocatorIcEEEE
Uxa:__ZN30RuntimeInitializeOnLoadManager23VirtualRedirectTransferER18StreamedBinaryReadILb1EE
l4:__ZN12CachedReader4ReadEPvj
rmc:_cf2_blues_init
g$g:__ZL57UnityException_t3148635335_CustomAttributesCacheGeneratorP21CustomAttributesCache
aMf:_ReadOnlyCollection_1_System_Collections_IList_Clear_m3595441805_gshared
NZ:__Z24CalculateLightShadowFadeRK6CamerafffR8Vector4f
Mqb:__ZN19RuntimeSceneManagerD2Ev
Ybb:__ZN13dynamic_arrayIPN9ShaderLab4PassELj4EE9push_backERKS2_
WOg:__ZL78Convert_t1097883944_CustomAttributesCacheGenerator_Convert_ToUInt32_m883469173P21CustomAttributesCache
rUe:_TypedReference_t1193563574_marshal_pinvoke_cleanup
D2:__ZN6prcore17GetIntegerBlitterE13TextureFormatS0_N14ImageReference8BlitModeE
kec:__ZN13BoxCollider2DD0Ev
Z7e:_ResourceSet_GetObjectInternal_m2208724156
dPg:__ZL79Convert_t1097883944_CustomAttributesCacheGenerator_Convert_ToUInt64_m2522396633P21CustomAttributesCache
ecd:_Double_Parse_m3249074997
E_d:_TlsServerHelloDone_ProcessAsTls1_m3714077201
EWc:_Byte_System_IConvertible_ToInt32_m1299459829
vdf:_MethodDictionary_set_MethodKeys_m3153125541
Hcc:__ZNK12b2WheelJoint10GetAnchorAEv
cLf:_ReadOnlyCollection_1_System_Collections_IList_IndexOf_m3658311565_gshared
QOa:__ZN25MultiBlocksMemoryFileData17AdjustBlocksCountEj
Jsd:_Array_InternalArray__ICollection_Contains_TisUInt16_t985925268_m3076878311_gshared
bBd:_Component_GetComponentsInParent_TisIl2CppObject_m1228840236_gshared
$af:_LifetimeServices_set_RenewOnCallTime_m3204084838
gSc:_StringBuilder_set_Length_m1952332172
O0:__ZN17CommonStringTableC2Ev
_Ig:__ZL64RemotingConfiguration_t3313578203_CustomAttributesCacheGeneratorP21CustomAttributesCache
Jgh:__ZNSt3__1L19utf8_to_ucs4_lengthEPKhS1_jmNS_12codecvt_modeE
QFd:_BinaryReader_ReadChar_m2116266889
aqf:__Z132RuntimeInvoker_Void_t2779279689_Il2CppObject_Int32U26_t2544866037_ByteU26_t2164727883_Int32U26_t2544866037_ByteU5BU5DU26_t3506413520PK10MethodInfoPvPS2_
Qbb:__ZN9ShaderLab14ParserGrabPass7AddTagsERKNSt3__13mapIiiNS1_4lessIiEENS1_9allocatorINS1_4pairIKiiEEEEEE
j4d:_NameValueCollection_AsSingleString_m3181933374
Rm:_glStencilMask
Mbg:__ZN6il2cpp2os10ThreadImpl16GetCurrentThreadEv
WId:_MonoIO_get_DirectorySeparatorChar_m3870760857
Gsa:__ZN15GUIEventManager10QueueEventERK10InputEvent
ZYd:_Context_set_RecordProtocol_m1649539496
PDa:__ZN9Scripting28GetClassIDFromScriptingClassEP14ScriptingClass
r7c:_DateTime_CompareTo_m1522800900
JGb:__Z16Transfer_BuiltinI5RectTIfE13ProxyTransferLb0EEvRK29SerializationCommandArgumentsR31RuntimeSerializationCommandInfo
x3d:_ListDictionary_Remove_m4061265285
Fgg:_GC_push_conditional_with_exclusions
tXg:__ZL69AnimatorControllerPlayable_t1023709642_CustomAttributesCacheGeneratorP21CustomAttributesCache
oH:__ZN11UnityEngine15CloudWebService10RestClientINS0_16WWWRestHeaderMapEE6SetUrlERK8UnityStr
eqg:__ZN16VirtFuncInvoker3IP6Type_tP8String_tbbE6InvokeEjPvS3_bb
Evc:__ZNSt3__16vectorINS_4pairINS1_IttEEfEENS_9allocatorIS3_EEE8__appendEj
Bed:_CompareInfo_internal_compare_switch_m1799621832
p5g:_strrchr
aFg:__ZL95TypeBuilder_t4287691406_CustomAttributesCacheGenerator_TypeBuilder_DefineConstructor_m467278373P21CustomAttributesCache
jqf:__Z88RuntimeInvoker_Void_t2779279689_Il2CppObject_Single_t958209021_Il2CppObject_Il2CppObjectPK10MethodInfoPvPS2_
bYc:_CharEnumerator_System_IDisposable_Dispose_m2219960452
NXa:__Z33Register_UnityEngine_Random_Rangev
pvf:__Z54RuntimeInvoker_DateTime_t339033936_TimeSpan_t763862892PK10MethodInfoPvPS2_
HPd:_NumberFormatter_NumberToString_m3732580729
nZ:__ZN14RenderSettings27UpdateIndirectSpecularColorEv
lde:_pinvoke_delegate_wrapper_CostDelegate_t3008899218
dGb:__ZN14SafeBinaryRead21TransferSTLStyleArrayINSt3__16vectorIj13stl_allocatorIjL18MemLabelIdentifier1ELi16EEEEEEvRT_17TransferMetaFlags
n3f:__ZN6il2cpp6icalls8mscorlib6System8MonoType16GetMethodsByNameEP20Il2CppReflectionTypeP12Il2CppStringibS5_
ISe:_TimeSpan_op_LessThan_m4265983228
mza:__ZN9Coroutine3RunEv
awa:__ZN5Cache17ReadCacheInfoFileERKNSt3__112basic_stringIcNS0_11char_traitsIcEENS0_9allocatorIcEEEEPlS9_
xNb:__ZNSt3__16vectorIN30RuntimeInitializeOnLoadManager15ClassMethodInfoE13stl_allocatorIS2_L18MemLabelIdentifier12ELi16EEE26__swap_out_circular_bufferERNS_14__split_bufferIS2_RS5_EE
Ws:__Z27RegisterClass_AudioListenerv
dgb:__ZN4PPtrI10GameObjectE8TransferI14SafeBinaryReadEEvRT_
Fbe:_Group__ctor_m3054050776
oEg:__ZL54StreamWriter_t872970458_CustomAttributesCacheGeneratorP21CustomAttributesCache
qif:_Parser_ParseDigit_m3105438222
A7d:_OidCollection_get_Count_m924395419
sYe:_PCMReaderCallback_EndInvoke_m1134768050
Dtc:_ps_hints_t2mask
kRb:__ZN10BlendShape8TransferI19StreamedBinaryWriteILb0EEEEvRT_
jkb:__ZL4WalkRK16TypeTreeIteratorR12CachedReaderPib
Loa:__ZN7Texture15InitializeClassEv
JD:__Z32TransferEnumWithNameForceIntSizeI14SafeBinaryReadN10SampleClip8LoadTypeEEvRT_RT0_PKc17TransferMetaFlags
oZa:__Z19GetTimeSinceStartupv
nFd:_IntPtr_op_Explicit_m2174170701
ls:__ZN9AudioClip22GetFormatFromExtensionERKNSt3__112basic_stringIcNS0_11char_traitsIcEENS0_9allocatorIcEEEE
N$e:_Playables_Equals_m2773836346
Gbg:__ZN6il2cpp2os10ThreadImpl11SetPriorityENS0_14ThreadPriorityE
Vsc:_TT_Load_Composite_Glyph
WWg:__ZL89Playables_t1588335518_CustomAttributesCacheGenerator_Playables_CastToInternal_m3521890406P21CustomAttributesCache
Uua:__Z33MultiplyMatrixArrayWithBase4x4REFPK10Matrix4x4fS1_S1_PS_j
Vvd:_Array_InternalArray__ICollection_Add_TisKeyValuePair_2_t2686855369_m2697764243_gshared
aNg:__ZL97Activator_t690001546_CustomAttributesCacheGenerator_Activator_CreateInstance_m2161363287____args1P21CustomAttributesCache
_le:_Enumerator_System_Collections_IEnumerator_get_Current_m3262087712_gshared
V9a:__ZN4PPtrI8MaterialE8TransferI19StreamedBinaryWriteILb0EEEEvRT_
XY:__ZN29RenderNodeQueuePrepareContextC2Ev
pCd:_TextInfo_get_ListSeparator_m3704127084
V$g:__ZN6il2cpp2os11MutexHandle4WaitEj
N9d:_X509ChainElementCollection_get_Item_m553083826
U$g:__ZN6il2cpp2os11MutexHandle4WaitEv
DUb:__ZN6prcoreL17RemapGenericFloatI15TexFormatRGHalf18TexFormatARGBFloatEEvPKNS_9InnerInfoE
Rtb:__ZNK13RenderTexture13GetDataHeightEv
bhe:_InternalEnumerator_1_MoveNext_m2675725766_gshared
CY:__ZN13RenderManager23AddRemoveCamerasDelayedEv
EL:_UNITY_png_write_pHYs
Ipb:__ZN23PreloadManagerOperation11GetPriorityEv
wUg:__ZL49Camera_t3533968274_CustomAttributesCacheGeneratorP21CustomAttributesCache
M8f:__ZN6il2cpp2vm9Exception5RaiseEP15Il2CppException
lKc:_SecurityPermission_IsEmpty_m3718545737
lFd:_IntPtr_op_Inequality_m10053967
T3g:__ZN6il2cpp2gc9AllocatorIP17Il2CppAsyncResultE10deallocateEPvj
S7f:__ZN6il2cpp2vm8Liveness3EndEPv
vVe:_UInt32_Parse_m3087278554
Ana:__ZN13RenderTexture8SetWidthEi
rjc:_UNITY_FT_GlyphLoader_CheckSubGlyphs
q3b:__Z42Register_UnityEngine_GUIStyle_set_fontSizev
owg:__ZNSt3__16vectorIPK10Il2CppTypeNS_9allocatorIS3_EEE7reserveEj
MIc:_SHA512Managed_unpackWord_m3783776233
sS:__ZN11NamedObject8TransferI18StreamedBinaryReadILb1EEEEvRT_
X4:__ZN9ShaderLab16FastPropertyName4InitEPKc
i8c:_DateTime_op_Equality_m2277436664
RKe:_SerializationInfo_GetValue_m4125471336
Dsg:__ZN16VirtFuncInvoker1Ib39CustomAttributeNamedArgument_t318735129E6InvokeEjPvS0_
OWg:__ZL78Time_t1525492538_CustomAttributesCacheGenerator_Time_get_timeScale_m1970669766P21CustomAttributesCache
r8e:_RuntimeHelpers_get_OffsetToStringData_m2708084937
Alg:__GLOBAL__sub_I_Il2CppCodeRegistration_cpp
p8f:__ZN6il2cpp2vm14PlatformInvoke18MarshalStringArrayEP11Il2CppArrayPPc
_5g:__ZNSt8bad_castD2Ev
lda:__ZN10VertexData8TransferI17RemapPPtrTransferEEvRT_
Cna:__ZN13RenderTexture9SetMipMapEb
DRg:__ZL56OidCollection_t1467909409_CustomAttributesCacheGeneratorP21CustomAttributesCache
BIb:__Z16Transfer_BuiltinIf17RemapPPtrTransferLb1EEvRK29SerializationCommandArgumentsR31RuntimeSerializationCommandInfo
z9:__Z18GetDirectorManagerv
qVf:_HitInfo_SendMessage_m2569183060
Zyf:__Z34RuntimeInvoker_Vector3_t3525329789PK10MethodInfoPvPS2_
oEf:__Z36RuntimeInvoker_UriScheme_t3266528785PK10MethodInfoPvPS2_
ZSe:_Type_FilterName_impl_m1368291769
fbd:_DelegateSerializationHolder_GetRealObject_m296541084
Nhb:__ZN11TimeManager8TransferI18StreamedBinaryReadILb1EEEEvRT_
x7a:__ZN6Object31FindObjectsOfTypeImplementationI19InstanceIDCollectorEEv11ClassIDTypeT_
N_a:__ZN7ApiGLES19UploadBufferSubDataEjN2gl12BufferTargetEllPKv
HIg:__ZL61SoapFieldAttribute_t3689362804_CustomAttributesCacheGeneratorP21CustomAttributesCache
H5g:__ZdaPv
dmg:__ZN16VirtFuncInvoker0IP8String_tE6InvokeEjPv
bwe:_DynamicMethod_AddRef_m93074763
wBe:_TypeFilter__ctor_m3304815558
V5a:_start_pass_dcolor
dBf:__Z70RuntimeInvoker_Void_t2779279689_Int32_t2847414787_ObjectU26_t426379564PK10MethodInfoPvPS2_
UFb:__Z19TransferField_ArrayI14SafeBinaryRead27Converter_SimpleNativeClassI8GUIStyleEEvRK23StaticTransferFieldInfoR31RuntimeSerializationCommandInfoRT0_
$hg:__ZN6il2cpp5utils10MemoryPoolC2Ej
Apd:_X501_ToString_m823511368
GYc:_ArrayList_CopyTo_m1415118951
Zhg:__ZN6il2cpp5utils10MemoryPoolC2Ev
HP:__ZN11GameManager13RegisterClassEv
gjd:_BigInteger__ctor_m2711034688
eZ:__ZN14RenderSettings5ResetEv
T9b:__ZN8b2IslandC2EiiiP16b2StackAllocatorP17b2ContactListener
Qke:_Comparer_1_get_Default_m2450725187_gshared
esf:__Z80RuntimeInvoker_Void_t2779279689_Il2CppObject_Int64_t2847414882_Int32_t2847414787PK10MethodInfoPvPS2_
Knb:__ZNSt3__16__treeINS_12__value_typeINS_12basic_stringIcNS_11char_traitsIcEE13stl_allocatorIcL18MemLabelIdentifier54ELi16EEEEN17ArchiveFileSystem11ArchiveItemEEENS_19__map_value_compareIS8_SB_NS_4lessIS8_EELb1EEES5_ISB_LS6_54ELi16EEE4findIS8_EENS_15__tree_iteratorISB_PNS_11__tree_nodeISB_PvEEiEERKT_
nJb:__Z16Transfer_BuiltinIf18StreamedBinaryReadILb0EELb0EEvRK29SerializationCommandArgumentsR31RuntimeSerializationCommandInfo
Abg:__ZN6il2cpp2os10ThreadImplD2Ev
Cbc:__ZN12b2MouseJoint23InitVelocityConstraintsERK12b2SolverData
WRd:_BigInteger_GetHashCode_m3211366534
I8:__ZNK12TLSAllocatorI14StackAllocatorE22GetAllocatedMemorySizeEv
$le:_Enumerator_System_Collections_IEnumerator_Reset_m2959141748_gshared
EUg:__ZL101Camera_t3533968274_CustomAttributesCacheGenerator_Camera_INTERNAL_CALL_ScreenToWorldPoint_m1475601444P21CustomAttributesCache
Dne:_Transform_1__ctor_m582405827_gshared
hEa:__ZN17RemapPPtrTransfer12PushMetaFlagE17TransferMetaFlags
ED:__ZNK7WeakPtrI20SoundChannelInstanceE10SharedData9GetRawPtrEv
B3c:_Decimal_op_Implicit_m394719939
kHg:__ZL90SafeHandle_t2089155095_CustomAttributesCacheGenerator_SafeHandle_get_IsInvalid_m1249488091P21CustomAttributesCache
eC:__ZN12AudioManager8TransferI18StreamedBinaryReadILb1EEEEvRT_
fxg:__ZNSt3__16vectorIjNS_9allocatorIjEEE21__push_back_slow_pathIRKjEEvOT_
jmb:__Z29StdTemplateConversionFunctionIbbEbPvR14SafeBinaryRead
Auf:__Z50RuntimeInvoker_Int16_t2847414729_SByte_t2855346064PK10MethodInfoPvPS2_
G4a:__ZN14UnityWebStream24UpdateAllUnityWebStreamsEv
aZg:__ZL87GUIStyle_t1006925219_CustomAttributesCacheGenerator_GUIStyle_set_fixedWidth_m2486234607P21CustomAttributesCache
Jbh:__ZNSt3__18time_putIcNS_19ostreambuf_iteratorIcNS_11char_traitsIcEEEEED2Ev
hVe:_UInt32_System_IConvertible_ToInt64_m1048565924
IZg:__ZL96GUIUtility_t1366332446_CustomAttributesCacheGenerator_GUIUtility_EndGUIFromException_m1739426121P21CustomAttributesCache
MHf:_List_1_AddEnumerable_m2490298997_gshared
GPa:__Z12SetFileFlagsRKNSt3__112basic_stringIcNS_11char_traitsIcEENS_9allocatorIcEEEEjj
rCb:__ZNSt3__16vectorI10Matrix4x4f13stl_allocatorIS1_L18MemLabelIdentifier1ELi16EEE8__appendEj
qvb:__ZN18LoadSceneOperation21MustCompleteNextFrameEv
jSd:_BigInteger_op_Addition_m1737862829
qRe:_Timer__cctor_m1320176523
Aie:_InternalEnumerator_1_get_Current_m3571284320_gshared
UVe:_UInt64_Equals_m3808938519
Y7b:__ZNK11Rigidbody2D20GetAttachedCollidersER13dynamic_arrayIP10Collider2DLj4EE
$9e:_CrossContextChannel__ctor_m2542269426
krb:__ZN14StackAllocator10DeallocateEPv
Tmh:_glDeleteVertexArrays__wrapper
NJa:__Z13GetFileSystemv
Wxd:_Array_InternalArray__Insert_TisTypeTag_t1738289281_m1037663921_gshared
$Rb:__ZN14SafeBinaryRead8TransferIfEEvRT_PKc17TransferMetaFlags
Iga:__ZN16GeometryJobTasksC2Ev
$Ib:__ZL12InvokeMethodI18StreamedBinaryReadILb0EEEvRK29SerializationCommandArgumentsR31RuntimeSerializationCommandInfo
_6d:_Oid__ctor_m4076384238
x9e:_ActivatedClientTypeEntry_get_ObjectType_m2838469632
lzc:__ZN18CrashReportHandlerC2ERK8UnityStrS2_
I7b:__ZN24RigidbodyMovementState2D21ResetAngularMoveStateEv
Vha:__Z23scripting_gchandle_freej
kR:__ZN5Unity9Component23VirtualRedirectTransferER18StreamedBinaryReadILb0EE
dra:__Z29GetTextureSizeAllowedMultiple13TextureFormat
$ca:__Z46CleanupSpriteRendererAnimationBindingInterfacev
UXe:_AssetBundleRequest_get_allAssets_m2335877586
BZ:__ZN14RenderSettings23VirtualRedirectTransferER18StreamedBinaryReadILb1EE
Kxf:__Z77RuntimeInvoker_Void_t2779279689_RegexOptionsU26_t4043008606_SByte_t2855346064PK10MethodInfoPvPS2_
hJd:_NullStream_Flush_m3610264676
cg:_glCheckFramebufferStatus
HH:__ZN9rapidjson13GenericReaderINS_4UTF8IcEES2_NS_19MemoryPoolAllocatorINS_12CrtAllocatorEEEE10ParseArrayILj0ENS_19GenericStringStreamIS2_EENS_15GenericDocumentIS2_S5_S4_EEEEvRT0_RT1_
eQd:_NumberFormatter_AppendIntegerStringWithGroupSeparator_m4148804442
z7a:__ZNSt3__16__sortIR17CompareInstanceIDPP6ObjectEEvT0_S6_T_
XMc:_String_System_IConvertible_ToByte_m651944216
uAg:__ZL73Il2CppArray_CustomAttributesCacheGenerator_Array_BinarySearch_m3131524835P21CustomAttributesCache
WMd:_AttributeInfo_get_InheritanceLevel_m2614791067
_7g:__ZNSt3__112basic_stringIcNS_11char_traitsIcEENS_9allocatorIcEEE6appendEjc
asa:__ZN9Transform23VirtualRedirectTransferER17RemapPPtrTransfer
Dbf:_Context_GetClientContextSinkChain_m420750203
uVf:_SerializeField__ctor_m4068807987
eCb:__ZNSt3__16vectorI11ColorRGBA3213stl_allocatorIS1_L18MemLabelIdentifier1ELi16EEE6assignINS_11__wrap_iterIPS1_EEEENS_9enable_ifIXaasr21__is_forward_iteratorIT_EE5valuesr16is_constructibleIS1_NS_15iterator_traitsISB_E9referenceEEE5valueEvE4typeESB_SB_
kBb:__Z22Transfer_Builtin_AlignIt18StreamedBinaryReadILb1EELb1EEvRK29SerializationCommandArgumentsR31RuntimeSerializationCommandInfo
NUc:_SimpleEnumerator_MoveNext_m1861458941
nhe:_InternalEnumerator_1_MoveNext_m556104049_gshared
l1g:__ZN6il2cpp2gc9AllocatorIP12Il2CppThreadE10deallocateEPvj
Myf:__Z63RuntimeInvoker_Il2CppObject_Il2CppObject_Vector3U26_t3456035723PK10MethodInfoPvPS2_
Aoe:_ValueCollection_CopyTo_m2147895796_gshared
ukb:__ZN8Remapper6RemoveEi
KTf:_Random_Range_m3362417303
UNa:__ZN16MemoryFileSystem5WriteER13FileEntryDatayyPvPy
svf:__Z53RuntimeInvoker_Boolean_t211005341_DateTime_t339033936PK10MethodInfoPvPS2_
cNb:__ZN15SerializeTraitsINSt3__14pairI8UnityStr4PPtrI6ObjectEEEE8TransferI14SafeBinaryReadEEvRS6_RT_
auc:__ZL36CleanupTextRenderingScriptingClassesv
HX:__ZN15ReflectionProbe17UseRendererResultEP13ProbeRenderer
CEc:_HMACSHA1__ctor_m3424706677
Mqg:__ZN16VirtFuncInvoker0IdE6InvokeEjPv
WIc:_SymmetricAlgorithm_Finalize_m591291609
gXa:__Z40GameObject_CUSTOM_GetComponentInChildrenP15ScriptingObjectS0_h
D0d:_SslClientStream_get_ClientCertSelectionDelegate_m3262721995
L2e:_GUISkin_get_toggle_m3519495166
y4e:_GUIStyle_Draw_m2853558582
N_e:_Debug_LogWarning_m3123317694
gIc:_SHA256_Create_m2242546445
hLd:_TextReader_Peek_m2382758882
lCc:__Z71Register_UnityEngine_Networking_UploadHandlerRaw_InternalSetContentTypev
j7d:_AsnEncodedData_Default_m2182260212
q0f:__ZN6il2cpp2vm5Class15GetElementClassEP11Il2CppClass
qCb:__ZNSt3__16vectorI10Matrix4x4f13stl_allocatorIS1_L18MemLabelIdentifier1ELi16EEE6assignINS_11__wrap_iterIPS1_EEEENS_9enable_ifIXaasr21__is_forward_iteratorIT_EE5valuesr16is_constructibleIS1_NS_15iterator_traitsISB_E9referenceEEE5valueEvE4typeESB_SB_
o9c:_DBNull_ToString_m1417959115
UGe:_ProxyAttribute_CreateInstance_m980921561
Y8a:__ZN16GraphicsSettings8TransferI17RemapPPtrTransferEEvRT_
Obd:_Double_System_IConvertible_ToChar_m832351220
lha:__Z28scripting_method_is_instance21ScriptingMethodIl2Cpp
UFc:_RijndaelManaged_GenerateIV_m4176896161
h6e:_Input__cctor_m1327041086
M1a:__ZNK13GfxDeviceGLES12GetWireframeEv
YDf:__Z36RuntimeInvoker_TableRange_t476453423PK10MethodInfoPvPS2_
ned:_CompareInfo__ctor_m2717172747
aMg:__ZL90UTF32Encoding_t420914269_CustomAttributesCacheGenerator_UTF32Encoding_GetBytes_m2096762137P21CustomAttributesCache
T$e:_Playable_t3404354247_marshal_pinvoke_back
ox:__ZN4FMOD7SystemI28GetSystemFromNonSystemHandleEPv
jfa:__ZN9GfxDevice18AllocRenderSurfaceEb
WXg:__ZL90GUIScrollGroup_t1067753444_CustomAttributesCacheGenerator_GUIScrollGroup__ctor_m2652149846P21CustomAttributesCache
qob:__ZNSt3__16__sortIRNS_6__lessI15OrderedCallbackS2_EEPS2_EEvT0_S6_T_
qne:_Transform_1_EndInvoke_m88547844_gshared
FYe:_AudioSource_Play_m3374467819
Ocd:_Enum_GetValue_m75952491
B4e:_GUIStyle_Draw_m860139579
SAd:_Component_GetComponentInParent_TisIl2CppObject_m95508767_gshared
frf:__Z93RuntimeInvoker_Void_t2779279689_Il2CppObject_Il2CppObject_Int32_t2847414787_SByte_t2855346064PK10MethodInfoPvPS2_
y7a:__ZN6Object31FindObjectsOfTypeImplementationI15ObjectCollectorEEv11ClassIDTypeT_
N4c:_Convert_ToInt64_m3921744570
Z8b:__ZNK14b2PolygonShape5CloneEP16b2BlockAllocator
u5f:__ZN6il2cpp2vm10Reflection7IsEventEP12Il2CppObject
VFa:__ZN17PersistentManager26GetStreamNameSpaceInternalEi
pB:__ZN4FMOD6System11createSoundEPKcjP22FMOD_CREATESOUNDEXINFOPPNS_5SoundE
GEe:_ResolveEventArgs__ctor_m2357566712
Ojb:__ZL27GetComponentsImplementationILb0ELi3EEbR10GameObjectbRK17CompareParametersRK39GetComponentsImplementation_ReturnValue
X9:__ZN13SpeedTreeWind20AdvanceWithoutUpdateEd
W8g:__ZNSt3__18ios_base33__set_badbit_and_consider_rethrowEv
SYb:__ZNSt3__118__insertion_sort_3IRN18AssetBundleManager27SortPreloadDataByIdentifierEPNS1_11PreloadDataEEEvT0_S6_T_
r2g:__ZNSt3__112__hash_tableINS_17__hash_value_typeINS_4pairIPK12PropertyInfoP11Il2CppClassEEP24Il2CppReflectionPropertyEENS_22__unordered_map_hasherIS8_SB_17ReflectionMapHashIS8_ELb1EEENS_21__unordered_map_equalIS8_SB_19ReflectionMapEqualsIS8_ELb1EEEN6il2cpp2gc9AllocatorISB_EEE20__node_insert_uniqueEPNS_11__hash_nodeISB_PvEE
E6f:__ZN6il2cpp2vm4Type14IsSystemDBNullEPK10Il2CppType
T4:__ZN9ShaderLab19CommonPropertyNames13StaticCleanupEPv
HDb:__Z14resize_trimmedINSt3__16vectorIh13stl_allocatorIhL18MemLabelIdentifier1ELi16EEEEEvRT_j
sHd:_FileStream_ReadData_m410796132
wlh:_glStencilOpSeparate__wrapper
VQc:_EncoderReplacementFallback_Equals_m702988615
Soa:__ZN7Texture13SetAnisoLimitENS_20AnisotropicFilteringE
GQa:__Z18CreateDecompressor15CompressionType18MemLabelIdentifier
aD:__ZN11AudioModule16SetListenerPauseEb
iIc:_SHA256Managed__ctor_m1925161709
ji:_emscripten_glCompressedTexSubImage2D
p2a:__ZN13GfxDeviceGLES22MemoryBarrierImmediateEyN2gl17MemoryBarrierTypeE
y8f:__ZN6il2cpp6icalls8mscorlib6System4Type18internal_from_nameEP12Il2CppStringbb
RUb:__ZN6prcoreL26RemapGenericFloatToIntegerI18TexFormatARGBFloat17TexFormatARGB8888EEvPKNS_9InnerInfoE
GWe:_UnitySerializationHolder__ctor_m3313764879
gP:__ZN6Object27GetOffsetOfInstanceIdMemberEv
Hqc:_cff_ps_has_glyph_names
chg:_GC_write
Eff:_PatternCompiler_EmitFastRepeat_m1340139951
nkf:_UriParser_InitializeAndValidate_m3968058349
B3b:__Z44Register_UnityEngine_GUIStyle_SetDefaultFontv
n7c:_DateTime_AddMilliseconds_m1717403134
Cwa:__Z23GetComponentsInChildrenRK10GameObjectbiR13dynamic_arrayIPN5Unity9ComponentELj4EE
vSd:_Kernel_LeftShift_m3640718462
jnb:__ZN13dynamic_arrayIN9ShaderLab16FastPropertyNameELj4EE6insertEPS1_PKS1_S5_
WGc:_RSA_Create_m3157832121
Oxf:__Z85RuntimeInvoker_Void_t2779279689_Int32_t2847414787_Int32_t2847414787_SByte_t2855346064PK10MethodInfoPvPS2_
PZb:__ZNSt3__16__treeINS_12__value_typeI9TextureID21SparseTextureInfoGLESEENS_19__map_value_compareIS2_S4_NS_4lessIS2_EELb1EEENS_9allocatorIS4_EEE7destroyEPNS_11__tree_nodeIS4_PvEE
PYb:__ZNSt3__17__sort3IRN18AssetBundleManager27SortPreloadDataByIdentifierEPNS1_11PreloadDataEEEjT0_S6_S6_T_
dxe:_FieldBuilder_get_DeclaringType_m1725909420
b3c:_Convert_ToByte_m566501093
Ikd:_SequentialSearchPrimeGeneratorBase_GenerateNewPrime_m220784712
Igb:__ZL21SetAnisoLimitEnumImplN7Texture20AnisotropicFilteringEb
fxc:__ZN22BaseUnityConnectClient17OnEnterStateReadyEv
Fyg:__ZL64String_t_CustomAttributesCacheGenerator_String_Split_m1407702193P21CustomAttributesCache
ndf:_ConstructionCall_get_ContextProperties_m4182550654
s6a:_start_pass_dpost
GAg:__ZL71Il2CppArray_CustomAttributesCacheGenerator_Array_LastIndexOf_m776394134P21CustomAttributesCache
s3f:__ZN6il2cpp6icalls8mscorlib6System8MonoType16InternalGetEventEP20Il2CppReflectionTypeP12Il2CppStringi
Enc:_UNITY_tt_face_load_maxp
K3d:_NameObjectCollectionBase_System_Collections_ICollection_CopyTo_m606865136
feh:__ZNKSt3__15ctypeIcE9do_narrowEcc
rSe:_TimeSpan_Duration_m4177061277
Qhd:_SimpleCollator_GetNeutralCulture_m2928766877
t8b:__ZN12b2EPCollider24ComputePolygonSeparationEv
Vp:__ZN4PPtrI6ObjectE8TransferI18StreamedBinaryReadILb1EEEEvRT_
dfb:__Z19GenerateCubeTextureIhPFvPh8Vector3fEEvP7CubemapRKT0_
PKd:_StringReader_ReadLine_m1484911836
x0g:__ZN4utf88internal15sequence_lengthIPKcEENSt3__115iterator_traitsIT_E15difference_typeES6_
fj:_llvm_fabs_f32
dTg:__ZL101AssetBundleRequest_t920637194_CustomAttributesCacheGenerator_AssetBundleRequest_get_asset_m1874521436P21CustomAttributesCache
u$g:__ZL63DefaultValueAttribute_t116041064_CustomAttributesCacheGeneratorP21CustomAttributesCache
_9g:__ZNKSt3__17num_getIwNS_19istreambuf_iteratorIwNS_11char_traitsIwEEEEE6do_getES4_S4_RNS_8ios_baseERjS8_
qIe:_SoapServices_EncodeNs_m2474727155
fLg:__ZL51Evidence_t2439192402_CustomAttributesCacheGeneratorP21CustomAttributesCache
tAb:__ZL29CanTransferTypeAsNestedObjectI18TransferField_InfoEbRKT_
T2d:_U24ArrayTypeU24128_t2366141827_marshal_pinvoke_cleanup
nVc:_Attribute_Equals_m2390113828
WLg:__ZL102Encoding_t180559927_CustomAttributesCacheGenerator_Encoding_t180559927____DecoderFallback_PropertyInfoP21CustomAttributesCache
nEa:__ZN14SafeBinaryReadD2Ev
QBb:__Z14resize_trimmedINSt3__16vectorI11GradientNEW13stl_allocatorIS2_L18MemLabelIdentifier1ELi16EEEEEvRT_j
E6:__Z7yyparsev
oif:_Parser_ParseNumber_m633788361
m3b:__Z45Register_UnityEngine_GUIStyle_SetFontInternalv
oec:__ZN19CollisionListener2DD0Ev
ltg:__ZN6il2cpp2vmL17SetupEventsLockedEP11Il2CppClassRKNS_2os12FastAutoLockE
B8f:__ZN6il2cpp6icalls8mscorlib6System4Type15MakeGenericTypeEP20Il2CppReflectionTypeP11Il2CppArray
def:_MethodCall_get_GenericArguments_m3093552433
uyd:_Array_InternalArray__set_Item_TisDateTime_t339033936_m2844025257_gshared
Hj:_SDL_PauseAudio
Wva:__ZN5Cache10AddToCacheERKNSt3__112basic_stringIcNS0_11char_traitsIcEENS0_9allocatorIcEEEEi
F5f:__ZN6il2cpp2os4File11GetStdErrorEv
S4:__ZN9ShaderLab19CommonPropertyNames16StaticInitializeEPv
UCf:__Z76RuntimeInvoker_Void_t2779279689_Int32_t2847414787_KeyValuePair_2_t3312956448PK10MethodInfoPvPS2_
Wrh:___ctype_tolower_loc__wrapper
LIa:__ZN17ShaderPassContext8CopyFromERKS_
H7:__ZN13MemoryManager31DisallowAllocationsOnThisThreadEv
iab:__ZNSt3__16__sortIR15ReflProbeSorterPP15ReflectionProbeEEvT0_S6_T_
zAb:__Z22Transfer_Builtin_AlignIs18StreamedBinaryReadILb1EELb0EEvRK29SerializationCommandArgumentsR31RuntimeSerializationCommandInfo
Wch:__ZNSt3__111__money_getIwE13__gather_infoEbRKNS_6localeERNS_10money_base7patternERwS8_RNS_12basic_stringIcNS_11char_traitsIcEENS_9allocatorIcEEEERNS9_IwNSA_IwEENSC_IwEEEESJ_SJ_Ri
Y3e:_GUIStyle_get_onHover_m3525397274
_wc:__ZN22BaseUnityConnectClient13ResumeSessionEv
Cqa:__ZN14Texture2DArray23VirtualRedirectTransferER14SafeBinaryRead
RT:__ZNK6Camera21CalculateCanDoShadowsEv
uie:_InternalEnumerator_1_get_Current_m2308068992_gshared
dWe:_UIntPtr__ctor_m3952297501
LNb:__ZN14SafeBinaryRead21TransferSTLStyleArrayINSt3__16vectorIN30RuntimeInitializeOnLoadManager15ClassMethodInfoE13stl_allocatorIS4_L18MemLabelIdentifier12ELi16EEEEEEvRT_17TransferMetaFlags
o1:__Z23RegisterClass_Behaviourv
oAe:_TypeBuilder_get_IsGenericParameter_m78451587
yNa:__ZNK20ArchiveStorageReader15HasStreamBlocksEv
CWg:__ZL90GameObject_t4012695102_CustomAttributesCacheGenerator_GameObject_get_transform_m1278640159P21CustomAttributesCache
jCb:__ZNSt3__16vectorI10ColorRGBAf13stl_allocatorIS1_L18MemLabelIdentifier1ELi16EEE8__appendEj
xZc:_FixedSizeArrayListWrapper_get_ErrorMessage_m2762836670
KMe:_CryptographicException__ctor_m1958048837
CJe:_ObjectReader_ReadObject_m2173880932
$0d:_SslHandshakeHash_Initialize_m3218164453
oof:__Z111RuntimeInvoker_Void_t2779279689_Il2CppObject_Int64_t2847414882_Il2CppObject_Int64_t2847414882_Int64_t2847414882PK10MethodInfoPvPS2_
OZf:_EqualityComparer_1_get_Default_m3151093663_gshared
Bab:__ZN14qsort_internal6_QSortIP15RODataDepthPassi17ROSorterDepthPassEEvR8JobFenceT_S6_T0_T1_RKS4_P19ProfilerInformation
IBg:__ZL97RuntimeTypeHandle_t1864875887_CustomAttributesCacheGenerator_RuntimeTypeHandle_Equals_m3214712582P21CustomAttributesCache
xqe:_Dictionary_2_Remove_m1836153257_gshared
jka:__Z14PadImageBorderR14ImageReferenceii
BKf:_Collection_1_CopyTo_m1256664552_gshared
g2f:__ZN6il2cpp2vm13MetadataCache28GetFieldDefaultValueForFieldEPK9FieldInfo
pkf:_UriParser_set_SchemeName_m706252033
zFe:_RemotingSurrogate_SetObjectData_m3663110203
rLf:_ReadOnlyCollection_1_System_Collections_Generic_ICollectionU3CTU3E_Clear_m833093535_gshared
_Gb:__ZN6HelperI13ProxyTransfer23TransferArrayField_InfoLb1EE24SerializationFunctionForERKS1_R23StaticTransferFieldInfoPb
Bt:__ZN12AudioManager39HandlePendingAudioConfigurationCallbackEv
AJd:_Path_SameRoot_m1004668564
zSg:__ZL118HttpsClientStream_t2708006830_CustomAttributesCacheGenerator_HttpsClientStream_U3CHttpsClientStreamU3Em__0_m3456026544P21CustomAttributesCache
Rk:_emscripten_glIsFramebuffer
m$a:__ZNK13TranslateGLES9GetFormatE13TextureFormat17TextureColorSpace
A8:__ZN12TLSAllocatorI14StackAllocatorE8AllocateEji
Vk:_JS_Sound_SetLoopPoints
Jt:__ZN12AudioManager17ShouldSourcePauseEb
A8c:_DateTimeFormatInfo_get_LongTimePattern_m3971641863
kig:__ZN6il2cpp2vm26MetadataAllocGenericMethodEv
W$a:__ZN19ConstantBuffersGLES12RecordRenderEv
Ppa:__ZN9Texture2D15UpdateImageDataEv
Wda:__ZN18AsyncUploadManager22UploadStreamingTextureEP28FileTextureUploadInstruction
_te:_CustomAttributeData_get_Constructor_m624500001
fja:__ZN4crnd12symbol_codec11decode_bitsEj
_Xc:_CharEnumerator__ctor_m2119134439
mrc:_cf2_doFlex
pFc:_MD5CryptoServiceProvider_Dispose_m365177198
uVb:__ZN21FixedBehaviourManagerD0Ev
VZg:__ZL109UnityWebRequest_t1582871641_CustomAttributesCacheGenerator_U3CdisposeUploadHandlerOnDisposeU3Ek__BackingFieldP21CustomAttributesCache
Fog:__Z37il2cpp_codegen_check_mul_overflow_i64xxxx
xrf:__Z41RuntimeInvoker_StackBehaviour_t2852137698PK10MethodInfoPvPS2_
GPe:_UTF8Encoding_GetPreamble_m3276889634
T0a:__ZNK18GfxFramebufferGLES15GetSamplesCountEv
fic:__ZN20TextRenderingPrivate4Font21AddCharacterToTextureEjifj
lZe:_Collision2D__ctor_m3298468565
oPe:_UTF8Encoding_GetByteCount_m2560927815
Rwa:__Z16MarkDependenciesR27GarbageCollectorThreadStatej
xZ:__ZNK14RenderSettings25GetClassIDVirtualInternalEv
v6a:_noop_upsample
NAg:__ZL65Il2CppArray_CustomAttributesCacheGenerator_Array_Sort_m3912494992P21CustomAttributesCache
Mra:__ZNK9Transform11GetPositionEv
Rrg:__ZN21InterfaceFuncInvoker1IP8String_tS1_E6InvokeEjP11Il2CppClassPvS1_
WTf:_Rect_set_x_m577970569
vca:__ZN23SharedMeshRenderingData18UnloadVertexStreamEi
v2:__ZN19RenderEventsContextC2Ei
sgc:__Z6simd4fRKf
yl:_emscripten_glEnable
HS:__ZN10TagManager23VirtualRedirectTransferER14SafeBinaryRead
spf:__Z157RuntimeInvoker_Boolean_t211005341_Il2CppObject_Int32U26_t2544866037_Int32_t2847414787_Int32_t2847414787_Il2CppObject_SByte_t2855346064_ContextU26_t2739380041PK10MethodInfoPvPS2_
Wff:_Link_t2368538_marshal_pinvoke_cleanup
Unc:_UNITY_FT_Init_Class_ft_grays_raster
yvg:__ZNSt3__16vectorINS_12basic_stringIcNS_11char_traitsIcEENS_9allocatorIcEEEENS4_IS6_EEE21__push_back_slow_pathIS6_EEvOT_
r$:__Z15InitLightMeshesv
h_e:_Component_SendMessage_m1163914169
Bfc:__ZNSt3__127__insertion_sort_incompleteIR31RayHitsByInverseDepthComparitorP12RaycastHit2DEEbT0_S5_T_
m$c:_CollectionBase_OnClear_m777794841
FKd:_StreamWriter_Write_m1067578184
UCe:_MonoMethod_InternalInvoke_m4222289618
oHf:_List_1_TrimExcess_m2451380967_gshared
Lfb:__ZN15QualitySettings8TransferI19StreamedBinaryWriteILb0EEEEvRT_
gJ:_UNITY_png_reciprocal
sHg:__ZL62_ConstructorBuilder_t3050391266_CustomAttributesCacheGeneratorP21CustomAttributesCache
oCf:__Z59RuntimeInvoker_Int32_t2847414787_ContactPoint2D_t3963746319PK10MethodInfoPvPS2_
Cmc:_cf2_arrstack_init
XDe:_GetterAdapter_EndInvoke_m3963824678
KRa:__Z15CleanLogHandler7LogTypePKcz
hJb:__Z22Transfer_Builtin_AlignIh18StreamedBinaryReadILb0EELb0EEvRK29SerializationCommandArgumentsR31RuntimeSerializationCommandInfo
PDf:__Z60RuntimeInvoker_X509ChainStatus_t1122151684_Int32_t2847414787PK10MethodInfoPvPS2_
Gr:__ZN14AudioBehaviour15ThreadedCleanupEv
K5b:__Z27RegisterClass_BoxCollider2Dv
iU:__ZN6Camera17RemoveImageFilterERK11ImageFilter
nvd:_Array_InternalArray__IndexOf_TisCustomAttributeTypedArgument_t560415562_m1753241575_gshared
vAe:_EventInfo_get_MemberType_m3965977017
wAg:__ZL73Il2CppArray_CustomAttributesCacheGenerator_Array_BinarySearch_m3041952835P21CustomAttributesCache
Czg:__ZL71UIntPtr_t_CustomAttributesCacheGenerator_UIntPtr_op_Explicit_m376973280P21CustomAttributesCache
zWd:_CipherSuite_Expand_m4170799558
jPf:_X509CertificateEnumerator__ctor_m3786714110
Iq:__ZNK8Playable11GetDurationEv
gHf:_List_1_IndexOf_m1752303327_gshared
_5a:_null_convert24
rLd:_TextWriter_Dispose_m2348196413
$2d:_HybridDictionary_get_Count_m2544735439
Ioa:__ZN6Sprite9ReloadAllEv
nDd:_Int16_System_IConvertible_ToUInt16_m2309149559
wxc:__ZN18UnityConnectClient33OnPlayerSessionStateChangedStaticEPS_jyy
k4d:_NameValueCollection_GetKey_m4077148652
dtg:__ZN18VirtActionInvoker2IP25DispatcherKey_t3258056537P22Dispatcher_t1056575496E6InvokeEjPvS1_S3_
I3e:_GUIStyle_Finalize_m3401789451
CZa:__ZN7ApiGLES4LoadE16GfxDeviceLevelGL
LPb:__ZN18StreamedBinaryReadILb0EE21TransferSTLStyleArrayI13dynamic_arrayI31EnlightenSystemAtlasInformationLj8EEEEvRT_17TransferMetaFlags
Tib:__ZN18StreamedBinaryReadILb0EE21TransferSTLStyleArrayINSt3__16vectorIN15ResourceManager10DependencyENS2_9allocatorIS5_EEEEEEvRT_17TransferMetaFlags
ueb:__ZN4crnd12crn_unpacker22decode_color_endpointsEv
G_f:_DispatcherFactory_Invoke_m1095288990
bia:__Z19scripting_array_newP14ScriptingClassjj
w3e:_GUISkin_GetStyle_m2474694726
eHa:__ZN8Material11SetPassFastEPN9ShaderLab4PassER17ShaderPassContextP6Shaderib
$tb:__ZNK13ScreenManager13GetLockCursorEv
iRf:_UnityWebRequest_Get_m242769177
_ta:__Z18GetITerrainManagerv
hSf:_UnityWebRequest_get_uploadProgress_m3424452368
gGg:__ZL48PInfo_t2267221868_CustomAttributesCacheGeneratorP21CustomAttributesCache
c0:__Z12SetupLODFadeR9GfxDeviceR17ShaderPassContextf
_Ed:_IntPtr__ctor_m2136600871
mab:__ZL24CollectForwardObjectsJobP27CollectForwardObjectsHeader
mfd:_CultureInfo_ToString_m429412721
L_:__Z13IsNodeVisibleRK9SceneNodeRK4AABBRK22SceneCullingParameters
i$g:__ZL64StateMachineBehaviour_t1035456276_CustomAttributesCacheGeneratorP21CustomAttributesCache
yF:__ZN11UnityEngine15CloudWebService16SessionContainer7RestoreERK8UnityStrPvy
U6d:_AsnEncodedData__ctor_m2841294762
jz:__ZN4FMOD7SystemI9setOutputE15FMOD_OUTPUTTYPE
Kqh:_emscripten_glStencilMask__wrapper
Apc:__ZZ29InitializeTextRenderingModulevEN40CleanUpTextRenderingGarbageCollectstruct7ForwardEv
bZe:_Camera_RaycastTry_m569221064
jM:_jpeg_get_small
UY:__ZN15RenderNodeQueue7CleanupEv
HLa:__ZNK17ArchiveFileSystem8PositionERK13FileEntryData
Tgc:__ZN16NovodexAllocator8allocateEjPKcS1_i
m8g:__ZNSt3__112basic_stringIwNS_11char_traitsIwEENS_9allocatorIwEEE6__initEPKwj
UH:__ZN9rapidjson6WriterINS_19GenericStringBufferINS_4UTF8IcEENS_12CrtAllocatorEEES3_S3_S4_E11WriteStringEPKcj
Z4:__ZN9ShaderLab10GrabPassesD2Ev
psc:_tt_cmap14_done
VEa:__ZN18AwakeFromLoadQueue25RegisterObjectInstanceIDsEv
Fnf:__Z41RuntimeInvoker_IntPtr_t_Int32_t2847414787PK10MethodInfoPvPS2_
Hxe:_GenericTypeParameterBuilder_IsArrayImpl_m3637457745
DYb:__ZN15SerializeTraitsI13dynamic_arrayINSt3__14pairIi12ImmediatePtrIN5Unity9ComponentEEEELj4EEE19ResizeSTLStyleArrayERS8_i18MemLabelIdentifier
qqa:__ZN14Texture2DArray13UploadTextureEb
r1:__ZN9Behaviour8TransferI13ProxyTransferEEvRT_
mxf:__Z49RuntimeInvoker_Void_t2779279689_UInt16_t985925268PK10MethodInfoPvPS2_
k2e:_GUILayoutUtility_INTERNAL_CALL_Internal_GetWindowRect_m1468033111
jOg:__ZL78Convert_t1097883944_CustomAttributesCacheGenerator_Convert_ToSByte_m1554306494P21CustomAttributesCache
LOc:_StringBuilder_Append_m1038583841
c4e:_GUIStyle_get_onFocused_m3570657109
mcc:__ZN11b2RopeJoint24SolveVelocityConstraintsERK12b2SolverData
F3g:__ZNSt3__16vectorINS_4pairIPK10MethodInfoP11Il2CppClassEENS_9allocatorIS7_EEE26__swap_out_circular_bufferERNS_14__split_bufferIS7_RS9_EE
hga:__ZN14GfxDeviceStats15SetScreenParamsEiiiiii
AEg:__ZL99DynamicMethod_t2778460557_CustomAttributesCacheGenerator_DynamicMethod_GetCustomAttributes_m1932918P21CustomAttributesCache
LRg:__ZL46Uri_t2776692961_CustomAttributesCacheGeneratorP21CustomAttributesCache
bTa:__Z12MurmurHash2APKvij
Hre:_Dictionary_2_System_Collections_ICollection_CopyTo_m3550803941_gshared
DWf:_Vector4__ctor_m2441427762
YEg:__ZL59ParameterBuilder_t3382011775_CustomAttributesCacheGeneratorP21CustomAttributesCache
Mjc:_UNITY_FT_Open_Face
L$f:_BallControl_OnCollisionEnter2D_m55393474
Mmh:_glGenRenderbuffers__wrapper
UIc:_SHAConstants__cctor_m2653985967
Q9a:__ZNSt3__16vectorI16ShadowCasterData13stl_allocatorIS1_L18MemLabelIdentifier2ELi16EEE8__appendEj
Uje:_InternalEnumerator_1_System_Collections_IEnumerator_Reset_m449074499_gshared
YWa:__Z44Register_UnityEngine_Component_get_transformv
pq:__ZN4PPtrI9TransformE8TransferI18StreamedBinaryReadILb1EEEEvRT_
Fcd:_Enum_GetTypeCode_m403915996
tLa:__ZN17ArchiveFileSystem12MountArchiveEPKcS1_
Nwd:_Array_InternalArray__ICollection_CopyTo_TisLink_t2496691359_m3911848116_gshared
NWf:_WaitForSeconds__ctor_m3184996201
ICa:__Z11RequireTypePKcS0_S0_
oWc:_Buffer_ByteLengthInternal_m22076516
ava:__ZN20SphericalHarmonicsL211AddWeightedERK20SphericalHarmonicsL1f
N8a:__ZNSt3__16vectorIN12FlareManager10FlareEntryENS_9allocatorIS2_EEE21__push_back_slow_pathIKS2_EEvRT_
Rfa:__ZN9GfxDevice15ImmediateVertexEfff
LV:__ZN16GraphicsSettings13AwakeFromLoadE17AwakeFromLoadMode
Wdf:_MethodCall_get_MethodName_m703141353
Gq:__ZN6Object13AwakeFromLoadE17AwakeFromLoadMode
G1a:__ZN13GfxDeviceGLES15SetStencilStateEPK18DeviceStencilStatei
DIb:__ZL26Transfer_SimpleNativeClassI17RemapPPtrTransfer8GUIStyleLb1EEvRK29SerializationCommandArgumentsR31RuntimeSerializationCommandInfo
fAc:__ZN13dynamic_arrayI14ResponseHelperLj4EE19push_back_constructEv
T2e:_GUISkin_get_verticalSlider_m3077048033
VEf:__Z37RuntimeInvoker_Enumerator_t3738124819PK10MethodInfoPvPS2_
Xrd:_ArithmeticException__ctor_m3440978604
sd:_emscripten_glUniform1iv
Tvg:__ZN6il2cpp6icalls8mscorlib6SystemL16ThrowInvalidCastEPK11Il2CppClassS5_
z8b:__ZN15b2DistanceProxy3SetEPK7b2Shapei
INa:__ZN16MemoryFileSystemD2Ev
Q1e:_GUILayoutUtility_get_spaceStyle_m3628948340
Ppc:__Z17dynamic_pptr_castIP9Texture2D7TextureET_RK4PPtrIT0_E
Dpb:__ZN14DrawBufferGLESI12VertexBuffer27VertexBufferUsageMapperGLESE12EnsureBufferEj
F_b:__ZN13RuntimeStaticI23MeshVertexFormatManagerE13StaticDestroyEPv
Pxa:__ZN30RuntimeInitializeOnLoadManager13RegisterClassEv
x_a:__ZN7ApiGLES15TextureSubImageEj16TextureDimensionN2gl9TexFormatEiiiiiiiiPKv
bRe:_Thread_get_ManagedThreadId_m3915632970
thb:__ZN12ImmediatePtrI9TransformE8TransferI18StreamedBinaryReadILb1EEEEvRT_
PZd:_TlsStream_Write_m3380210001
bbg:__ZN6il2cpp2os5posix15PosixWaitObject4WaitEjb
oWf:_Vector2__ctor_m1517109030
oua:__ZN11GradientNEW8TransferI18StreamedBinaryReadILb0EEEEvRT_
EPg:__ZL62InvalidCastException_t922874574_CustomAttributesCacheGeneratorP21CustomAttributesCache
_pf:__Z31RuntimeInvoker_Byte_t2778693821PK10MethodInfoPvPS2_
eya:__ZN15ResourceManager19PreloadDependenciesEiRNSt3__13setIiNS0_4lessIiEENS0_9allocatorIiEEEEb
Md:_emscripten_glStencilFunc
H7a:__ZN18AwakeFromLoadQueueD2Ev
Sd:_glGetActiveUniformBlockName
BJg:__ZL67OnDeserializingAttribute_t3510448984_CustomAttributesCacheGeneratorP21CustomAttributesCache
Kpe:_Dictionary_2_TryGetValue_m2515559242_gshared
gPc:_String_CreateString_m578950865
C6d:_WebProxy__ctor_m2333292256
n0f:__ZN6il2cpp2vm5Class13GetArrayClassEP11Il2CppClassj
Zz:__ZN4FMOD7Channel20set3DConeOrientationEP11FMOD_VECTOR
_S:__ZN6Camera15ThreadedCleanupEv
Ln:FUNCTION_TABLE_iiifii
a6c:_Convert_ToUInt64_m2522396633
tag:__ZN6il2cpp2vm12GenericClass11SetupEventsEP11Il2CppClass
$sc:_tt_delta_interpolate
isc:_tt_cmap12_get_info
gQb:__Z24LoadImageIntoTextureImplI11JpegDecoderEbR9Texture2DPKhjb13TextureFormatR13dynamic_arrayIhLj1EE
Fsd:_Array_InternalArray__ICollection_Contains_TisX509ChainStatus_t1122151684_m2027238301_gshared
gIg:__ZL59IDynamicProperty_t2251442921_CustomAttributesCacheGeneratorP21CustomAttributesCache
v3f:__ZN6il2cpp6icalls8mscorlib6System7Decimal14decimalCompareEP19il2cpp_decimal_reprS5_
aza:__ZN21LinearCollectionFieldC2ERK17GeneralMonoObjectP14ScriptingField
oNf:_KeyUsageExtension_Support_m2695467029
fWc:_Boolean_CompareTo_m3388665506
FQd:_ObjectDisposedException_GetObjectData_m2669480868
OMf:_StaticGetter_1_BeginInvoke_m3837643130_gshared
AFb:__Z19TransferField_ArrayI14SafeBinaryRead19Converter_PrimitiveI10ColorRGBAfEEvRK23StaticTransferFieldInfoR31RuntimeSerializationCommandInfoRT0_
sUb:__ZN6prcoreL17RemapGenericFloatI14TexFormatRHalf15TexFormatRFloatEEvPKNS_9InnerInfoE
WZ:__Z16ShouldUseShadowsb
whd:_MSCompatUnicodeTable_SetCJKReferences_m2831602013
v4b:__ZN11IMGUIModule12AddGUIScriptER8ListNodeI13MonoBehaviourE
LZa:__ZN7ApiGLES10DrawArraysE16GfxPrimitiveTypejjj
Sr:__ZN10SampleClip13LoadBaseSoundEv
Sfh:__ZNSt3__120__get_up_to_n_digitsIcNS_19istreambuf_iteratorIcNS_11char_traitsIcEEEEEEiRT0_S5_RjRKNS_5ctypeIT_EEi
o7b:__ZN17Physics2DSettings13RegisterClassEv
Xcd:_Enum_ToObject_m845836212
nPg:__ZL52DayOfWeek_t4050023580_CustomAttributesCacheGeneratorP21CustomAttributesCache
Mhg:__ZNK6il2cpp8metadata17Il2CppTypeCompareclEPK10Il2CppTypeS4_
uVg:__ZL76Object_t3878351788_CustomAttributesCacheGenerator_Object_Destroy_m2260435093P21CustomAttributesCache
IG:__ZNSt3__13mapIN19CloudServiceHandler11ServiceTypeEPS1_NS_4lessIS2_EE13stl_allocatorINS_4pairIKS2_S3_EEL18MemLabelIdentifier85ELi16EEEixERS8_
d6e:_Hash128_GetHashCode_m3551754047
$U:__ZN22DeviceMVPMatricesStateC2ER9GfxDevice
kO:__ZN6Object16StaticInitializeEv
n7b:__Z31RegisterClass_Physics2DSettingsv
oHe:_RemotingConfiguration_set_ApplicationName_m755243983
Xtf:__Z42RuntimeInvoker_Boolean_t211005341_IntPtr_tPK10MethodInfoPvPS2_
hhd:_TableRange_t476453423_marshal_pinvoke_cleanup
XZd:_HandshakeMessage__ctor_m2754795165
Sb:invoke_viiifi
rMb:__Z19TransferField_ArrayI19StreamedBinaryWriteILb0EE19Converter_PrimitiveI5RectTIfEEEvRK23StaticTransferFieldInfoR31RuntimeSerializationCommandInfoRT0_
vZd:_TlsClientCertificate_FindParentCertificate_m4055579138
zRg:__ZL75X509Store_t2846739282_CustomAttributesCacheGenerator_U3CU3Ef__switchU24mapFP21CustomAttributesCache
btg:__ZL24il2cpp_codegen_no_returnv20116
mf:_JS_Sound_SetPosition
Mtg:__ZL13GetSharedInstPK17Il2CppGenericInst
kxc:__ZN22BaseUnityConnectClient17SaveSessionValuesEv
rzd:_Array_swap_TisIl2CppObject_m1884376573_gshared
Qnf:__Z42RuntimeInvoker_UIntPtr_t_Int32_t2847414787PK10MethodInfoPvPS2_
DW:__Z15CullLocalLightsR8JobFenceS0_RK22SceneCullingParametersRK13dynamic_arrayI8Vector4fLj4EERKS4_IiLj4EER9IndexListSD_RS4_IfLj4EERS4_I15LightScreenInfoLj4EEPPK5LightRK14ShadowCullData
IDc:__Z65Register_UnityEngine_Networking_UnityWebRequest_get_uploadHandlerv
w$:__Z24SetupActiveLightsContextR21ActiveLightingContextRK12ActiveLightsRK11CullResultsP14ShadowMapCacheRK10MinMaxAABB
rVe:_UInt32_CompareTo_m2274441540
ozc:__ZN18CrashReportHandler9HandleLogERK8UnityStrS2_7LogType
k7c:_DateTime_get_Kind_m3496013602
Ga:invoke_iiiiiiii
cPa:__ZN24RingBufferMemoryFileData16ConsumeReadBytesEy
r0d:_SslClientStream__ctor_m1812308023
wle:_Enumerator_Dispose_m1102561394_gshared
Ckf:__Z53RuntimeInvoker_Il2CppObject_Il2CppObject_Il2CppObjectPK10MethodInfoPvPS2_
Y$g:__ZNSt3__13mapIPvxNS_4lessIS1_EENS_9allocatorINS_4pairIKS1_xEEEEE25__construct_node_with_keyERS6_
shd:_MSCompatUnicodeTable_UInt32FromBytePtr_m108136383
AKf:_Collection_1_Contains_m2837323972_gshared
rVa:__Z47Register_UnityEngine_Camera_get_allCamerasCountv
wne:_Transform_1_Invoke_m757436355_gshared
Ulg:___clang_call_terminate
bxc:__ZN22BaseUnityConnectClient20StartEventDispatcherEv
Elb:__Z29StdTemplateConversionFunctionIsiEbPvR14SafeBinaryRead
ota:__ZN12InputManager13InputEndFrameEv
bcc:__ZN15b2RevoluteJointC2EPK18b2RevoluteJointDef
QR:__ZN16MessageForwarderC2Ev
P$f:_U24__ctor_m3439968047
Y7f:__ZN6il2cpp2vm6Thread5SetupEP12Il2CppThread
apa:__Z21RegisterClass_Texturev
u2:__ZN22RenderingCommandBuffer24PostExecuteCommandBufferER17ShaderPassContextP13RenderTexture
jg:_localtime_r
Amg:__ZN16VirtFuncInvoker3IbP8String_tS1_iE6InvokeEjPvS1_S1_i
wQc:_DecoderReplacementFallbackBuffer_Reset_m4105085133
M_f:_DispatcherKey__cctor_m1394410923
mg:_strftime
Woa:__ZN7Texture33SetStoredColorSpaceNoDirtyNoApplyE17TextureColorSpace
pKa:__ZN12FileAccessorD2Ev
hzb:__ZN10ColorRGBAf8TransferI18StreamedBinaryReadILb0EEEEvRT_
aPf:_X509Certificate_GetIssuerName_m3574279585
oda:__ZN14VertexDataInfoC2Ev
WBe:_MonoMethodInfo_GetDeclaringType_m1399000903
Thb:__ZN13BuildSettings8TransferI13ProxyTransferEEvRT_
YHc:_SHA1Internal_ProcessBlock_m2806549466
XGg:__ZL51GCHandle_t2146430982_CustomAttributesCacheGeneratorP21CustomAttributesCache
F5g:__Znaj
qSa:__ZN11UTF16StringC2EPKc
b6:__ZN9shadertag10InitializeEv
OOg:__ZL79Convert_t1097883944_CustomAttributesCacheGenerator_Convert_ToUInt32_m2451123894P21CustomAttributesCache
ijg:__ZN6il2cpp5utils6Memory11AlignedFreeEPv
xPf:_X509Chain_Build_m2539190260
xFg:__ZL67AssemblyKeyNameAttribute_t3264813222_CustomAttributesCacheGeneratorP21CustomAttributesCache
b8c:_DateTime_ParseExact_m3158704214
gic:__ZN20TextRenderingPrivate4Font24CollectAllUsedCharactersEPtRiRPiRPj
Owd:_Array_InternalArray__ICollection_CopyTo_TisSlot_t2579998_m894641912_gshared
lig:__ZN6il2cpp6icalls8mscorlib6System9Threading16NativeEventCalls19ResetEvent_internalE12Il2CppIntPtr
Svc:__ZN14SafeBinaryRead21TransferSTLStyleArrayINSt3__16vectorI8UnityStr13stl_allocatorIS3_L18MemLabelIdentifier34ELi16EEEEEEvRT_17TransferMetaFlags
fVb:__ZN22BlockMemoryCacheWriter14LockCacheBlockEjPPhS1_
DTg:__ZL87RectOffset_t3394170884_CustomAttributesCacheGenerator_RectOffset_set_bottom_m3840454247P21CustomAttributesCache
Tg:_llvm_eh_typeid_for
Cx:__ZN4FMOD13ChannelGroupI10getDSPHeadEPPNS_3DSPE
JIa:__Z19FindShaderLabShaderRKNSt3__112basic_stringIcNS_11char_traitsIcEENS_9allocatorIcEEEERNS_6vectorI4PPtrI6ShaderENS3_ISB_EEEEb
iEc:__ZNK15DownloadHandler14HasPendingDataEv
axc:__ZN22BaseUnityConnectClient10QueueEventERN11UnityEngine15CloudWebService17CloudServiceEventEPKcb
NHe:_BinaryFormatter__ctor_m203421689
A2:__ZNK19RenderEventsContext25PostExecuteCommandBuffersEiR17ShaderPassContextP13RenderTextureP19ProfilerInformationi
Yrb:__ZN9GfxDevice14EndBufferWriteEP9GfxBufferj
AGd:_DirectoryInfo_Initialize_m287338546
fyg:__ZL64CLSCompliantAttribute_t1445258624_CustomAttributesCacheGeneratorP21CustomAttributesCache
NAf:__Z72RuntimeInvoker_Int32_t2847414787_IntPtr_t_Il2CppObject_Single_t958209021PK10MethodInfoPvPS2_
kqh:_glBindVertexArray__wrapper
YZg:__ZL122UnityWebRequest_t1582871641_CustomAttributesCacheGenerator_UnityWebRequest_set_disposeDownloadHandlerOnDispose_m4263077100P21CustomAttributesCache
GHa:__ZN8Material8TransferI14SafeBinaryReadEEvRT_
Oyg:__ZL74String_t_CustomAttributesCacheGenerator_String_Concat_m3016520001____args0P21CustomAttributesCache
hLf:_ReadOnlyCollection_1_System_Collections_IList_get_Item_m3512499704_gshared
DC:__ZN10ObjectPoolIN4FMOD3DSPENS0_4DSPIEE7SetSizeEi
mph:_emscripten_glGetUniformiv__wrapper
Ju:__ZN11AudioSource4StopEb
BMc:_Single_System_IConvertible_ToUInt16_m3288807997
Gcd:_Enum_GetUnderlyingType_m2468052512
W3a:__ZN18GlslGpuProgramGLESD2Ev
lIc:_SHA256Managed_HashFinal_m446039593
tbf:_DynamicPropertyCollection_UnregisterDynamicProperty_m2463280666
NRe:_pinvoke_delegate_wrapper_WaitCallback_t827025885
ite:_AssemblyName_get_Version_m700434552
vGe:_ObjRef_UpdateChannelInfo_m3151551622
Hya:__ZN22GenericPropertyBinding8RegisterEPKc11ClassIDTypePFfPvEPFvS3_fE
DM:_jsimd_h2v2_fancy_upsample
GFa:__ZN17PersistentManager18ReadObjectThreadedEi
v4a:__ZN25TransformFeedbackSkinning31CleanupTransformFeedbackShadersEv
yhg:__ZN6il2cpp6icalls8mscorlib6System7Runtime16CompilerServices14RuntimeHelpers15InitializeArrayEP11Il2CppArray12Il2CppIntPtr
lxe:_FieldBuilder_GetValue_m1365484742
jo:FUNCTION_TABLE_viidi
ida:__ZN10VertexData8TransferI18StreamedBinaryReadILb0EEEEvRT_
p7c:_DateTime_Compare_m1646075697
CTf:_Object_t3878351788_marshal_pinvoke_cleanup
vBa:__ZN14PreloadManager16UpdatePreloadingEv
OS:__ZN12BaseRendererD2Ev
Tkd:_ASN1__ctor_m520959860
XYb:__ZN19StreamedBinaryWriteILb0EE19TransferSTLStyleMapINSt3__18multimapI8UnityStrN11AssetBundle9AssetInfoENS2_4lessIS4_EENS2_9allocatorINS2_4pairIKS4_S6_EEEEEEEEvRT_17TransferMetaFlags
BKd:_StreamWriter_Write_m4266049192
dAa:__ZN13MonoBehaviour21StartCoroutineManagedEPKcP15ScriptingObject
$7:__ZNK21UnityDefaultAllocatorI17LowLevelAllocatorE8ContainsEPKv
ni:_emscripten_get_main_loop_timing
krf:__Z46RuntimeInvoker_RuntimeMethodHandle_t2360005078PK10MethodInfoPvPS2_
Iff:_PatternCompiler_NewLink_m629334431
JHc:_RSAPKCS1SignatureFormatter_SetHashAlgorithm_m15087816
zWe:_UnhandledExceptionEventArgs_get_ExceptionObject_m3487900308
gcf:_pinvoke_delegate_wrapper_CrossContextDelegate_t2286976850
bQe:_ExecutionContext__ctor_m3342294760
f8g:__ZNSt3__112basic_stringIcNS_11char_traitsIcEENS_9allocatorIcEEE5eraseEjj
op:getTempRet0
Qze:_TypeBuilder_DefineConstructor_m467278373
Dnf:__Z32RuntimeInvoker_Int64_t2847414882PK10MethodInfoPvPS2_
ujf:_Uri_GetLeftPart_m2866425188
Xvg:__ZN6il2cpp6icalls8mscorlib6System9ThreadingL21lookup_cached_cultureEP12Il2CppThreadi
EWb:__ZN18DeferredRenderLoopD2Ev
xGa:__ZNK16TypeTreeIterator4NameEv
_Ja:__ZN15FileSystemEntry3SetEPKc
Cbf:_Context_get_HasExitSinks_m1034415328
N4f:_il2cpp_method_has_attribute
BI:__ZNSt3__16vectorIPN11UnityEngine15CloudWebService14CloudEventInfoE13stl_allocatorIS4_L18MemLabelIdentifier85ELi16EEE6assignIPS4_EENS_9enable_ifIXaasr21__is_forward_iteratorIT_EE5valuesr16is_constructibleIS4_NS_15iterator_traitsISC_E9referenceEEE5valueEvE4typeESC_SC_
BNd:_MonoType_GetAttributeFlagsImpl_m57896493
aoe:_Enumerator_Dispose_m1628348611_gshared
_Wf:_WWWTranscoder__cctor_m1486747496
Vqa:__ZN9Texture3D23VirtualRedirectTransferER13ProxyTransfer
xw:__ZN20SoundChannelInstance15ParameterBuffer5ApplyEPN4FMOD7ChannelE
Xsf:__Z119RuntimeInvoker_Void_t2779279689_Il2CppObject_Int64_t2847414882_Il2CppObject_Int64_t2847414882_Il2CppObject_Il2CppObjectPK10MethodInfoPvPS2_
FR:__Z23RegisterClass_Componentv
j7a:__ZNSt3__16__treeINS_12__value_typeINS_12basic_stringIcNS_11char_traitsIcEE13stl_allocatorIcL18MemLabelIdentifier54ELi16EEEEP11AssetBundleEENS_19__map_value_compareIS8_SB_NS_4lessIS8_EELb1EEES5_ISB_LS6_54ELi16EEE7destroyEPNS_11__tree_nodeISB_PvEE
Hic:__ZN20TextRenderingPrivate19NativeTextGenerator9InsertTabEv
MZc:_ReadOnlyArrayListWrapper_Sort_m480650942
yMg:__ZL100ExecutionContext_t3375439994_CustomAttributesCacheGenerator_ExecutionContext_GetObjectData_m67437190P21CustomAttributesCache
Rye:_MethodBuilder_GetCustomAttributes_m1111063247
Wxc:__ZN11UnityEngine15PlatformWrapper24GetRuntimePlatformStringEv
Zi:_glIsEnabled
x4:__ZN15CacheWriterBaseD2Ev
TNc:_String_EndsWith_m2265568550
hxa:__Z26PlayerRenderCanvasOverlaysi
fTe:_Type_get_IsByRef_m1896439844
CH:__ZN11UnityEngine15CloudWebService12JsonDocumentD2Ev
Pbb:__ZNSt3__16vectorIN9ShaderLab16ParserSetTextureENS_9allocatorIS2_EEE6assignIPS2_EENS_9enable_ifIXaasr21__is_forward_iteratorIT_EE5valuesr16is_constructibleIS2_NS_15iterator_traitsIS9_E9referenceEEE5valueEvE4typeES9_S9_
bj:_emscripten_glDrawElementsInstanced
AXa:__Z25Transform_CUSTOM_GetChildP15ScriptingObjecti
Nne:_Enumerator__ctor_m263307846_gshared
eWd:_CipherSuite_get_KeyBlockSize_m3692693747
h3:__ZN18JobBatchDispatcherD2Ev
vra:__ZN9Transform17MainThreadCleanupEv
ogg:_GC_clear_hdr_marks
hrh:_emscripten_glCreateShader__wrapper
xlc:_cff_fd_select_get
dr:__ZNSt3__16vectorIhNS_9allocatorIhEEE6assignINS_11__wrap_iterIPhEEEENS_9enable_ifIXaasr21__is_forward_iteratorIT_EE5valuesr16is_constructibleIhNS_15iterator_traitsIS9_E9referenceEEE5valueEvE4typeES9_S9_
JEf:__Z72RuntimeInvoker_Boolean_t211005341_Int32_t2847414787_ObjectU26_t426379564PK10MethodInfoPvPS2_
L9a:__ZL54CombineLocalShadowCasterCullignIndexListsAndDestroyJobP25LocalShadowCullingJobData
fFd:_IntPtr_Equals_m3488505417
Jed:_CompareInfo_IndexOf_m2367270856
eRc:_Encoding_SetFallbackInternal_m1712004450
nj:_emscripten_glGetShaderiv
oB:__ZN4FMOD6System10getVersionEPj
R7a:__ZN5Unity9Component7PRODUCEE18MemLabelIdentifier18ObjectCreationMode
Rpb:__ZNK6Object25GetClassIDVirtualInternalEv
cPc:_String_memcpy_m3785779208
voe:_ValueCollection_System_Collections_Generic_IEnumerableU3CTValueU3E_GetEnumerator_m4243354478_gshared
i$e:_Event_get_isKey_m645126607
DZe:_Color_get_black_m1687201969
Dge:_InternalEnumerator_1_System_Collections_IEnumerator_get_Current_m946892569_gshared
gfa:__ZN9GfxDevice21ReleaseSharedMeshDataEP14SharedMeshData
wtd:_Array_InternalArray__ICollection_Remove_TisMark_t3725932776_m842401640_gshared
SGf:_List_1_System_Collections_IList_IndexOf_m3431692926_gshared
_Hc:_SHA1Internal_InitialiseBuff_m1659676512
zce:_IntStack_t618478585_marshal_pinvoke_back
oxg:_maybe_finalize
qyc:__ZN20HardwareInfoReporter18ReportHardwareInfoEv
eng:__ZN16VirtFuncInvoker2IbP6Type_tbE6InvokeEjPvS1_b
ZGa:__ZN8Material28UpdateHashesOnPropertyChangeEN9ShaderLab16FastPropertyNameE
Xee:_ArrayReadOnlyList_1_get_Count_m3813449101_gshared
Xce:_Interval_t63637216_marshal_pinvoke
Yu:__ZN11AudioSource12AddToManagerEv
mLf:_ReadOnlyCollection_1_IndexOf_m817393776_gshared
$Uc:_AsyncCallback__ctor_m1986959762
Q9f:__ZN6il2cpp2vm5Image13ClassFromNameEPK11Il2CppImagePKcS6_
hih:dynCall_vdddddd
dCb:__Z14resize_trimmedINSt3__16vectorI11ColorRGBA3213stl_allocatorIS2_L18MemLabelIdentifier1ELi16EEEEEvRT_j
_ab:__ZL32MarkLevelGameManagerDependenciesR27GarbageCollectorThreadState
A3a:__ZNK13GfxDeviceGLES26HasActiveRandomWriteTargetEv
e6d:_ServicePointManager__cctor_m1197717107
Z5a:_gray_rgb_convert
Rng:__ZN16VirtFuncInvoker1IP20Delegate_t3660574010S1_E6InvokeEjPvS1_
n8g:__ZNSt3__112basic_stringIwNS_11char_traitsIwEENS_9allocatorIwEEE6__initEjw
Anb:__ZN14dense_hash_mapINSt3__112basic_stringIcNS0_11char_traitsIcEE13stl_allocatorIcL18MemLabelIdentifier54ELi16EEEEP20ArchiveStorageReader11djb2_hash_tIS7_ENS0_8equal_toIS7_EES4_INS0_4pairIKS7_S9_EELS5_54ELi16EEE15set_deleted_keyERSF_
S2e:_GUISkin_set_horizontalSliderThumb_m3534756102
Uzc:__ZN20UnityWebRequestProtoI19TransportJavaScript16AtomicRefCounter14RedirectHelper14ResponseHelper15DownloadHandler13UploadHandler12HeaderHelper14AsyncOperationE5BeginEv
lmh:_glGetActiveUniformsiv__wrapper
ZBf:__Z59RuntimeInvoker_Int32_t2847414787_KeyValuePair_2_t3312956448PK10MethodInfoPvPS2_
KRd:_BigInteger_BitCount_m3880753871
G4c:_Convert_ToInt32_m330941057
Isg:__ZN21InterfaceFuncInvoker0I39CustomAttributeNamedArgument_t318735129E6InvokeEjP11Il2CppClassPv
L3b:__Z41GUIUtility_Get_Custom_PropKeyboardControlv
YQb:__ZN4PPtrI6SpriteE8TransferI14SafeBinaryReadEEvRT_
$8c:_DBNull_System_IConvertible_ToChar_m1429054760
Yog:__ZN16VirtFuncInvoker7IP22MethodBase_t3461000640iP28MethodBaseU5BU5D_t1767252801PP22ObjectU5BU5D_t11523773P35ParameterModifierU5BU5D_t3379147067P23CultureInfo_t3603717042P24StringU5BU5D_t2956870243PP12Il2CppObjectE6InvokeEjPviS3_S6_S8_SA_SC_SF_
uXg:__ZL60AnimationPlayable_t3361204779_CustomAttributesCacheGeneratorP21CustomAttributesCache
Krf:__Z45RuntimeInvoker_Il2CppObject_IntPtr_t_IntPtr_tPK10MethodInfoPvPS2_
D8d:_X509Chain_Build_m417178512
dPe:_UTF7Encoding_GetByteCount_m3034247550
yXd:_ClientRecordProtocol_createServerHandshakeMessage_m2388742696
fof:__Z81RuntimeInvoker_Il2CppObject_Int64_t2847414882_Int64_t2847414882_Int64_t2847414882PK10MethodInfoPvPS2_
Lrf:__Z58RuntimeInvoker_Il2CppObject_RuntimeFieldHandle_t3184214143PK10MethodInfoPvPS2_
Fcc:__ZN12b2WheelJoint24SolveVelocityConstraintsERK12b2SolverData
MPg:__ZL69Math_t2778998461_CustomAttributesCacheGenerator_Math_Sqrt_m1131084014P21CustomAttributesCache
cqa:__ZN9Texture2D23VirtualRedirectTransferER18StreamedBinaryReadILb0EE
MXd:_TlsServerHello__ctor_m567935000
Crc:_get_sfnt_table
DZg:__ZL92GUIStyle_t1006925219_CustomAttributesCacheGenerator_GUIStyle_Internal_CalcHeight_m3448302985P21CustomAttributesCache
WM:_unity_z_tr_stored_block
e7:__ZN9ShaderLab16ParserProperties18AddTexturePropertyEPKcS2_RKNSt3__16vectorINS3_12basic_stringIcNS3_11char_traitsIcEENS3_9allocatorIcEEEENS8_ISA_EEEERKNS_21ParserTexturePropertyE
V9d:_X509ChainElement_get_Certificate_m2984441897
J8a:__ZL22ScheduleSceneNodesJobsP25ScheduleSceneNodesJobDataj
MKe:_SerializationEntry__ctor_m2883191396
pl:_emscripten_set_canvas_size
jod:_ContentInfo__ctor_m1175820379
lVg:__ZL81Input_t1593691127_CustomAttributesCacheGenerator_Input_GetMouseButton_m4080958081P21CustomAttributesCache
cfa:__ZN9GfxDevice20BeginDynamicBatchingERK14ChannelAssignsjjP17VertexDeclarationjj16GfxPrimitiveType
f8:__ZN20DynamicHeapAllocatorI17LowLevelAllocatorE8AllocateEji
lMf:_ReadOnlyCollection_1_GetEnumerator_m2956392153_gshared
hab:__ZN20DynamicPropertySheet15SetVectorQueuedERKN9ShaderLab16FastPropertyNameERK8Vector4fN19ShaderPropertySheet8SetFlagsE
Cyg:__ZL65String_t_CustomAttributesCacheGenerator_String_Equals_m3763831415P21CustomAttributesCache
tQf:_X509Stores_Open_m3798926259
Ovf:__Z122RuntimeInvoker_Il2CppObject_Int16_t2847414729_Il2CppObject_BooleanU26_t3343357035_BooleanU26_t3343357035_SByte_t2855346064PK10MethodInfoPvPS2_
vgg:_GC_push_conditional
eOg:__ZL78Convert_t1097883944_CustomAttributesCacheGenerator_Convert_ToSByte_m1290929502P21CustomAttributesCache
Zaa:__ZN17GenericDynamicVBO10AllocateVBEjR21DynamicVBOChunkHandle
lte:_AssemblyName_set_Version_m1560254941
Sue:_ConstructorBuilder_get_TypeBuilder_m1751255827
Ll:_glMapBufferRange
iqa:__ZN9Texture2D8TransferI18StreamedBinaryReadILb0EEEEvRT_
aWa:__Z31Input_CUSTOM_GetMouseButtonDowni
oZc:_ArrayListWrapper_CopyTo_m127332079
yhf:_CaptureAssertion_IsComplex_m987845008
n3e:_GUISkin_get_customStyles_m816658303
ysa:__ZNK9Transform16GetLocalPositionEv
NBa:__ZN13LoadOperation19IntegrateTimeSlicedEi
Jnf:__Z36RuntimeInvoker_Il2CppObject_IntPtr_tPK10MethodInfoPvPS2_
M3a:__ZN13GfxDeviceGLES22DispatchComputeProgramE12ObjectHandleI18ComputeProgram_TagPvE15ComputeBufferIDj
GNg:__ZL77Convert_t1097883944_CustomAttributesCacheGenerator_Convert_ToChar_m3357624223P21CustomAttributesCache
pid:_SortKeyBuffer_AppendKana_m1941661717
ude:_GenericGenerator_1_ToString_m2803692999_gshared
U1:__Z17TransformAABBSlowRK4AABBRK10Matrix4x4fRS_
zPb:__ZN15SerializeTraitsI13dynamic_arrayI7Hash128Lj8EEE19ResizeSTLStyleArrayERS2_i18MemLabelIdentifier
bdg:__ZN6il2cpp2os6Thread11SetPriorityENS0_14ThreadPriorityE
am:_ftruncate
L7c:_DateTime__ParseAmPm_m618382890
wmc:_cf2_stack_pushInt
xmd:_KeyPairPersistence_get_CanChange_m3754956646
kSg:__ZL72PKCS12_t2950126080_CustomAttributesCacheGenerator_U3CU3Ef__switchU24mapCP21CustomAttributesCache
Crh:b89
Brh:b88
rrh:b81
v1c:_SortedList_get_Item_m3913687818
trh:b83
Mkb:__ZN18ResourceImageGroup7CleanupEv
vrh:b85
urh:b84
Arh:b87
zrh:b86
HNc:_String_FindNotInTable_m3192184121
U9e:_ChannelData_get_ClientProviders_m764839637
aGe:_SoapFieldAttribute_get_XmlElementName_m3340405532
y9:__ZN15DirectorManager18FinishConstructionEP15ScriptingObjectR9HPlayable
H9:__ZN8Playable19SetOutputConnectionEPS_i
vm:_glDeleteShader
AUb:__ZN6prcoreL17RemapGenericFloatI15TexFormatRGHalf16TexFormatRGFloatEEvPKNS_9InnerInfoE
XZg:__ZL122UnityWebRequest_t1582871641_CustomAttributesCacheGenerator_UnityWebRequest_get_disposeDownloadHandlerOnDispose_m2347066627P21CustomAttributesCache
Aed:_CompareInfo_internal_compare_managed_m564523597
SXf:_SymmetricTransform_FinalEncrypt_m975601255
Jcf:_ArgInfo__ctor_m2209263080
Jjd:_Kernel_Compare_m2163492354
E3:__ZN19RuntimeSceneManager9LoadSceneERK8UnityStrS2_S2_RK9UnityGUIDiNS_11LoadingModeE
Fia:__Z27scripting_add_internal_callPKcPKv
Dyd:_Array_InternalArray__set_Item_TisCustomAttributeTypedArgument_t560415562_m1964497645_gshared
bUc:_ArrayTypeMismatchException__ctor_m869946971
txa:__Z17GetPlayerSettingsv
Odh:__ZNKSt3__15ctypeIwE11do_scan_notEtPKwS3_
q1c:_Enumerator__ctor_m3335019990
Zab:__ZNSt3__112basic_stringIcNS_11char_traitsIcEE13stl_allocatorIcL18MemLabelIdentifier66ELi16EEE6appendEPKc
oSf:_UnityWebRequest_get_redirectLimit_m800465451
OPd:_NumberFormatter_NumberToString_m2024857538
zsd:_Array_InternalArray__ICollection_Contains_TisMonoResource_t1936012254_m2664818321_gshared
Wmd:_PKCS1_Compare_m2391456096
njg:__ZN6il2cpp2vm9Parameter30GetDefaultParameterValueObjectEPK10MethodInfoPK13ParameterInfoPb
fWd:_CipherSuite_get_ExpandedKeyMaterialSize_m2373093544
fu:__ZN12AudioManager13RegisterClassEv
e_e:_Component_SendMessageUpwards_m2473191947
OVb:__ZN14qsort_internal31_FindAndMovePivotToLastPositionIP17RODataReplacementi19ROSorterReplacementEEvT_S4_T0_T1_
jse:_AmbiguousMatchException__ctor_m68259523
Xdb:__ZNSt3__16vectorIN20GpuProgramParameters16TextureParameterENS_9allocatorIS2_EEE21__push_back_slow_pathIKS2_EEvRT_
E9c:_Decimal_System_IConvertible_ToDecimal_m1811804854
GG:__ZNSt3__16__treeINS_12__value_typeIN19CloudServiceHandler11ServiceTypeEPS2_EENS_19__map_value_compareIS3_S5_NS_4lessIS3_EELb1EEE13stl_allocatorIS5_L18MemLabelIdentifier85ELi16EEE12__find_equalIS5_EERPNS_16__tree_node_baseIPvEENS_21__tree_const_iteratorIS5_PNS_11__tree_nodeIS5_SG_EEiEESJ_RKT_
Snc:_UNITY_tt_face_done_kern
bAg:__ZL69Il2CppArray_CustomAttributesCacheGenerator_Array_get_Rank_m1671008509P21CustomAttributesCache
dob:__ZNK15dense_hashtableINSt3__14pairIKNS0_12basic_stringIcNS0_11char_traitsIcEENS0_9allocatorIcEEEES7_EES7_11djb2_hash_tIS7_EN14dense_hash_mapIS7_S7_SB_NS0_8equal_toIS7_EE13stl_allocatorIS9_L18MemLabelIdentifier54ELi16EEE9SelectKeyESE_SH_E13find_positionERS8_
Ord:_ArgumentException_GetObjectData_m1913895325
c6a:_start_pass_huff_decoder
TRb:__ZN14SafeBinaryRead21TransferSTLStyleArrayI13dynamic_arrayI11ColorRGBA32Lj4EEEEvRT_17TransferMetaFlags
kMd:_Math_Abs_m651703468
_qf:__Z69RuntimeInvoker_Boolean_t211005341_IntPtr_t_MonoIOErrorU26_t4132330282PK10MethodInfoPvPS2_
dIc:_SHA1Managed_HashFinal_m2842242055
c2e:_Mathf_Min_m2322067385
GO:__ZN6Object24SetCachedScriptingObjectEP15ScriptingObject
FRb:__ZNSt3__16vectorI7SubMesh13stl_allocatorIS1_L18MemLabelIdentifier16ELi16EEE6assignINS_11__wrap_iterIPS1_EEEENS_9enable_ifIXaasr21__is_forward_iteratorIT_EE5valuesr16is_constructibleIS1_NS_15iterator_traitsISB_E9referenceEEE5valueEvE4typeESB_SB_
RCa:__ZN16ScriptingManager23ClassIDToScriptingClassEi
Bae:_X509ChainStatus_t1122151684_marshal_pinvoke
Cz:__ZN10ObjectPoolIN4FMOD3DSPENS0_4DSPIEE5CheckEv
lDb:__ZN18StreamedBinaryReadILb1EE21TransferSTLStyleArrayINSt3__16vectorIy13stl_allocatorIyL18MemLabelIdentifier1ELi16EEEEEEvRT_17TransferMetaFlags
Lbb:__ZN9ShaderLab17ParserShaderStateC2ERKS0_
Lye:_MethodBuilder_GetBaseDefinition_m3625992879
Sxf:__Z111RuntimeInvoker_Void_t2779279689_Il2CppObject_Int32_t2847414787_Int32_t2847414787_Il2CppObject_SByte_t2855346064PK10MethodInfoPvPS2_
jFa:__Z20GetPersistentManagerv
Doc:_UNITY_TT_Set_Var_Design
cZa:__ZN21SystemInfoStringCache16StaticInitializeEPv
scg:__ZN6il2cpp2gc16GarbageCollector23MakeDescriptorForObjectEPji
FAa:__ZNK13MonoBehaviour7GetNameEv
KA:__ZN4FMOD6Reverb15set3DAttributesEPK11FMOD_VECTORff
wCa:__ZN19ScriptingInvocation28AdjustArgumentsToMatchMethodEv
EEe:_TypeFilter_BeginInvoke_m1184564418
Fqd:_SmallXmlParser_Cleanup_m614519621
JB:__Z15_CheckFMODError11FMOD_RESULTPKciS1_
TYc:_ArrayList_ReadOnly_m1881161056
Tbb:__ZNSt3__16vectorIPN9ShaderLab16ParserSubProgramENS_9allocatorIS3_EEE21__push_back_slow_pathIKS3_EEvRT_
t6f:__ZN6il2cpp2vm4Type19GetGenericParameterEPK10Il2CppType
D5b:__ZN10Collider2D24GetColliderMaterialStateERfS0_
xRe:_Scheduler_Change_m3602739018
avd:_Array_InternalArray__IndexOf_TisKeyValuePair_2_t3312956448_m4036682852_gshared
dge:_InternalEnumerator_1__ctor_m2342462508_gshared
tSf:_UnityWebRequest_InternalSetRequestHeader_m2365080026
KL:_jpeg_alloc_huff_table
kOd:_MonoType_get_Module_m3779621798
REg:__ZL117MethodBuilder_t765486855_CustomAttributesCacheGenerator_MethodBuilder_MakeGenericMethod_m3048833464____typeArguments0P21CustomAttributesCache
h8b:__ZN10Effector2D25CheckEffectorColliderMaskEP10Collider2DS1_
TPa:__ZN20LocalFileSystemPosix10ToAbsoluteEPKc
ZCe:_MonoMethod_get_ReflectedType_m64213147
$K:_UNITY_png_default_flush
Jqb:__ZN9BehaviourD0Ev
YWc:_Byte_Parse_m3498070023
D5a:_UNITY_png_do_expand
nd:_getcwd
OCd:_Guid_NewGuid_m3560729310
K7c:_DateTime__ParseString_m3760446054
P8:__ZN25ThreadsafeLinearAllocatorD2Ev
e1g:__ZNSt3__112__hash_tableINS_17__hash_value_typeINS_4pairIPKcS4_EEiEENS_22__unordered_map_hasherIS5_S6_24NamespaceAndNamePairHashLb1EEENS_21__unordered_map_equalIS5_S6_26NamespaceAndNamePairEqualsLb1EEENS_9allocatorIS6_EEE16__construct_nodeIJNS2_IS5_iEEEEENS_10unique_ptrINS_11__hash_nodeIS6_PvEENS_22__hash_node_destructorINSD_ISL_EEEEEEDpOT_
yda:__ZN21BillboardBatchManager16StaticInitializeEPv
dgc:__ZN15dense_hashtableINSt3__14pairIKNS1_IPK10Collider2DS4_EE11Collision2DEES5_NS2_23ColliderPairHashFunctorEN14dense_hash_mapIS5_S7_S9_NS0_8equal_toIS5_EE13stl_allocatorIS8_L18MemLabelIdentifier65ELi16EEE9SelectKeyESC_SF_E12expand_arrayEjN21dense_hash_map_traits17integral_constantIbLb0EEE
mI:__ZNSt3__115basic_stringbufIcNS_11char_traitsIcEENS_9allocatorIcEEE7seekposENS_4fposI11__mbstate_tEEj
XZb:__ZN12_GLOBAL__N_138ArchiveRedirectFileSystemStaticDestroyEPv
ugf:_Regex_IsMatch_m2967892253
CUg:__ZL86Camera_t3533968274_CustomAttributesCacheGenerator_Camera_get_targetTexture_m1468336738P21CustomAttributesCache
rne:_Transform_1__ctor_m1991062983_gshared
RPf:_X509Crl_VerifySignature_m1550167496
YPc:_DecoderFallback__ctor_m811029552
IPg:__ZL78LoaderOptimization_t2811099349_CustomAttributesCacheGenerator_DisallowBindingsP21CustomAttributesCache
Fz:__ZN10ObjectPoolIN4FMOD6ReverbENS0_7ReverbIEE8ValidateEPS1_
EBe:_Module_filter_by_type_name_ignore_case_m825562172
D3:__ZN19RuntimeSceneManagerC2Ev
EVd:_CertificateSelectionCallback_BeginInvoke_m1304521025
wMc:_Single_System_IConvertible_ToInt32_m4151896117
b7a:__ZN11AssetBundle8TransferI19StreamedBinaryWriteILb0EEEEvRT_
Lcb:__ZNSt3__16vectorI7SubMesh13stl_allocatorIS1_L18MemLabelIdentifier16ELi16EEE21__push_back_slow_pathIKS1_EEvRT_
arg:__ZN18VirtActionInvoker1IP25ObjectManager_t2776331335E6InvokeEjPvS1_
$id:_PreviousInfo_t3341653093_marshal_pinvoke_cleanup
uLa:__ZN17ArchiveFileSystem10AddStorageEP20ArchiveStorageReader
Cqg:__ZN16VirtFuncInvoker0IP27UnmanagedMarshal_t446138789E6InvokeEjPv
fha:__ZN9Scripting30IsSystemCollectionsGenericListEP14ScriptingClass
$Fg:__ZL63MethodImplAttributes_t3301691718_CustomAttributesCacheGeneratorP21CustomAttributesCache
ybc:__ZNK12b2MotorJoint16GetReactionForceEf
i2f:__ZN6il2cpp2vm13MetadataCache37GetParameterDefaultValueDataFromIndexEi
_wd:_Array_InternalArray__ICollection_CopyTo_TisLabelData_t1395746974_m3301786767_gshared
DZb:_decode_mcu_DC_refine
fpf:__Z194RuntimeInvoker_Int32_t2847414787_Il2CppObject_Int32_t2847414787_Int32_t2847414787_Il2CppObject_Int32_t2847414787_Int32_t2847414787_BooleanU26_t3343357035_BooleanU26_t3343357035_SByte_t2855346064PK10MethodInfoPvPS2_
r0f:__ZN6il2cpp2vm5Class15GetEnumBaseTypeEP11Il2CppClass
uJg:__ZL53IFormatter_t2688329594_CustomAttributesCacheGeneratorP21CustomAttributesCache
qod:_EncryptedData__ctor_m3201940140
xzg:__ZL70IntPtr_t_CustomAttributesCacheGenerator_IntPtr_op_Explicit_m2322222010P21CustomAttributesCache
AD:__ZNK8WWWAudio14GetPartialSizeEv
nbh:__ZNKSt3__18time_getIwNS_19istreambuf_iteratorIwNS_11char_traitsIwEEEEE13do_date_orderEv
S7a:__ZN14SafeBinaryRead21TransferSTLStyleArrayI13dynamic_arrayINSt3__14pairIi12ImmediatePtrIN5Unity9ComponentEEEELj4EEEEvRT_17TransferMetaFlags
o4c:_Convert_ToInt16_m3986893763
H6d:_WebProxy_get_UseDefaultCredentials_m2666418573
tJe:_MessageFormatter_ReadMethodResponse_m1841037205
_nh:_glGetActiveUniform__wrapper
e5g:_sscanf
ejd:_SortKeyBuffer_GetOptimizedLength_m4238719184
YY:__ZN29RenderNodeQueuePrepareContextD2Ev
mcd:_EntryPointNotFoundException__ctor_m3139612880
bJd:_NullStream_get_CanRead_m2080377659
pve:_ConstructorBuilder_get_Module_m779973538
G4e:_GUIStyle_Internal_GetCursorFlashOffset_m3106442082
iUc:_Array_LastIndexOf_m673447137
A0a:__ZN18GfxFramebufferGLES18GetFramebufferNameERK20GfxRenderTargetSetup
$zf:__Z45RuntimeInvoker_Il2CppObject_Single_t958209021PK10MethodInfoPvPS2_
v9f:__ZN6il2cpp6icalls8mscorlib6System2IO6MonoIO11GetFileTypeE12Il2CppIntPtrPi
nlh:_glGetFramebufferAttachmentParameteriv__wrapper
Mbh:__ZNKSt3__18time_putIcNS_19ostreambuf_iteratorIcNS_11char_traitsIcEEEEE6do_putES4_RNS_8ios_baseEcPK2tmcc
tzf:__Z83RuntimeInvoker_Il2CppObject_Il2CppObject_Vector3_t3525329789_Quaternion_t1891715979PK10MethodInfoPvPS2_
HRe:_TimerCallback__ctor_m1834223461
Dof:__Z48RuntimeInvoker_TypeCode_t2164429820_Il2CppObjectPK10MethodInfoPvPS2_
vvd:_Array_InternalArray__IndexOf_TisTypeTag_t1738289281_m887407724_gshared
tLd:_TextWriter_Flush_m35082347
zYg:__ZL84GUIStyleState_t47287592_CustomAttributesCacheGenerator_GUIStyleState_Init_m872813398P21CustomAttributesCache
iuc:_Horizontal_Sweep_Init
Nnf:__Z41RuntimeInvoker_UInt32_t985925326_IntPtr_tPK10MethodInfoPvPS2_
fua:__Z19GetActiveColorSpacev
Rnc:_UNITY_tt_face_load_kern
t1d:_SslStreamBase_get_HashAlgorithm_m3705882325
mxa:__Z32AddPathRemapsForBuiltinResourcesRKNSt3__112basic_stringIcNS_11char_traitsIcEENS_9allocatorIcEEEE
MLe:_SByte_System_IConvertible_ToDateTime_m3199045182
JSa:__Z6StrCmpPKcS0_
GOf:_X509Certificate_get_Hash_m2925829113
j1d:_InternalAsyncResult_SetComplete_m1352916269
xga:__Z21CheckGpuProgramUsable20ShaderGpuProgramType
N5b:__ZN13BoxCollider2D23VirtualRedirectTransferER13ProxyTransfer
Myd:_Array_InternalArray__set_Item_TisSByte_t2855346064_m41698097_gshared
d$:__ZN13BatchRenderer5FlushEv
r$d:_RecordProtocol_decryptRecordFragment_m3106472171
a6g:__ZNKSt8bad_cast4whatEv
Cic:__ZN20TextRenderingPrivate19NativeTextGenerator5SetupEv
f_:__ZNK15SharedLightData24GetFinalShadowResolutionEv
Ywf:__Z44RuntimeInvoker_X509RevocationFlag_t771995623PK10MethodInfoPvPS2_
VNb:__ZN12AspectRatios8TransferI18StreamedBinaryReadILb0EEEEvRT_
UQ:__ZN10GameObject14CopyPropertiesERS_
d3b:__Z44Register_UnityEngine_GUIStyle_get_fixedWidthv
OPc:_ASCIIEncoding_GetString_m3750474735
jLe:_RuntimeArgumentHandle_t3817272498_marshal_pinvoke_cleanup
Gyc:__ZN11UnityEngine7Connect15DeviceInfoEvent17SetAppInstallModeERK8UnityStr
kub:__ZNK13ScreenManager12IsFullScreenEv
c7g:_rand
Rlh:_emscripten_glFramebufferRenderbuffer__wrapper
SUa:__Z60Register_UnityEngine_AsyncOperation_set_allowSceneActivationv
KVg:__ZL101Object_t3878351788_CustomAttributesCacheGenerator_Object_FindObjectsOfTypeIncludingAssets_m1276784656P21CustomAttributesCache
L5f:__ZN6il2cpp2os4File10DeleteFileERKNSt3__112basic_stringIcNS2_11char_traitsIcEENS2_9allocatorIcEEEEPi
j2:__Z22PrepareOptimizedPlanesPK5PlaneiPKN4math7_float4E
ASa:__ZN17UniqueIDGenerator15CreatePureIndexEv
tq:__ZN11UnityEngine9Animation28GenericAnimationBindingCache15DidReloadDomainEv
spg:__ZN16VirtFuncInvoker2IP12Il2CppObjectP25AsyncCallback_t1363551830S1_E6InvokeEjPvS3_S1_
KHd:_FileStream_BeginWrite_m2223977498
YGg:__ZL55GCHandleType_t1597784416_CustomAttributesCacheGeneratorP21CustomAttributesCache
LXb:__ZNSt3__16vectorI4PPtrI23ShaderVariantCollectionE13stl_allocatorIS3_L18MemLabelIdentifier52ELi16EEE6assignINS_11__wrap_iterIPS3_EEEENS_9enable_ifIXaasr21__is_forward_iteratorIT_EE5valuesr16is_constructibleIS3_NS_15iterator_traitsISD_E9referenceEEE5valueEvE4typeESD_SD_
ykh:b32
Ibc:__ZNK12b2MouseJoint17GetReactionTorqueEf
i7f:__ZN6il2cpp6icalls8mscorlib6System9Threading6Thread22CurrentThread_internalEv
VSb:__ZN6prcoreL29inner_stretch_rgb565_bilinearEPKNS_9InnerInfoE
j4b:__Z14GUIClipTextureP9Texture2DPhiiii
azf:__Z69RuntimeInvoker_Boolean_t211005341_Single_t958209021_Single_t958209021PK10MethodInfoPvPS2_
aMb:__Z16Transfer_BuiltinI4AABB19StreamedBinaryWriteILb0EELb1EEvRK29SerializationCommandArgumentsR31RuntimeSerializationCommandInfo
Ura:__ZNK9Transform18TransformDirectionERK8Vector3f
dMa:__ZNK17ArchiveFileSystem12GetAssetGUIDERK13FileEntryData
Iqh:_emscripten_glClearStencil__wrapper
Hb:invoke_viiff
vfh:__ZNKSt3__17num_getIcNS_19istreambuf_iteratorIcNS_11char_traitsIcEEEEE15__do_get_signedIlEES4_S4_S4_RNS_8ios_baseERjRT_
$Oa:__ZN24RingBufferMemoryFileData9SetLengthEy
Pjh:_glTexSubImage3D__wrapper
haf:_CrossAppDomainChannel__cctor_m1329220625
jpg:__ZN16VirtFuncInvoker1IP28ValidationResult_t2397874734P37X509CertificateCollection_t3336811651E6InvokeEjPvS3_
jwa:__Z21WriteImageAsyncThreadPv
B_b:__ZL16GetInterfaceImpl18UnityInterfaceGUID
JBe:_MonoMethodInfo_GetParametersInfo_m1882458608
aRg:__ZL128ServicePointManager_t3601037980_CustomAttributesCacheGenerator_ServicePointManager_t3601037980____CertificatePolicy_PropertyInfoP21CustomAttributesCache
rYa:__ZN13EmscriptenWWW7GetSizeEv
Ydg:__ZN6il2cpp6icalls8mscorlib6System15MonoCustomAttrs27GetCustomAttributesInternalEP12Il2CppObjectP20Il2CppReflectionTypeb
qFe:_MonoMethodMessage_get_Uri_m2730617429
OGd:_File_OpenText_m396847893
uBa:__ZN14PreloadManager35WaitForAllAsyncOperationsToCompleteEv
Tyd:_Array_InternalArray__set_Item_TisUInt64_t985925421_m451507820_gshared
Cxf:__Z51RuntimeInvoker_Interval_t63637216_Int32_t2847414787PK10MethodInfoPvPS2_
xnd:_RSAManaged_Finalize_m570970668
FC:__ZL31InitializeAudioScriptingClassesv
FRf:_UnityWebRequest_Post_m1323437117
dab:__Z14SortGUIByDepthP10GUIElementS0_
li:_glBindSampler
L7a:__ZNSt3__16__treeINS_12__value_typeINS_12basic_stringIcNS_11char_traitsIcEENS_9allocatorIcEEEEiEENS_19__map_value_compareIS7_S8_NS_4lessIS7_EELb1EEENS5_IS8_EEE7destroyEPNS_11__tree_nodeIS8_PvEE
Mpf:__Z85RuntimeInvoker_Boolean_t211005341_Il2CppObject_Il2CppObject_Il2CppObject_Il2CppObjectPK10MethodInfoPvPS2_
Fbb:__ZNSt3__16__treeINS_12__value_typeIiiEENS_19__map_value_compareIiS2_NS_4lessIiEELb1EEENS_9allocatorIS2_EEE12__find_equalIS2_EERPNS_16__tree_node_baseIPvEENS_21__tree_const_iteratorIS2_PNS_11__tree_nodeIS2_SC_EEiEESF_RKT_
P6d:_WebRequest_AddPrefix_m2923345701
hjh:dynCall_ii
caf:_ChannelServices_RegisterChannel_m1343018521
Kfa:__ZNK9GfxDevice14GetWorldMatrixEv
Hoe:_ValueCollection_System_Collections_Generic_ICollectionU3CTValueU3E_Remove_m3416097520_gshared
zZd:_TlsClientCertificateVerify_ProcessAsSsl3_m1668289134
Rw:__ZN11SoundHandle13CreateChannelEb
PPb:__ZN14SafeBinaryRead21TransferSTLStyleArrayI13dynamic_arrayI12LightmapDataLj4EEEEvRT_17TransferMetaFlags
Deh:__ZNKSt3__17codecvtIDsc11__mbstate_tE16do_always_noconvEv
pwb:__ZN21AssetBundleFileSystem11CreateAsDirER13FileEntryData
o$d:_ReceiveRecordAsyncResult_get_Record_m871815161
oBc:__ZNK22DownloadHandlerTexture11GetProgressEv
rHg:__ZL55_AssemblyName_t660875634_CustomAttributesCacheGeneratorP21CustomAttributesCache
TRc:_Latin1Encoding_GetChars_m2290403632
Gcc:__ZN12b2WheelJoint24SolvePositionConstraintsERK12b2SolverData
Qg:_emscripten_exit_fullscreen
HYd:_Context_set_SupportedCiphers_m2658500263
GCe:_MonoField_SetValueInternal_m1841098555
g7d:_AsnEncodedData_SubjectKeyIdentifierExtension_m3725367926
Axc:__ZThn464_N18UnityConnectClient18OnAdsIdRequestDoneERK8UnityStrbS2_
Jcg:__ZN6il2cpp6icalls8mscorlib6System6String19InternalAllocateStrEi
aQa:__ZN20LocalFileSystemPosix8SetFlagsER13FileEntryDatajj
E1e:_GUIStyle_get_fixedHeight_m2441634427
US:__ZN12BaseRenderer25FlattenSharedMaterialDataILb0EEEbRS_R22PerThreadPageAllocatorRN15RenderNodeQueue4NodeE
BV:__Z15GetFlareManagerv
t1:__ZN9Behaviour8TransferI18StreamedBinaryReadILb0EEEEvRT_
sQf:_X509Stores_get_TrustedRoot_m4006515680
qNf:_NetscapeCertTypeExtension__ctor_m3785381751
T_g:__ZL68DisallowMultipleComponent_t3647875775_CustomAttributesCacheGeneratorP21CustomAttributesCache
qE:__ZN19CloudServiceHandler10QueueEventEPN11UnityEngine15CloudWebService14CloudEventInfoE
y6g:___cxa_is_pointer_type
bS:__ZN17MessageIdentifier13StaticDestroyEPv
ynd:_RSAManaged_GenerateKeyPair_m1527592312
bDa:__ZN9TextAsset13AwakeFromLoadE17AwakeFromLoadMode
$Nd:_MonoType_get_Assembly_m1158787034
CSc:_UnicodeEncoding_GetBytes_m877800521
URa:__ZN10MemoryPoolD2Ev
wFa:__ZN17PersistentManager40GlobalToLocalSerializedFileIndexInternalERK26SerializedObjectIdentifier
jCc:__Z63Register_UnityEngine_Networking_UploadHandler_InternalCreateRawv
g$a:__ZN13TranslateGLES4InitERK12GraphicsCaps16GfxDeviceLevelGL
Sog:__ZN16VirtFuncInvoker0IP12MethodInfo_tE6InvokeEjPv
CVf:_StackTraceUtility_ExtractStackTrace_m235366505
VOa:__ZN24RingBufferMemoryFileDataD0Ev
Pjg:__ZN6il2cpp2os6Memory12AlignedAllocEjj
YBb:__ZNSt3__16vectorI17AnimationCurveTplIfE13stl_allocatorIS2_L18MemLabelIdentifier1ELi16EEE8__appendEj
hJe:_BinaryCommon_SwapBytes_m2472266694
Kjb:__ZL27GetComponentsImplementationILb0ELi0EEbR10GameObjectbRK17CompareParametersRK39GetComponentsImplementation_ReturnValue
Bdc:__ZL30RegisterModuleICalls_Physics2Dv
coh:_emscripten_glGetActiveAttrib__wrapper
nDb:__ZNSt3__16vectorIy13stl_allocatorIyL18MemLabelIdentifier1ELi16EEE6assignINS_11__wrap_iterIPyEEEENS_9enable_ifIXaasr21__is_forward_iteratorIT_EE5valuesr16is_constructibleIyNS_15iterator_traitsISA_E9referenceEEE5valueEvE4typeESA_SA_
omb:__ZL16ReadTypeTreeImplILb0EEbR8TypeTreeRK16TypeTreeIteratorRPKhS6_i
Vyb:__ZNSt3__16vectorI4PPtrI6ShaderENS_9allocatorIS3_EEE8__appendEj
iUa:__Z42Register_UnityEngine_RectOffset_set_bottomv
Jaf:_ConfigHandler_OnProcessingInstruction_m1288993410
X$:__ZN28LightProbeProxyVolumeContext8CopyFromERKS_
PBc:__ZN12HeaderHelper13SetAllHeadersEPKcj
k$:__ZN18DeferredRenderLoop15RenderFinalPassEP13RenderTextureS1_
l_a:__ZN7ApiGLES18DeleteRenderbufferERj
Twb:__ZL23ProgramUniformMatrix4fvPK7ApiGLESjiihPKv
evf:__Z50RuntimeInvoker_UInt32_t985925326_Int64_t2847414882PK10MethodInfoPvPS2_
Ptf:__Z193RuntimeInvoker_Int32_t2847414787_Il2CppObject_Int32_t2847414787_Int32_t2847414787_Int32_t2847414787_Il2CppObject_DecoderFallbackBufferU26_t1882349766_ByteU5BU5DU26_t3506413520_SByte_t2855346064PK10MethodInfoPvPS2_
cle:_Comparer_1__cctor_m695458090_gshared
Di:_emscripten_glCheckFramebufferStatus
XNd:_MonoType_InvokeMember_m397738839
OAb:__Z16Transfer_BuiltinI10Matrix4x4f18StreamedBinaryReadILb1EELb0EEvRK29SerializationCommandArgumentsR31RuntimeSerializationCommandInfo
mtc:_Round_Down_To_Grid
lna:__ZN13RenderTexture7ReleaseEv
F_d:_TlsServerKeyExchange_verifySignature_m61991115
Gga:__ZN22CreateGpuProgramOutput12CreateParamsEv
NZe:_Component_GetComponentInChildren_m680239315
wFe:_ObjRefSurrogate__ctor_m2681375704
e1a:__ZNK14GfxContextGLES13GetDefaultFBOEv
zYf:_DefaultComparer_GetHashCode_m2221600864_gshared
xVf:_SetupCoroutine_InvokeMember_m3691215301
VGd:_FileNotFoundException_GetObjectData_m697609495
rtf:__Z86RuntimeInvoker_UInt64_t985925421_Int64_t2847414882_Int64_t2847414882_Int64_t2847414882PK10MethodInfoPvPS2_
COb:__ZN18StreamedBinaryReadILb1EE21TransferSTLStyleArrayI13dynamic_arrayI12SpriteVertexLj4EEEEvRT_17TransferMetaFlags
l4f:_il2cpp_class_is_enum
k8f:__ZN6il2cpp2vm6Thread49CheckCurrentThreadForInterruptAndThrowIfNecessaryEv
EPc:_ASCIIEncoding_GetBytes_m1102371839
bEa:__ZN13ProxyTransfer10SetVersionEi
sCd:_TextInfo_ToString_m2104789920
uzg:__ZL70IntPtr_t_CustomAttributesCacheGenerator_IntPtr_op_Explicit_m2174167756P21CustomAttributesCache
JLd:_UnexceptionalStreamReader_CheckEOL_m2343953594
axd:_Array_InternalArray__ICollection_CopyTo_TisILTokenInfo_t3723275281_m4260476746_gshared
cj:_emscripten_glVertexAttrib4f
r0c:_Hashtable_CopyToArray_m3683911294
u_b:__ZN13RuntimeStaticINSt3__13mapINS0_12basic_stringIcNS0_11char_traitsIcEENS0_9allocatorIcEEEEPvNS0_4lessIS7_EENS5_INS0_4pairIKS7_S8_EEEEEEE13StaticDestroyES8_
Bhd:_MSCompatUnicodeTable_IsIgnorable_m3234859979
C2e:_GUIStyle_SetDefaultFont_m1041826325
mya:__ZN15ResourceManager23VirtualRedirectTransferER18StreamedBinaryReadILb1EE
bKe:_StreamingContext_get_State_m334223851
_fe:_InternalEnumerator_1_System_Collections_IEnumerator_Reset_m2500949542_gshared
jme:_Enumerator_VerifyCurrent_m2318603684_gshared
tFb:__ZN14SafeBinaryRead21TransferSTLStyleArrayINSt3__16vectorI11GradientNEW13stl_allocatorIS3_L18MemLabelIdentifier1ELi16EEEEEEvRT_17TransferMetaFlags
Fsb:__ZN9GfxDevice18SetGlobalDepthBiasEff
_2f:__ZN6il2cpp6icalls8mscorlib6System8MonoType12get_AssemblyEP20Il2CppReflectionType
cnd:_PKCS1_Encode_v15_m2534638350
CCd:_Guid_CheckArray_m2333985879
rj:_emscripten_glGetPointerv
lba:__ZN4Mesh14ResizeVerticesEjjjRK20VertexChannelsLayoutRK19VertexStreamsLayout
zSd:_BigInteger_op_GreaterThan_m3422164694
Muf:__Z50RuntimeInvoker_SByte_t2855346064_Double_t534516614PK10MethodInfoPvPS2_
Jgd:_U24ArrayTypeU2464_t214874643_marshal_pinvoke
F_a:__ZN7ApiGLES26BindDispatchIndirectBufferEj
aUc:_Array_Copy_m2598616668
yBd:_NumberFormatInfo_get_CurrencyDecimalSeparator_m3291912373
mqf:__Z71RuntimeInvoker_Void_t2779279689_IntPtr_t_Il2CppObject_SByte_t2855346064PK10MethodInfoPvPS2_
jKe:_SerializationCallbacks_GetSerializationCallbacks_m1535695330
nma:__ZN8Renderer23VirtualRedirectTransferER14SafeBinaryRead
Apf:__Z98RuntimeInvoker_Void_t2779279689_Int32_t2847414787_Int32_t2847414787_Il2CppObject_SByte_t2855346064PK10MethodInfoPvPS2_
wDe:_MonoProperty_get_CanRead_m4207249871
Atg:__ZN6il2cpp2vmL15GetBitmapNoInitEP11Il2CppClassPjRjj
Mob:__ZL13MotionHandleriPK27EmscriptenDeviceMotionEventPv
g5g:_MUSL_vfscanf
Dma:__ZN8Renderer10SetVisibleEb
tt:__ZN12AudioManager5ResetEv
dUg:__ZL73ISerializationCallbackReceiver_t3330895336_CustomAttributesCacheGeneratorP21CustomAttributesCache
_0g:__ZNSt3__16__treeINS_12__value_typeIP24Il2CppReflectionAssemblyPvEENS_19__map_value_compareIS3_S5_NS_4lessIS3_EELb1EEENS_9allocatorIS5_EEE16__insert_node_atEPNS_16__tree_node_baseIS4_EERSF_SF_
MUb:__ZN6prcoreL17RemapGenericFloatI17TexFormatRGBAHalf15TexFormatRGHalfEEvPKNS_9InnerInfoE
Vgd:_U24ArrayTypeU2496_t214874738_marshal_pinvoke
TXd:_ClientSessionCache__cctor_m3222200124
pdg:__ZN6il2cpp6icalls8mscorlib6System11Environment20GetWindowsFolderPathEi
ajc:_UNITY_FT_RoundFix
fxe:_FieldBuilder_CreateNotSupportedException_m2418755853
aE:__ZN23CloudWebServicesManager23VirtualRedirectTransferER17RemapPPtrTransfer
c0e:_GenericMixerPlayable_op_Implicit_m2273972689
_gg:_GC_is_heap_ptr
$8g:__ZTv0_n12_NSt3__113basic_ostreamIcNS_11char_traitsIcEEED0Ev
LGb:__Z16Transfer_BuiltinI10Matrix4x4f13ProxyTransferLb0EEvRK29SerializationCommandArgumentsR31RuntimeSerializationCommandInfo
_De:_ParameterInfo_get_IsRetval_m843554164
A9d:_X509ChainElementCollection_Clear_m2780310927
jkc:_UNITY_FT_Outline_New
YGb:__ZN13GUIStyleState8TransferI13ProxyTransferEEvRT_
Uwg:__ZNSt3__113__vector_baseIN6il2cpp2os10ThreadImpl10APCRequestENS_9allocatorIS4_EEED2Ev
LCg:__ZL51BitArray_t2687322878_CustomAttributesCacheGeneratorP21CustomAttributesCache
VAc:__ZN16UploadHandlerRaw13TransmitBytesEPvjj
yMb:__Z19TransferField_ArrayI19StreamedBinaryWriteILb0EE27Converter_SimpleNativeClassI8GUIStyleEEvRK23StaticTransferFieldInfoR31RuntimeSerializationCommandInfoRT0_
_Ag:__ZL66Il2CppArray_CustomAttributesCacheGenerator_Array_CopyTo_m910236790P21CustomAttributesCache
Xba:__ZN12MeshRenderer16UpdateCachedMeshEv
nLc:_SecurityElement_IsValidTag_m3543842271
fub:__ZNK13ScreenManager12GetIsFocusedEv
W4a:__GLOBAL__sub_I_ForwardShaderRenderLoop_cpp
oR:__Z24RegisterClass_GameObjectv
kFe:_MonoMethodMessage_get_Args_m2372385990
MKd:_StringReader_CheckObjectDisposedException_m2098659794
AN:__ZN33AssetBundleLoadFromAsyncOperation21InitializeAssetBundleERKNSt3__112basic_stringIcNS0_11char_traitsIcEENS0_9allocatorIcEEEE
IXc:_Char_GetUnicodeCategory_m494586991
XMf:_UnityAction_1_EndInvoke_m3453237718_gshared
QYe:_Camera_INTERNAL_get_pixelRect_m1853722860
P1f:__ZN6il2cpp2vm13MetadataCache38GetMethodInfoFromMethodDefinitionIndexEi
zHg:__ZL54_MethodBase_t3831744243_CustomAttributesCacheGeneratorP21CustomAttributesCache
tgh:__ZNSt3__16locale5__imp7installINS_9money_putIwNS_19ostreambuf_iteratorIwNS_11char_traitsIwEEEEEEEEvPT_
Nxe:_GenericTypeParameterBuilder_GetElementType_m3868625048
idb:__ZNSt3__16__treeINS_12__value_typeI18VertexChannelsInfo16MeshVertexFormatEENS_19__map_value_compareIS2_S4_NS_4lessIS2_EELb1EEE13stl_allocatorIS4_L18MemLabelIdentifier16ELi16EEE12__find_equalIS4_EERPNS_16__tree_node_baseIPvEENS_21__tree_const_iteratorIS4_PNS_11__tree_nodeIS4_SF_EEiEESI_RKT_
YRd:_BigInteger_Equals_m4043809186
zfb:__ZN16LightmapSettings8TransferI13ProxyTransferEEvRT_
lyg:__ZL48SByte_t2855346064_CustomAttributesCacheGeneratorP21CustomAttributesCache
VDg:__ZL56DirectoryInfo_t3421965634_CustomAttributesCacheGeneratorP21CustomAttributesCache
r8d:_X509Certificate2_get_Thumbprint_m1619061413
N_g:__ZL125DownloadHandler_t3818353675_CustomAttributesCacheGenerator_DownloadHandler_INTERNAL_CALL_InternalCreateAssetBundle_m900957164P21CustomAttributesCache
eTa:__Z40GetTemporaryCachePathApplicationSpecificv
iuf:__Z49RuntimeInvoker_Byte_t2778693821_Single_t958209021PK10MethodInfoPvPS2_
Zea:__ZN9GfxDevice16EndAsyncJobFrameEv
L$d:_RecordProtocol_InternalSendRecordCallback_m396863619
unc:_UNITY_tt_face_load_hhea
Nid:_SimpleCollator_LastIndexOf_m1438809524
B_e:_pinvoke_delegate_wrapper_StateChanged_t1076524291
xsb:__ZN9GfxDevice15GetNextCPUFenceEv
hrf:__Z119RuntimeInvoker_Void_t2779279689_Il2CppObject_Int32_t2847414787_Int32_t2847414787_Il2CppObject_Il2CppObject_Il2CppObjectPK10MethodInfoPvPS2_
ptd:_Array_InternalArray__ICollection_Remove_TisParameterModifier_t500203470_m2639482602_gshared
tf:_emscripten_glShaderBinary
Zo:FUNCTION_TABLE_iidii
fQa:__ZNK20LocalFileSystemPosix6ExistsERK13FileEntryData
yog:__ZN16VirtFuncInvoker4IP12Il2CppObjectiP18Binder_t4180926488P22ObjectU5BU5D_t11523773P23CultureInfo_t3603717042E6InvokeEjPviS3_S5_S7_
Onb:__Z16FlaggedAsSkippedINSt3__112basic_stringIcNS0_11char_traitsIcEENS0_9allocatorIcEEEEEbRK13FileEntryInfoRKT_19FileEnumerationFlag
fQg:__ZL57StringComparer_t4058118931_CustomAttributesCacheGeneratorP21CustomAttributesCache
Zs:__ZN13AudioListener23VirtualRedirectTransferER13ProxyTransfer
MJd:_StreamAsyncResult_SetComplete_m1144351501
Uyc:__ZN11UnityEngine7Connect20BasePersistentValuesC2Ev
Ocb:__ZN4Mesh8TransferI13ProxyTransferEEvRT_
sFc:_MD5CryptoServiceProvider_HashFinal_m430218570
F3f:_il2cpp_set_data_dir
mDe:_MonoMethod_get_IsGenericMethodDefinition_m279322622
SP:__ZN16LevelGameManager23VirtualRedirectTransferER19StreamedBinaryWriteILb0EE
eSb:__Z32TransferEnumWithNameForceIntSizeI14SafeBinaryRead16GfxPrimitiveTypeEvRT_RT0_PKc17TransferMetaFlags
Lzf:__Z71RuntimeInvoker_Il2CppObject_SByte_t2855346064_Il2CppObject_Il2CppObjectPK10MethodInfoPvPS2_
t5d:_IPAddress_get_AddressFamily_m2364322247
AZb:_post_process_1pass
IEa:__ZN18StreamedBinaryReadILb1EE21TransferResourceImageE19ActiveResourceImagePKcR13StreamingInfoPvj
rie:_InternalEnumerator_1_System_Collections_IEnumerator_get_Current_m4263361971_gshared
Ncc:__Z40Rigidbody2D_CUSTOM_INTERNAL_set_velocityP15ScriptingObjectRK13Vector2fIcall
edf:_MethodCall__ctor_m3232041652
Ota:__Z14GetTimeManagerv
t1c:_SortedList_get_IsFixedSize_m296838179
uug:__ZN6il2cpp6icalls8mscorlib6System18CollectTypeMethodsINS_5utils10functional6FilterINSt3__112basic_stringIcNS7_11char_traitsIcEENS7_9allocatorIcEEEENS4_11StringUtils21CaseSensitiveComparerEEEEEvP11Il2CppClassPKSH_jRKT_RNS7_6vectorIPK10MethodInfoNSB_ISR_EEEERA65535_b
zkb:__ZN8Remapper25GetAllLoadedObjectsAtPathEiPNSt3__13setIiNS0_4lessIiEENS0_9allocatorIiEEEE
YXe:_AsyncOperation_InternalDestroy_m838183325
TBf:__Z121RuntimeInvoker_Int32_t2847414787_Il2CppObject_CustomAttributeTypedArgument_t560415562_Int32_t2847414787_Int32_t2847414787PK10MethodInfoPvPS2_
DYc:_ArrayList_InsertRange_m149552657
GPd:_NumberFormatter_IntegerToString_m2916421959
qGd:_Path_Combine_m4122812896
b0f:_GameSetup_plyr_reset_m1248154302
ROa:__ZN25MultiBlocksMemoryFileData9SetLengthEy
Ls:__Z30GetAudioSpatializerDefinitionsR13dynamic_arrayIP29AudioEffectInternalDefinitionLj4EE
DBc:__ZN24DownloadHandlerAudioClipD0Ev
EFg:__ZL90Default_t3209457185_CustomAttributesCacheGenerator_Default_ReorderArgumentArray_m559904859P21CustomAttributesCache
p5b:__ZN10Collider2D13AwakeFromLoadE17AwakeFromLoadMode
QHb:__Z16Transfer_BuiltinIy17RemapPPtrTransferLb0EEvRK29SerializationCommandArgumentsR31RuntimeSerializationCommandInfo
Wpa:__ZNK9Texture2D20GetRuntimeMemorySizeEv
Wm:_emscripten_glUniform2iv
Pdc:__ZZN11Rigidbody2D15InitializeClassEvEN44FunctorImpl_Rigidbody2D_kAnimatorMoveBuiltin4CallEPviR11MessageData
qkc:_UNITY_FT_Outline_Transform
y2g:__ZN6il2cpp2gc9AllocatorINSt3__111__hash_nodeINS2_17__hash_value_typeINS2_4pairIPK11Il2CppImageP11Il2CppClassEEP22Il2CppReflectionModuleEEPvEEE10deallocateESF_j
C0f:__ZN6il2cpp2vm5Class10GetMethodsEP11Il2CppClassPPv
VNd:_MonoType_IsPrimitiveImpl_m472277653
x4g:__ZN13dynamic_arrayIP11Il2CppClassLj4EE7reserveEj
zxb:__ZN15UniformTFMethod13MapBoneBufferEj
W9d:_X509Chain_Process_m940730694
_kf:__Z130RuntimeInvoker_Boolean_t211005341_Int32U26_t2544866037_Il2CppObject_Int32U26_t2544866037_SByte_t2855346064_ExceptionU26_t147620060PK10MethodInfoPvPS2_
pP:__ZN15EditorExtension13RegisterClassEv
cRa:__Z9SetupArgviPPKc
a7c:_DateTime_get_Day_m609985447
b6c:_Convert_ToUInt64_m2276525248
cbb:__ZN13dynamic_arrayIP10UnitySceneLj4EE9push_backERKS1_
hZe:_CameraCallback_BeginInvoke_m3719545510
$cg:__ZN6il2cpp2os6Thread2IdEv
Poh:_glTexParameteri__wrapper
P7a:__ZN12ImmediatePtrI10GameObjectE8TransferI19StreamedBinaryWriteILb0EEEEvRT_
eKa:__ZN12FileAccessor4OpenER15FileSystemEntry14FilePermission16FileAutoBehavior
Emb:__ZN4PPtrI6ShaderE8TransferI18StreamedBinaryReadILb0EEEEvRT_
MVc:_Convert_ToDecimal_m841898000
pAe:_TypeBuilder_get_IsGenericTypeDefinition_m582825077
QDg:__ZL89BinaryReader_t2158806251_CustomAttributesCacheGenerator_BinaryReader_ReadSByte_m963271833P21CustomAttributesCache
B6e:_Keyframe__ctor_m2655645489
pMa:__ZN15ArchiveReadFile5WriteEyPKvPy
gjf:_Uri_ParseUri_m3771462925
m_b:__ZN13RuntimeStaticI15ApplicationInfoE13StaticDestroyEPv
CQg:__ZL63AppDomainInitializer_t1372758802_CustomAttributesCacheGeneratorP21CustomAttributesCache
D:tempValue
Wlb:__Z29StdTemplateConversionFunctionIaiEbPvR14SafeBinaryRead
Kfb:__ZN15QualitySettings8TransferI18StreamedBinaryReadILb1EEEEvRT_
sJf:_Collection_1_Contains_m1050871674_gshared
Tha:__Z29scripting_class_from_fullnamePKcS0_S0_
i5b:__ZN10Collider2D23VirtualRedirectTransferER18StreamedBinaryReadILb1EE
AHd:_Stream_BeginRead_m2456608939
F0g:__ZN4utf88internal20is_overlong_sequenceIiEEbjT_
XHf:_List_1_Remove_m1013425979_gshared
Vld:_DSAManaged_GenerateKeyPair_m414103146
ev:__ZN11AudioSource19CreateOpenALRolloffEfff
Ckc:_UNITY_FT_Stream_ReadAt
kEc:__ZNK26DownloadHandlerAssetBundle8GetBytesEv
s0e:_GameObject_get_transform_m1278640159
W_g:__ZL57SetupCoroutine_t1135105352_CustomAttributesCacheGeneratorP21CustomAttributesCache
dJb:__Z46EmitSerializationCommandsForManagedObjectFieldI18StreamedBinaryReadILb0EEEvRK18TransferField_InfoR32SerializationCommandQueueBuilderRP20AllowNameConversions
MXg:__ZL80GUI_t1522956648_CustomAttributesCacheGenerator_GUI_INTERNAL_set_color_m774536016P21CustomAttributesCache
wzd:_Dictionary_2_Do_ICollectionCopyTo_TisKeyValuePair_2_t816448501_m2773943950_gshared
grf:__Z89RuntimeInvoker_Il2CppObject_Il2CppObject_Il2CppObject_SByte_t2855346064_SByte_t2855346064PK10MethodInfoPvPS2_
xdb:__Z26TransformVerticesInnerLoopILb1ELb1ELb1EEvPhRK10Matrix4x4fRK10Matrix3x3fjPKhiiiS8_ii25GfxTransformVerticesFlags
pOd:_MonoType_ToString_m4069763221
fid:_SortKeyBuffer__ctor_m3429486059
_vf:__Z81RuntimeInvoker_Il2CppObject_SByte_t2855346064_SByte_t2855346064_SByte_t2855346064PK10MethodInfoPvPS2_
Mng:__ZN16VirtFuncInvoker2IP19SortKey_t2408679447P8String_tiE6InvokeEjPvS3_i
kfg:_GC_initialize_offsets
D6e:_Keyframe_get_time_m1367974951
_R:__ZN14MessageHandler28MessageIDToMessageIdentifierEi
xig:__ZN6il2cpp2vm10WaitHandle19NewManualResetEventEb
rBf:__Z55RuntimeInvoker_Boolean_t211005341_TableRange_t476453423PK10MethodInfoPvPS2_
AQf:_DownloadHandler_InternalCreateAudioClip_m3659398341
WIe:_FixupRecord__ctor_m118269336
sla:__ZN15QualitySettings13RegisterClassEv
Fo:FUNCTION_TABLE_iiiiiiiiiii
zOb:__Z32TransferEnumWithNameForceIntSizeI14SafeBinaryRead13TextureFormatEvRT_RT0_PKc17TransferMetaFlags
KGc:_RIPEMD160Managed_J_m2045311413
Y9a:__ZL10CleanUpJobP20CullingGroupsJobData
fqf:__Z63RuntimeInvoker_Il2CppObject_Int16_t2847414729_SByte_t2855346064PK10MethodInfoPvPS2_
Ysd:_Array_InternalArray__ICollection_Remove_TisKeyValuePair_2_t1028297519_m925984960_gshared
Cgc:__ZN13Simd4fFactoryIN6detail9FourTupleEEC2Effff
PPf:_X509CrlEntry_get_SerialNumber_m2092313770
GY:__ZN13RenderManager15BatchModeUpdateEv
$L:_jpeg_resync_to_restart
soe:_ValueCollection_System_Collections_Generic_ICollectionU3CTValueU3E_Clear_m3589495022_gshared
Hdb:__ZN14SafeBinaryRead21TransferSTLStyleArrayI13dynamic_arrayI8Vector2fLj4EEEEvRT_17TransferMetaFlags
kqf:__Z80RuntimeInvoker_Void_t2779279689_Int32_t2847414787_Single_t958209021_Il2CppObjectPK10MethodInfoPvPS2_
xFa:__ZN17PersistentManager51InstanceIDToLocalSerializedObjectIdentifierInternalEiR31LocalSerializedObjectIdentifier
MVe:_UInt64_System_IConvertible_ToType_m2439463509
flc:_UNITY_FT_Create_Class_cff_services
Od:_glVertexAttribIPointer
eu:__Z26RegisterClass_AudioManagerv
oKf:_Collection_1_System_Collections_IEnumerable_GetEnumerator_m1044491980_gshared
Rre:_Dictionary_2_make_pair_m2083407400_gshared
msd:_Array_InternalArray__ICollection_Contains_TisDateTime_t339033936_m22041699_gshared
Ejc:_UNITY_ft_glyphslot_alloc_bitmap
SVe:_UInt64_GetHashCode_m4085537544
P1:__Z20DestroyObjectDelayedP6Objectf
KT:__ZN6Camera4CullER11CullResultsb
_Rf:_UnityWebRequest_get_method_m2179159226
_Yd:_Context_GetUnixTime_m545141264
v$b:__ZN12GUIClipState9SetMatrixER10InputEventRK10Matrix4x4f
oeb:__ZN11MonoManager8TransferI18StreamedBinaryReadILb1EEEEvRT_
Wtc:_ft_raster1_render
Nmb:__ZN18StreamedBinaryReadILb1EE19TransferSTLStyleMapINSt3__13mapIN9ShaderLab16FastPropertyNameE10ColorRGBAfNS2_4lessIS5_EENS2_9allocatorINS2_4pairIKS5_S6_EEEEEEEEvRT_17TransferMetaFlags
wvg:__ZNSt3__112basic_stringIcNS_11char_traitsIcEENS_9allocatorIcEEE6assignINS_11__wrap_iterIPKcEEEENS_9enable_ifIXsr21__is_forward_iteratorIT_EE5valueERS5_E4typeESC_SC_
mRg:__ZL68X509Certificate2Collection_t123613238_CustomAttributesCacheGeneratorP21CustomAttributesCache
r4a:__ZN18GfxFramebufferGLES13ReadbackImageER14ImageReferenceiiiiii
J_b:__ZN13RuntimeStaticI11WindManagerE13StaticDestroyEPv
pzc:__ZN23UnityPurchasingSettingsC2ER6Object
vTb:__ZN6prcoreL12RemapGenericI17TexFormatARGB888815TexFormatRGB565EEvPKNS_9InnerInfoE
Sz:__ZN4FMOD7Channel19setReverbPropertiesEPK29FMOD_REVERB_CHANNELPROPERTIES
zAa:__ZN13MonoBehaviour22GetScriptFullClassNameEv
O4f:_il2cpp_object_get_class
Vzd:_Component_GetComponentsInParent_TisIl2CppObject_m1020279422_gshared
Whc:__ZN20TextRenderingPrivate15DynamicFontData21GetFontMetricsForFaceERKNSt3__16vectorI8UnityStr13stl_allocatorIS3_L18MemLabelIdentifier34ELi16EEEEiRKNS2_I4PPtrINS_4FontEES4_ISC_LS5_34ELi16EEEEPfSH_
SSe:_TimeZone_IsDaylightSavingTime_m4018955392
Gj:_emscripten_glGetVertexAttribfv
$ua:__ZN20SphericalHarmonicsL211AddWeightedERKS_f
w5e:_GUIStyle_get_fontStyle_m3314019014
qx:__ZN4FMOD7SystemI19setSoftwareChannelsEi
ZIb:__Z19TransferField_ArrayI17RemapPPtrTransfer27Converter_SimpleNativeClassI8GUIStyleEEvRK23StaticTransferFieldInfoR31RuntimeSerializationCommandInfoRT0_
YZb:__ZL22StaticInitializeShaderPv
x6a:_h2v1_fancy_upsample
i$c:_CollectionBase_GetEnumerator_m661855675
EW:__Z20AddDirectionalLightsPPK5LightjR12ActiveLights
r2a:__ZN13GfxDeviceGLES17CaptureScreenshotEiiiiPh
chh:__ZNSt13runtime_errorC2EPKc
AUa:__Z35Register_UnityEngine_Resources_Loadv
QFb:__Z19TransferField_ArrayI14SafeBinaryRead16Converter_StringEvRK23StaticTransferFieldInfoR31RuntimeSerializationCommandInfoRT0_
Ptg:__ZNSt3__111__tree_nextIPNS_16__tree_node_baseIPvEEEET_S5_
Me:_rename
$gg:_GC_exit_check
Xyc:__ZN11UnityEngine7Connect20BasePersistentValues10SaveValuesERNS_15CloudWebService12JsonDocumentE
nO:__Z20UnlockObjectCreationv
bgc:__ZN15dense_hashtableINSt3__14pairIKNS1_IPK10Collider2DS4_EE11Collision2DEES5_NS2_23ColliderPairHashFunctorEN14dense_hash_mapIS5_S7_S9_NS0_8equal_toIS5_EE13stl_allocatorIS8_L18MemLabelIdentifier65ELi16EEE9SelectKeyESC_SF_E12maybe_shrinkEv
eKc:_X509Certificate_Reset_m4169919017
vbh:__ZNKSt3__18time_getIwNS_19istreambuf_iteratorIwNS_11char_traitsIwEEEEE10__get_yearERiRS4_S4_RjRKNS_5ctypeIwEE
Jzb:__ZN14SerializedFile4Type8ReadTypeILb0EEEbibiRPKhS3_
Chd:_MSCompatUnicodeTable_IsIgnorableNonSpacing_m4268593916
CVe:_UInt64_System_IConvertible_ToByte_m3655981823
s0c:_Hashtable_OnDeserialization_m2896861916
TWf:_WWW_Dispose_m2446678367
opc:_UNITY_ft_smooth_renderer_class_pic_free
nSe:_TimeSpan_Compare_m206019349
ff:_emscripten_glStencilOpSeparate
gmf:__Z76RuntimeInvoker_Il2CppObject_Il2CppObject_Int32_t2847414787_Int32_t2847414787PK10MethodInfoPvPS2_
Mld:_CryptoConvert_FromCapiKeyBlob_m3062702575
fJa:__ZN19ShaderPropertySheet18AddTextureFromInfoERKN9ShaderLab16FastPropertyNameEPKNS0_21ParserTexturePropertyE
p_:__ZN15SkyboxGenerator28GetCubemapSkyboxVertexFormatEv
mCe:_MonoEvent_GetCustomAttributes_m1928774740
Eha:__Z36scripting_class_get_method_from_nameP14ScriptingClassPKci
Hbg:__ZN6il2cpp2os10ThreadImpl12QueueUserAPCEPFvPvES2_
wMf:_Converter_2_EndInvoke_m3873471959_gshared
KD:__Z32TransferEnumWithNameForceIntSizeI14SafeBinaryReadN10SampleClip17CompressionFormatEEvRT_RT0_PKc17TransferMetaFlags
Qfh:__ZNSt3__112__asprintf_lEPPcP15__locale_structPKcz
xre:_Dictionary_2_System_Collections_IDictionary_get_Item_m1551250025_gshared
jya:__ZN15ResourceManager23VirtualRedirectTransferER13ProxyTransfer
I5a:_UNITY_png_read_filter_row_up
QD:__ZN23CloudWebServicesManager25RemoveCloudServiceHandlerEP19CloudServiceHandler
Y6:__ZN9ShaderLab16ParserSubProgram6BindCBEPKci
cjc:_UNITY_FT_Hypot
sma:__ZN8RendererC2E12RendererType18MemLabelIdentifier18ObjectCreationMode
f4f:_il2cpp_class_is_abstract
yNb:__ZNSt3__16vectorIN30RuntimeInitializeOnLoadManager9ClassInfoE13stl_allocatorIS2_L18MemLabelIdentifier12ELi16EEE7reserveEj
Gf:_emscripten_glGetError
nEd:_Int32_TryParse_m2457543725
Coe:_ValueCollection_get_Count_m971561266_gshared
nt:__Z14FMOD_FILE_SeekPvjS_
qJg:__ZL57TypeFilterLevel_t612045862_CustomAttributesCacheGeneratorP21CustomAttributesCache
iXg:__ZL53Collision2D_t452810033_CustomAttributesCacheGeneratorP21CustomAttributesCache
eZa:__ZN10systeminfo18GetOperatingSystemEv
OGe:_SerializationInfo_AddValue_m2348540514
gRe:_ThreadInterruptedException__ctor_m3158304585
QYc:_ArrayList_Clone_m3926405785
Fpg:__ZN16VirtFuncInvoker1IP8String_tiE6InvokeEjPvi
DLg:__ZL116SecurityManager_t678461618_CustomAttributesCacheGenerator_SecurityManager_t678461618____SecurityEnabled_PropertyInfoP21CustomAttributesCache
Deb:__Z14resize_trimmedINSt3__16vectorI4PPtrI9Texture2DENS0_9allocatorIS4_EEEEEvRT_j
x6d:_WebHeaderCollection_get_Count_m955643201
fcf:_CrossContextDelegate_Invoke_m3190794928
UFd:_BinaryReader_ReadInt32_m1620214591
nab:__ZL24AssignProjectorQueuesJobP30AssignProjectorQueuesJobHeader
uWd:_CipherSuite_PRF_m4080641496
cog:__ZN16VirtFuncInvoker0IP23CultureInfo_t3603717042E6InvokeEjPv
N5f:__ZN6il2cpp2os4File5CloseEPNS0_10FileHandleEPi
Ulc:_cf2_getStdVW
Oma:__ZN8Renderer17HealSubsetIndicesEv
_id:_PreviousInfo_t3341653093_marshal_pinvoke_back
aNc:_String_System_IConvertible_ToInt16_m3244865612
Eje:_InternalEnumerator_1_Dispose_m1252370038_gshared
Vfe:_InternalEnumerator_1_System_Collections_IEnumerator_get_Current_m3385911154_gshared
NAb:__Z16Transfer_BuiltinI11Quaternionf18StreamedBinaryReadILb1EELb0EEvRK29SerializationCommandArgumentsR31RuntimeSerializationCommandInfo
rRb:__ZN15SerializeTraitsI13dynamic_arrayI13BoneInfluenceLj16EEE19ResizeSTLStyleArrayERS2_i18MemLabelIdentifier
kgg:_GC_check_finalizer_nested
yke:_InternalEnumerator_1_Dispose_m54857389_gshared
NAd:_Array_InternalArray__get_Item_TisKeyframe_t2095052507_m1061522013_gshared
ONe:_DSASignatureDeformatter_VerifySignature_m909896559
mmd:_KeyPairPersistence__ctor_m4074919992
Hea:__Z12SetGfxDeviceP9GfxDevice
Eta:__ZN11TimeManager11GetRealtimeEv
png:__ZN21InterfaceFuncInvoker1IdP12Il2CppObjectE6InvokeEjP11Il2CppClassPvS1_
wgh:__ZNSt3__16locale5__imp7installINS_8time_putIcNS_19ostreambuf_iteratorIcNS_11char_traitsIcEEEEEEEEvPT_
Ogg:_GC_print_block_list
nRd:_U24ArrayTypeU2432_t214874549_marshal_pinvoke
Hs:__ZN29AudioEffectInternalDefinitionC2EP26UnityAudioEffectDefinitionb
qzf:__Z88RuntimeInvoker_Void_t2779279689_Int32_t2847414787_Il2CppObject_Il2CppObject_Il2CppObjectPK10MethodInfoPvPS2_
kfe:_ArrayReadOnlyList_1_set_Item_m3031060371_gshared
Oxe:_GenericTypeParameterBuilder_get_UnderlyingSystemType_m2109324167
eNb:__ZN15SerializeTraitsINSt3__14pairI8UnityStr4PPtrI6ObjectEEEE8TransferI13ProxyTransferEEvRS6_RT_
$M:_stbir_resize
aUg:__ZL79Resources_t1543782994_CustomAttributesCacheGenerator_Resources_Load_m3601699608P21CustomAttributesCache
EDb:__ZNSt3__16vectorIs13stl_allocatorIsL18MemLabelIdentifier1ELi16EEE8__appendEj
FGc:_RIPEMD160Managed_ROL_m3397150607
cNg:__ZL77AppDomain_t1551247802_CustomAttributesCacheGenerator_type_resolve_in_progressP21CustomAttributesCache
aNa:__Z37ReadDirectoryInfo_UnityWebAndUnityRawR12FileAccessorRKN20ArchiveStorageHeader6HeaderERNS1_13DirectoryInfoE
Rhd:_SimpleCollator_Category_m191567536
cvg:__ZNSt3__112__hash_tableINS_17__hash_value_typeINS_4pairIPK9EventInfoP11Il2CppClassEEP21Il2CppReflectionEventEENS_22__unordered_map_hasherIS8_SB_17ReflectionMapHashIS8_ELb1EEENS_21__unordered_map_equalIS8_SB_19ReflectionMapEqualsIS8_ELb1EEEN6il2cpp2gc9AllocatorISB_EEE15__insert_uniqueINS2_IKS8_SA_EEEENS2_INS_15__hash_iteratorIPNS_11__hash_nodeISB_PvEEEEbEEOT_
_Ge:_RealProxy__ctor_m1052917757
L0c:_HashKeys_get_SyncRoot_m3744595786
NXg:__ZL73GUI_t1522956648_CustomAttributesCacheGenerator_GUI_set_changed_m727947722P21CustomAttributesCache
Ond:_SymmetricTransform__ctor_m1475215417
Y8d:_X509Certificate2Enumerator_Reset_m3723252011
Lga:__ZN16GeometryJobTasks20ScheduleGeometryJobsER9GfxDevicePFvP15GeometryJobDataEPK22GeometryJobInstructionjb
gNe:_DESTransform_GetStrongKey_m1123999973
EFa:__ZN17PersistentManager48IntegrateObjectAndUnlockIntegrationMutexInternalEi
NSg:__ZL174U3CGetEnumeratorU3Ec__Iterator6_t490656869_CustomAttributesCacheGenerator_U3CGetEnumeratorU3Ec__Iterator6_System_Collections_Generic_IEnumeratorU3CTU3E_get_Current_m250977229P21CustomAttributesCache
rjf:_Uri_IsPredefinedScheme_m2987522946
Awc:__ZN20UnityConnectSettings23VirtualRedirectTransferER13ProxyTransfer
R9b:__ZN9b2Fixture11SynchronizeEP12b2BroadPhaseRK11b2TransformS4_
Ene:_Transform_1_Invoke_m3707150041_gshared
xh:_glStencilFunc
kY:__ZN13RendererScene15InitializeUmbraEv
q0d:_SslClientStream__ctor_m3070934736
u6d:_WebHeaderCollection_OnDeserialization_m829584441
Xcf:_AsyncResult_SetCompletedSynchronously_m190268221
Jh:___ctype_toupper_loc
are:_Dictionary_2_CopyToCheck_m3759085059_gshared
tnb:__ZNSt3__16vectorINS_4pairIN9ShaderLab16FastPropertyNameE10ColorRGBAfEENS_9allocatorIS5_EEE21__push_back_slow_pathIKS5_EEvRT_
DL:_UNITY_png_write_sCAL_s
j5:__ZN9ShaderLab9IntShader8PostLoadEv
c6c:_Convert_ToUInt64_m1711588135
f2c:_Stack_Pop_m4291786044
eAa:__ZN13MonoBehaviour14StartCoroutineEPKcP15ScriptingObject
bxg:__ZN6il2cpp6icalls8mscorlib6System13GlobalizationL29string_invariant_compare_charEtti
P3d:_NameObjectCollectionBase_GetObjectData_m3614997106
Iy:__ZN4FMOD6SoundI7releaseEv
Pca:__ZN14SpriteRenderer13AwakeFromLoadE17AwakeFromLoadMode
o7c:_DateTime_AddSeconds_m2515640243
FOa:__ZN10MemoryFile9SetLengthEy
Ljf:_Uri_Reduce_m1169795993
gcc:__ZNK15b2RevoluteJoint10GetAnchorBEv
UPb:__ZN14SafeBinaryRead21TransferSTLStyleArrayI13dynamic_arrayI7Hash128Lj8EEEEvRT_17TransferMetaFlags
Xh:_glTexStorage2D
tTc:_Array_get_SyncRoot_m3847217543
z5:__ZNK9ShaderLab10SubProgram14EnsureCompiledEv
Agg:_GC_push_marked
Iae:_X509ExtensionCollection_System_Collections_ICollection_CopyTo_m2862251608
vEd:_Int64_System_IConvertible_ToChar_m2692925168
w0g:__ZNSt3__114__split_bufferIN6il2cpp2os10ThreadImpl10APCRequestERNS_9allocatorIS4_EEED2Ev
Kgc:__ZN13RuntimeStaticINSt3__16vectorIjNS0_9allocatorIjEEEEE13StaticDestroyEPv
Qp:__ZNK16LevelGameManager7GetNameEv
xAg:__ZL66Il2CppArray_CustomAttributesCacheGenerator_Array_Clear_m2499577033P21CustomAttributesCache
Bg:_JS_SystemInfo_HasWebGL
Bxc:__ZN18UnityConnectClient15GetCloudServiceEv
DGf:_List_1_ToArray_m3980858669_gshared
pac:__ZN15b2CircleContact6CreateEP9b2FixtureiS1_iP16b2BlockAllocator
Flh:_emscripten_glBufferData__wrapper
vS:__ZN10TagManager32RegisterDefaultTagsAndLayerMasksEv
uwd:_Array_InternalArray__ICollection_Add_TisMark_t3725932776_m2851224661_gshared
iJe:_BinaryFormatter__ctor_m1913171908
xfb:__ZL11term_sourceP22jpeg_decompress_struct
l7c:_DateTime_Add_m1332740042
RRc:_Latin1Encoding_GetBytes_m2580301874
mVc:_Attribute_IsDefined_m1309172166
JAe:_FieldInfo_GetFieldOffset_m3781007919
g4a:__ZN4gles8InitCapsEP7ApiGLESP12GraphicsCapsR16GfxDeviceLevelGL
sng:__ZN21InterfaceFuncInvoker1IP8String_tP12Il2CppObjectE6InvokeEjP11Il2CppClassPvS3_
C2:__ZN6prcore14BlitImageFloatERK14ImageReferenceRS0_NS0_8BlitModeE
ewb:__ZN21AssetBundleFileSystem4ReadER13FileEntryDatayyPvPy
lsd:_Array_InternalArray__ICollection_Contains_TisSlot_t2579999_m3817928143_gshared
Ii:_glEnable
HQa:__ZNK13Lz4Compressor29CalculateCompressedBufferSizeEj
xwd:_Array_InternalArray__ICollection_Add_TisUInt32_t985925326_m4223557811_gshared
kXf:_MathfInternal_t681132919_marshal_pinvoke_cleanup
fje:_InternalEnumerator_1_System_Collections_IEnumerator_get_Current_m2757425494_gshared
aRa:_LzmaDec_Allocate
xDc:__Z68Register_UnityEngine_Networking_UnityWebRequest_get_downloadProgressv
SPd:_NumberFormatter_FastIntegerToString_m2015857610
Wkf:__Z93RuntimeInvoker_Boolean_t211005341_Int32_t2847414787_SByte_t2855346064_ExceptionU26_t147620060PK10MethodInfoPvPS2_
m7g:_atoi
n7g:_atol
Fig:__ZN6il2cpp6icalls8mscorlib6System10Reflection9FieldInfo25internal_from_handle_typeE12Il2CppIntPtrS5_
rdc:__ZN15dense_hashtableINSt3__14pairIKNS1_IPK10Collider2DS4_EEjEES5_NS2_23ColliderPairHashFunctorEN14dense_hash_mapIS5_jS8_NS0_8equal_toIS5_EE13stl_allocatorIS7_L18MemLabelIdentifier65ELi16EEE9SelectKeyESB_SE_E14squash_deletedEv
Qaf:_ConfigHandler_ReadProvider_m3082284056
Foa:__ZNK6Sprite24GetRenderDataForPlayModeEv
Io:FUNCTION_TABLE_viifi
Jo:FUNCTION_TABLE_viiff
QTa:__Z30RectOffset_Get_Custom_PropLeftP15ScriptingObject
rBg:__ZL37Type_t_CustomAttributesCacheGeneratorP21CustomAttributesCache
uoc:_UNITY_tt_face_free_hdmx
ZKe:_SerializationInfo_GetBoolean_m1462266865
Y5f:__ZN6il2cpp2vm14TypeNameParser5ParseEb
Yse:_AssemblyDelaySignAttribute__ctor_m4221242755
JEc:_HMACSHA384__cctor_m3003459414
Crg:__ZN18VirtActionInvoker1IP20GUIStyle_t1006925219E6InvokeEjPvS1_
Qcb:__ZN4Mesh8TransferI18StreamedBinaryReadILb0EEEEvRT_
zra:__ZNK9Transform13GetWorldScaleEv
VHe:_RemotingServices_GetRemoteObject_m2559997024
BPf:_X509Chain_IsValid_m122831928
V4e:_GUIStyle_CalcSizeWithConstraints_m3659418291
AWf:_Vector3_GetHashCode_m3912867704
Kvc:__ZN18StreamedBinaryReadILb0EE21TransferSTLStyleArrayI10vector_mapINSt3__14pairIttEEfN20TextRenderingPrivate4Font14KerningCompareENS3_9allocatorINS4_IS5_fEEEEEEEvRT_17TransferMetaFlags
Nje:_InternalEnumerator_1__ctor_m1037769859_gshared
jZb:__ZL37stbir__resample_horizontal_downsampleP11stbir__infoiPf
aR:__ZNK5Unity9Component38MarkGameObjectAndComponentDependenciesER27GarbageCollectorThreadState
YK:_UNITY_png_write_data
ZC:__ZNK7Texture21GetShadowSamplingModeEv
pnh:_emscripten_glVertexAttrib2fv__wrapper
BYg:__ZL121GUIStyleState_t47287592_CustomAttributesCacheGenerator_GUIStyleState_GetBackgroundInternalFromDeserialization_m2608056493P21CustomAttributesCache
PJc:_X509Certificate_Equals_m2510910421
eja:__ZN4crnd12symbol_codec32decode_receive_static_data_modelERNS_25static_huffman_data_modelE
fCa:__ZN18ScriptingArguments8AddFloatEf
ptf:__Z67RuntimeInvoker_Void_t2779279689_Int64_t2847414882_Int64_t2847414882PK10MethodInfoPvPS2_
vp:__ZNSt3__16__treeIiNS_4lessIiEENS_9allocatorIiEEE7destroyEPNS_11__tree_nodeIiPvEE
iQg:__ZL58SystemException_t3155420757_CustomAttributesCacheGeneratorP21CustomAttributesCache
uUe:_TypeLoadException__ctor_m2496850307
nBd:_GregorianCalendar_GetDayOfMonth_m4091932953
rkb:__ZN8Remapper21GetOrGenerateMemoryIDERK26SerializedObjectIdentifier
q3c:_DateTime_Parse_m1801557718
hF:__ZN11UnityEngine15CloudWebService14DataDispatcher34OnSessionContainerArchivedAndReadyERNS0_16SessionContainerE
cac:__ZN7b2World11CreateJointEPK10b2JointDef
lYa:__ZN13EmscriptenWWW10OnResponseEPviS0_jPc
aac:__ZN7b2World11DestroyBodyEP6b2Body
vjf:_Uri_get_Authority_m1914393796
PCb:__ZNSt3__16vectorINS_12basic_stringIcNS_11char_traitsIcEE13stl_allocatorIcL18MemLabelIdentifier1ELi16EEEES4_IS7_LS5_1ELi16EEE7reserveEj
pXe:_WeakReference__ctor_m1465778495
Luc:_gray_move_to
S$:__Z34GetNonInterpolatedLightAttenuationRK17LightProbeContextjPK15SharedLightData
WSc:_Array_System_Collections_IList_set_Item_m1450941252
Och:__ZNKSt3__19money_getIcNS_19istreambuf_iteratorIcNS_11char_traitsIcEEEEE6do_getES4_S4_bRNS_8ios_baseERjRNS_12basic_stringIcS3_NS_9allocatorIcEEEE
Dwd:_Array_InternalArray__ICollection_CopyTo_TisTableRange_t476453423_m2696696382_gshared
vwb:__ZN20LocalFileSystemPosixD0Ev
zkf:__Z87RuntimeInvoker_Boolean_t211005341_Il2CppObject_Il2CppObject_ObjectU5BU5DU26_t3434429003PK10MethodInfoPvPS2_
Xhe:_InternalEnumerator_1_MoveNext_m467683661_gshared
tog:__ZN23InterfaceActionInvoker2IP8String_tP12Il2CppObjectE6InvokeEjP11Il2CppClassPvS1_S3_
hwb:__ZN21AssetBundleFileSystem5WriteER13FileEntryDatayPvPy
tWc:_Convert_ToBoolean_m3519963972
Grc:_tt_cmap_init
hb:invoke_viidi
c2g:__ZNSt3__114__split_bufferIN6il2cpp8metadata18GenericArrayMethodERNS_9allocatorIS3_EEED2Ev
iAf:__Z133RuntimeInvoker_Void_t2779279689_Rect_t1525428817_Il2CppObject_SByte_t2855346064_SByte_t2855346064_SByte_t2855346064_SByte_t2855346064PK10MethodInfoPvPS2_
ns:__ZN9AudioClip7CleanupEv
g9d:_X509CertificateEnumerator_get_Current_m49822583
Z8a:__ZNSt3__16vectorIN11HaloManager4HaloENS_9allocatorIS2_EEE21__push_back_slow_pathIKS2_EEvRT_
zqa:__ZN14Texture2DArray13RegisterClassEv
Sqh:_glCreateShader__wrapper
nGf:_List_1_Add_m1724033858_gshared
xn:FUNCTION_TABLE_viiiiiifiii
Lfa:__ZNK9GfxDevice13GetViewMatrixEv
gEa:__ZN17RemapPPtrTransferC2E24TransferInstructionFlagsb
JGa:__ZN8TypeTree8BlobReadERPKhS1_ib
E7c:_DateTimeFormatInfo_get_MonthDayPattern_m1446747604
Kab:__ZNSt3__16vectorINS_4pairIiiEE13stl_allocatorIS2_L18MemLabelIdentifier1ELi16EEE21__push_back_slow_pathIKS2_EEvRT_
OIg:__ZL52RealProxy_t1442800354_CustomAttributesCacheGeneratorP21CustomAttributesCache
Nmf:__Z58RuntimeInvoker_Double_t534516614_Il2CppObject_Il2CppObjectPK10MethodInfoPvPS2_
RBa:__ZN18LoadSceneOperation23GetAllowSceneActivationEv
XXe:_AssetBundleRequest_t920637194_marshal_pinvoke_cleanup
Z7a:__ZN15SerializeTraitsI14ConstantStringE8TransferI19StreamedBinaryWriteILb0EEEEvRS0_RT_
fPa:__ZN25SingleBlockMemoryFileDataD0Ev
EK:_UNITY_png_set_bKGD
xqb:__ZN6CameraD0Ev
uW:__ZN31CanvasBatchIntermediateRenderer16StaticInitializeEPv
Hme:_ShimEnumerator_MoveNext_m3170840807_gshared
uLc:_SecurityElement_Unescape_m249625582
kQ:__ZN10GameObjectC2E18MemLabelIdentifier18ObjectCreationMode
tqc:_raccess_guess_apple_double
UZd:_TlsServerSettings_get_ServerKeyExchange_m635755587
u7:__Z16realloc_internalPvji18MemLabelIdentifieriPKci
xeh:__ZNKSt3__17codecvtIwc11__mbstate_tE13do_max_lengthEv
Ywb:__ZL18ProgramUniform1uivPK7ApiGLESjiihPKv
uqa:__ZN14Texture2DArray13RebuildMipMapEv
Ev:__ZN24AudioScriptBufferManager15GetPCMReadArrayEjRP14ScriptingArray
idh:__ZNSt3__18messagesIcED0Ev
krh:_emscripten_glIsFramebuffer__wrapper
wqa:__ZN14Texture2DArray19UnloadFromGfxDeviceEb
FXe:_Application_Quit_m1187862186
moa:__ZN13ScreenManager18SetAllowCursorLockEb
NNb:__ZN30RuntimeInitializeOnLoadManager15ClassMethodInfo8TransferI14SafeBinaryReadEEvRT_
krd:_AppDomain_ValidateAssemblyName_m997596227
qDa:__ZN9TextAsset8TransferI14SafeBinaryReadEEvRT_
PSg:__ZL125U3CGetEnumeratorU3Ec__Iterator6_t490656869_CustomAttributesCacheGenerator_U3CGetEnumeratorU3Ec__Iterator6_Dispose_m2992069379P21CustomAttributesCache
yC:__ZL22InitializeModule_Audiov
eOa:__ZN16MemoryFileSystem8IsLockedERK13FileEntryData
pBb:__Z16Transfer_BuiltinIj18StreamedBinaryReadILb1EELb1EEvRK29SerializationCommandArgumentsR31RuntimeSerializationCommandInfo
F5c:_Convert_ToUInt16_m3265892000
Bl:_emscripten_glBindRenderbuffer
bhg:_GC_dirty_init
Wye:_MethodBuilder_Equals_m341293246
V9f:__ZN6il2cpp2vm5Image33GetCachedMemoryMappedResourceFileEP24Il2CppReflectionAssembly
Oag:__ZN6il2cpp2vm5Field14GetValueObjectEP9FieldInfoP12Il2CppObject
Jhe:_InternalEnumerator_1_System_Collections_IEnumerator_get_Current_m4039258732_gshared
Hle:_Enumerator_Reset_m963565784_gshared
PIb:__Z16Transfer_BuiltinI8BitField17RemapPPtrTransferLb1EEvRK29SerializationCommandArgumentsR31RuntimeSerializationCommandInfo
aCb:__ZNSt3__16vectorI8BitField13stl_allocatorIS1_L18MemLabelIdentifier1ELi16EEE6assignINS_11__wrap_iterIPS1_EEEENS_9enable_ifIXaasr21__is_forward_iteratorIT_EE5valuesr16is_constructibleIS1_NS_15iterator_traitsISB_E9referenceEEE5valueEvE4typeESB_SB_
Pza:__ZN13MonoBehaviour17RemoveFromManagerEv
m_e:_Component_BroadcastMessage_m3546905666
Qfe:_InternalEnumerator_1_Dispose_m2516768321_gshared
fW:__ZN12ImageFilters14AddImageFilterERK11ImageFilter
Yxb:__ZL11DecodeValuePPKcS0_
eca:__ZN12SkinMeshInfo10DeallocateEPS_
kQd:_NumberFormatter_Multiply10_m4265073128
YRe:_ThreadStaticAttribute__ctor_m1966759021
WOf:_X509Certificate_get_IsCurrent_m3064883298
CNa:__ZN20ArchiveStorageReader28AcquireAndPrefillUnusedBlockEjPNS_11CacheResultE
kfb:__Z12NHxRoughnessIA4_tEvP9Texture2DPT_iiii
Jda:__ZN18AsyncUploadManagerD2Ev
tra:__ZN9Transform5ResetEv
dDa:__ZN9TextAsset9SetScriptERK8UnityStr
jYa:__Z17MainLoopKeepalivePv
g5d:_IPAddress_HostToNetworkOrder_m3514593469
w_:__Z24ScheduleCullingAllGroupsR8JobFenceRK22SceneCullingParameters4PPtrI6CameraERK13CullingOutputRK13dynamic_arrayIP12CullingGroupLj4EERKS_
$Pg:__ZL60OverflowException_t3216083426_CustomAttributesCacheGeneratorP21CustomAttributesCache
Z1:__Z14CalcHullBoundsPK8Vector3fPKhhRK5PlaneRK10Matrix4x4fR10MinMaxAABB
mzf:__Z86RuntimeInvoker_Void_t2779279689_Il2CppObject_Vector3U26_t3456035723_RayU26_t1827062721PK10MethodInfoPvPS2_
b0:__Z19SetupLODFadeKeywordR17ShaderPassContexti
qef:_MethodDictionary_CopyTo_m3173648216
lpb:__ZL25CheckCopyTextureArgumentsRK7ApiGLESP11GLESTextureS3_
TId:_MonoIO_get_ConsoleInput_m851882069
Neb:__ZN13dynamic_arrayI26EnlightenSystemInformationLj8EE6insertEPS0_PKS0_S4_
DMd:_MissingMemberException__ctor_m4083184326
zrc:_tt_name_entry_ascii_from_utf16
az:__ZN4FMOD7SystemI9playSoundE17FMOD_CHANNELINDEXPNS_5SoundEbPPNS_7ChannelE
FOe:_UTF32Encoding_Equals_m2030004752
CB:__Z42Register_UnityEngine_AudioSource_set_pitchv
QLd:_UnexceptionalStreamWriter_Write_m1465117941
d7b:__ZN17PhysicsMaterial2D5ResetEv
R5f:__ZN6il2cpp2os4File4ReadEPNS0_10FileHandleEPciPi
ju:__ZN12AudioManager23VirtualRedirectTransferER18StreamedBinaryReadILb0EE
sod:_EncryptedData_get_EncryptionAlgorithm_m2635090815
mdb:__ZN14SpriteRenderer8TransferI18StreamedBinaryReadILb0EEEEvRT_
E7g:_realloc
cCf:__Z72RuntimeInvoker_Int32_t2847414787_CustomAttributeTypedArgument_t560415562PK10MethodInfoPvPS2_
Wxa:__ZN30RuntimeInitializeOnLoadManager23VirtualRedirectTransferER17RemapPPtrTransfer
ajh:dynCall_viif
_ih:dynCall_viii
bXe:_Version_Clone_m1917770783
f1g:__ZNSt3__112__hash_tableINS_17__hash_value_typeINS_4pairIPKcS4_EEiEENS_22__unordered_map_hasherIS5_S6_24NamespaceAndNamePairHashLb1EEENS_21__unordered_map_equalIS5_S6_26NamespaceAndNamePairEqualsLb1EEENS_9allocatorIS6_EEE20__node_insert_uniqueEPNS_11__hash_nodeIS6_PvEE
wWb:__ZN14qsort_internal8_QSortMTIP16RenderObjectDatai26RenderDeferredObjectSorterE14SortMTInternalES2_S2_iS3_RK8JobFence
Ekf:__Z77RuntimeInvoker_Boolean_t211005341_Il2CppObject_Il2CppObject_SByte_t2855346064PK10MethodInfoPvPS2_
srb:__ZN3WWW12SetAudioClipEP9AudioClip
tO:__Z43DestroyWithoutLoadingButDontDestroyFromFilei
wGc:_RIPEMD160Managed_GG_m1647075779
pEc:__ZN13UploadHandlerD2Ev
Sff:_PatternLinkStack_GetCurrent_m3766647891
y6c:_DaylightTime_get_Delta_m2790906475
Rha:__Z20scripting_string_newPKc
ABg:__ZL54_MemberInfo_t3213777417_CustomAttributesCacheGeneratorP21CustomAttributesCache
T9e:_ChannelData_get_ServerProviders_m3282694237
Dqg:__ZN16VirtFuncInvoker1IP12MethodInfo_tP22TypeU5BU5D_t3431720054E6InvokeEjPvS3_
oN:__ZN29AssetBundleLoadAssetOperation34CollectFullPreloadDataDependenciesER13dynamic_arrayIiLj4EE
o:_stdin
h6c:_Convert_ChangeType_m2922880930
UHc:_SHA1CryptoServiceProvider_HashFinal_m642464225
V6c:_DateTime_ToString_m1268589345
FFg:__ZL55BindingFlags_t2090192240_CustomAttributesCacheGeneratorP21CustomAttributesCache
uv:__ZN17AudioCustomFilterD2Ev
y4b:__ZN11IMGUIModule26SetDeveloperConsoleVisibleEb
Idh:__ZNSt3__16locale2id6__initEv
q0b:__ZNK8GUIStyle13GetLineHeightEv
I0a:__ZN18GfxFramebufferGLES18ReleaseFramebufferEP17RenderSurfaceBaseP14GfxContextGLES
ALd:_TextWriter_WriteLine_m2487661096
d$a:__ZNK7ApiGLES15GetDriverStringEN2gl11DriverQueryE
tE:__ZN19CloudServiceHandler34HandleSaveFileWebRequestPlayerLoopEv
Eye:_MethodBuilder_get_MethodHandle_m1281364144
cx:__Z31GetParentSampleClipFromInstancePN11SoundHandle8InstanceE
j1e:_GUIContent__ctor_m174155123
vkg:__ZN6il2cpp2os16ThreadLocalValue8GetValueEPPv
TOf:_X509Certificate_get_ValidFrom_m3810659470
vIb:__Z22Transfer_Builtin_AlignIh17RemapPPtrTransferLb1EEvRK29SerializationCommandArgumentsR31RuntimeSerializationCommandInfo
FVf:_StackTraceUtility_ExtractStringFromExceptionInternal_m803331050
OKg:__ZL47SHA1_t1560027742_CustomAttributesCacheGeneratorP21CustomAttributesCache
br:__ZN17PackedFloatVector8TransferI18StreamedBinaryReadILb1EEEEvRT_
jWa:__Z52Object_CUSTOM_GetOffsetOfInstanceIDInCPlusPlusObjectv
spe:_Dictionary_2_System_Collections_IDictionary_GetEnumerator_m3187662523_gshared
kp:setThrew
Hnf:__Z36RuntimeInvoker_IntPtr_t_Il2CppObjectPK10MethodInfoPvPS2_
Vrg:__ZN21InterfaceFuncInvoker1IbP18Context_t305277133E6InvokeEjP11Il2CppClassPvS1_
vAc:__ZN13RuntimeStaticI20HardwareInfoReporterE10InitializeEv
xse:_Assembly_GetType_m910605431
k_d:_TlsServerCertificate_checkDomainName_m205565698
cUb:__ZN6prcoreL17RemapGenericFloatI17TexFormatRGBFloat15TexFormatRGHalfEEvPKNS_9InnerInfoE
I$:__Z25DoForwardShaderRenderLoopR17RenderLoopContextR13dynamic_arrayI16RenderObjectDataLj4EERK11CullResultsbbbN6Camera10RenderFlagE
fnc:_sfnt_load_face
yjc:_UNITY_ft_service_list_lookup
TGb:__ZN10RectOffset8TransferI13ProxyTransferEEvRT_
m5g:___strchrnul
hie:_InternalEnumerator_1_MoveNext_m1042509516_gshared
VNa:__ZN16MemoryFileSystem5WriteER13FileEntryDatayPvPy
SDg:__ZL91BinaryReader_t2158806251_CustomAttributesCacheGenerator_BinaryReader_ReadUInt32_m3616500457P21CustomAttributesCache
i7g:_sprintf
eRa:__Z20GetFirstValueForARGVRKNSt3__112basic_stringIcNS_11char_traitsIcEENS_9allocatorIcEEEE
Ns:__ZN13AudioListener17RemoveFromManagerEv
bd:_glAttachShader
QVg:__ZL85Object_t3878351788_CustomAttributesCacheGenerator_Object_FindObjectOfType_m3820159265P21CustomAttributesCache
CKe:_SerializationBinder__ctor_m3744708139
Xue:_ConstructorBuilder_not_created_m1839318289
uT:__ZNK6Camera19GetProjectionMatrixEv
rRd:_U24ArrayTypeU244_t2777878079_marshal_pinvoke_back
K5d:_IPv6Address_AsIPv4Int_m2221656389
wOf:_X501_ToString_m1957208426
Lpd:_X509Certificate_get_ValidFrom_m1301607688
bfh:__ZNKSt3__18numpunctIwE11do_truenameEv
mog:__ZN16VirtFuncInvoker5IiP8String_tiiP20ByteU5BU5D_t58506160iE6InvokeEjPvS1_iiS3_i
sO:__Z38PreallocateObjectFromPersistentManagerib
eUc:_Array_IndexOf_m480670679
XMg:__ZL97WaitHandle_t361062656_CustomAttributesCacheGenerator_WaitHandle_t361062656____Handle_PropertyInfoP21CustomAttributesCache
uKg:__ZL66ICspAsymmetricAlgorithm_t1496121307_CustomAttributesCacheGeneratorP21CustomAttributesCache
Rpa:__ZNK9Texture2D20GetUnscaledTextureIDEv
LB:__ZN9AudioClip7PRODUCEE18MemLabelIdentifier18ObjectCreationMode
SKf:_ReadOnlyCollection_1_System_Collections_Generic_ICollectionU3CTU3E_Clear_m3473426062_gshared
Ywd:_Array_InternalArray__ICollection_CopyTo_TisCustomAttributeNamedArgument_t318735129_m2591025320_gshared
Pjd:_BigInteger_IsProbablePrime_m1415542107
hFb:__Z16Transfer_BuiltinI11Quaternionf14SafeBinaryReadLb1EEvRK29SerializationCommandArgumentsR31RuntimeSerializationCommandInfo
n5a:__GLOBAL__sub_I_GUIEventManager_cpp
h5d:_IPAddress__cctor_m3356110606
ajf:_Repetition_Compile_m4261647610
Naf:_ConfigHandler_ReadCustomProviderData_m2072004816
CBb:__Z16Transfer_BuiltinI10Matrix4x4f18StreamedBinaryReadILb1EELb1EEvRK29SerializationCommandArgumentsR31RuntimeSerializationCommandInfo
Q8f:__ZN6il2cpp2vm9Exception25GetNullReferenceExceptionEv
usg:__ZL24il2cpp_codegen_no_returnv18042
l4b:__ZN13TextRendering17TextMeshGenerator13GetTextOffsetERK5RectTIfE
Kdg:__ZN6il2cpp2vm6String6NewLenEPKcj
dne:_Transform_1_BeginInvoke_m960240079_gshared
Ffb:__ZN15QualitySettings12CleanupClassEv
zdh:__ZNSt3__16locale5__imp11make_globalEv
xXd:_TlsStream_ReadInt24_m64683956
Mye:_MethodBuilder_GetMethodImplementationFlags_m2706393954
qpe:_Dictionary_2_System_Collections_IEnumerable_GetEnumerator_m464503287_gshared
GZa:__ZN7ApiGLESD2Ev
tsa:__ZN9Transform47ClearTransformHierarchyAndApplyToSerializedDataEv
bGa:__ZN17PersistentManager9AddStreamEv
qjh:dynCall_fidi
U2b:__Z47Register_UnityEngine_GUIStyle_set_imagePositionv
BUf:_RectOffset_Finalize_m3416542060
Vmc:_cf2_glyphpath_curveTo
aGa:__ZN17PersistentManager14IsStreamLoadedERKNSt3__112basic_stringIcNS0_11char_traitsIcEENS0_9allocatorIcEEEE
YBd:_NumberFormatInfo_get_PositiveInfinitySymbol_m1200376553
tbe:_CategoryUtils_CategoryFromName_m242979705
vI:__ZN11UnityEngine15CloudWebService14RestDownloaderD2Ev
qlb:__Z29StdTemplateConversionFunctionIjhEbPvR14SafeBinaryRead
HAa:__ZNK13MonoBehaviour13GetScriptTypeEv
una:__ZN13RenderTexture12SetDimensionE16TextureDimension
GRf:_UnityWebRequest_SerializeFormSections_m1305467155
ae:_SDL_FreeRW
Rif:_Parser_ParseNumber_m2475743354
gw:__ZN20SoundChannelInstance8getDelayE14FMOD_DELAYTYPEPjS1_
mPa:__ZN21AssetBundleFileSystemC2EPKc
Knf:__Z32RuntimeInvoker_UInt32_t985925326PK10MethodInfoPvPS2_
Yy:__ZN4FMOD7SystemI17getSoftwareFormatEPiP17FMOD_SOUND_FORMATS1_S1_P18FMOD_DSP_RESAMPLERS1_
x:tempBigInt
le:_emscripten_glVertexAttrib1fv
BPa:__Z18ReadStringFromFilePNSt3__112basic_stringIcNS_11char_traitsIcEE13stl_allocatorIcL18MemLabelIdentifier1ELi16EEEERKNS0_IcS2_NS_9allocatorIcEEEE
M5g:__ZSt11__terminatePFvvE
W6:__ZN9ShaderLab16ParserSubProgram11SetKeywordsERKNSt3__16vectorINS1_12basic_stringIcNS1_11char_traitsIcEENS1_9allocatorIcEEEENS6_IS8_EEEE
qUc:_Array_Sort_m3616962096
gt:__ZN12AudioManager14systemCallbackEP11FMOD_SYSTEM24FMOD_SYSTEM_CALLBACKTYPEPvS3_
Dde:_U3CGetEnumeratorU3Ec__Iterator6_System_Collections_Generic_IEnumeratorU3CTU3E_get_Current_m3174923821_gshared
wyd:_Array_InternalArray__set_Item_TisDouble_t534516614_m908232499_gshared
drf:__Z93RuntimeInvoker_Void_t2779279689_Il2CppObject_Il2CppObject_SByte_t2855346064_Int32_t2847414787PK10MethodInfoPvPS2_
txg:_clear_marks_for_block
mef:_MethodDictionary_Add_m3929391976
SX:__ZN16ReflectionProbes16UpdateSampleDataEv
ykf:__Z45RuntimeInvoker_Int32_t2847414787_Il2CppObjectPK10MethodInfoPvPS2_
zPe:_UTF8Encoding_InternalGetChars_m456868025
qah:__ZNSt3__114__num_put_base12__format_intEPcPKcbj
l$d:_ReceiveRecordAsyncResult__ctor_m2998582075
Rve:_DynamicMethod_Invoke_m1504415078
KSd:_ModulusRing_Multiply_m1902123335
rqa:__ZN14Texture2DArray5ResetEv
xs:__Z23RegisterClass_AudioClipv
h6d:_ServicePointManager_get_SecurityProtocol_m2377079580
Exf:__Z51RuntimeInvoker_Double_t534516614_Interval_t63637216PK10MethodInfoPvPS2_
amh:_emscripten_glRenderbufferStorage__wrapper
nWc:_Buffer_ByteLength_m3699202119
j6f:__ZNK6il2cpp2vm14TypeNameParser10NextWillBeEcb
Dpe:_Dictionary_2_Add_m2232043353_gshared
Kae:_X509ExtensionEnumerator__ctor_m2165217671
umc:_cf2_stack_free
XYd:_Context_set_ServerWriteIV_m3450765872
Le:_JS_Sound_Play
wwc:__Z26GetUnityConnectSettingsPtrv
JRf:_Random_Range_m75452833
eRe:_ThreadAbortException__ctor_m4220973367
AJa:__ZN5Mutex7TryLockEv
lJe:_BinaryFormatter_get_Binder_m2433428471
apf:__Z69RuntimeInvoker_Boolean_t211005341_Int32_t2847414787_Int32_t2847414787PK10MethodInfoPvPS2_
$r:__ZN10SampleClip13RegisterClassEv
Vdc:__ZNSt3__16__sortIR26ColliderIdentityComparitorPP10Collider2DEEvT0_S6_T_
LUd:_PrivateKeyInfo_DecodeDSA_m1682427249
TEg:__ZL56ModuleBuilder_t1058295580_CustomAttributesCacheGeneratorP21CustomAttributesCache
Ulb:__Z29StdTemplateConversionFunctionIayEbPvR14SafeBinaryRead
G8c:_DateTimeUtils_ParseQuotedString_m3109565730
Ejb:__ZNSt3__16__treeI4PPtrI6ObjectENS_4lessIS3_EENS_9allocatorIS3_EEE7destroyEPNS_11__tree_nodeIS3_PvEE
U7a:__ZN18StreamedBinaryReadILb0EE21TransferSTLStyleArrayI13dynamic_arrayINSt3__14pairIi12ImmediatePtrIN5Unity9ComponentEEEELj4EEEEvRT_17TransferMetaFlags
aF:__ZN11UnityEngine15CloudWebService14DataDispatcher4StopEv
j4g:__ZNSt3__16__treeINS_12__value_typeIPFvvEPK10MethodInfoEENS_19__map_value_compareIS3_S7_NS_4lessIS3_EELb1EEENS_9allocatorIS7_EEE16__insert_node_atEPNS_16__tree_node_baseIPvEERSI_SI_
WYe:_Camera_INTERNAL_CALL_ScreenPointToRay_m371614468
D0b:__ZN5IMGUI9GUIWindow5OnGUIER8GUIState
pxc:__ZN22BaseUnityConnectClient24OnSaveFileFromServerDoneERK8UnityStrS2_bi
qf:_atan2f
AXe:_AnimationCurve_t3342907448_marshal_pinvoke_back
zCg:__ZL97Dictionary_2_t2776849293_CustomAttributesCacheGenerator_Dictionary_2_U3CCopyToU3Em__0_m2986833503P21CustomAttributesCache
O0e:_GUI_Label_m2293702269
CGb:__Z16Transfer_BuiltinIf13ProxyTransferLb0EEvRK29SerializationCommandArgumentsR31RuntimeSerializationCommandInfo
fra:__Z21HasAlphaTextureFormat13TextureFormat
Qt:__ZN12AudioManager6UpdateEv
pka:__ZN14ImageReference9BlitImageERKS_NS_8BlitModeE
CUa:__Z21WWW_CUSTOM_DestroyWWWP15ScriptingObjecth
Q8d:_X509KeyUsageExtension_get_KeyUsages_m3177031359
h5:__ZNK9ShaderLab9IntShader6GetTagEib
gjb:__ZN23CachedSerializationDataD2Ev
zZ:__ZN14RenderSettings23VirtualRedirectTransferER14SafeBinaryRead
N8b:__ZNK13b2CircleShape5CloneEP16b2BlockAllocator
Lbg:__ZN6il2cpp2os10ThreadImpl15CurrentThreadIdEv
Ikb:__ZN13sorted_vectorINSt3__14pairINS0_12basic_stringIcNS0_11char_traitsIcEENS0_9allocatorIcEEEES7_EEN10vector_mapIS7_S7_26compare_string_insensitive13stl_allocatorIS8_L18MemLabelIdentifier37ELi16EEE13value_compareESD_E10insert_oneERKS8_
jQ:__ZN17GlobalGameManager8TransferI17RemapPPtrTransferEEvRT_
rPf:_X509CertificateEnumerator_Reset_m2282105749
$cf:_AsyncResult_set_CallMessage_m2645023562
aQ:__ZN16LevelGameManager8TransferI18StreamedBinaryReadILb0EEEEvRT_
_Ld:_UnmanagedMemoryStream_Seek_m2466946404
$O:__Z17IsObjectAvailablei
Oub:__ZN12InputManagerD0Ev
L6b:__ZN16Physics2DManager10CircleCastERK8Vector2ffS2_fiffPK10Collider2DbP12RaycastHit2Di
Kff:_PatternCompiler_ResolveLink_m1754537234
sj:___ctype_b_loc
I_b:__ZN13RuntimeStaticI11WindManagerE16StaticInitializeEPv
z2:__ZNK19RenderEventsContext21ExecuteCommandBuffersEiR17ShaderPassContextRK15RenderNodeQueueP19ProfilerInformationi
CM:_jsimd_can_h2v1_fancy_upsample
Yvg:__ZN6il2cpp6icalls8mscorlib6System9ThreadingL13cache_cultureEP12Il2CppThreadP12Il2CppObjecti
wha:__Z26scripting_class_get_parentP14ScriptingClass
hBa:__ZNK15MonoScriptCache7ReleaseEv
p1f:__ZN6il2cpp2vm5Class13HasReferencesEP11Il2CppClass
lgf:_Regex_InitNewRegex_m2419508729
X2c:_Convert_ToByte_m263200262
lg:_glBindTexture
h7g:_snprintf
Bwe:_EnumBuilder_GetCustomAttributes_m513136559
uye:_ILGenerator_Emit_m1087212740
onh:_emscripten_glVertexAttrib1fv__wrapper
mga:__ZN16UniformCacheGLES6CreateERK20GpuProgramParameters
Ehc:__GLOBAL__sub_I_Tree_cpp
o_d:_TlsServerSettings_set_CertificateRequest_m3309749971
Qlh:_emscripten_glGetProgramInfoLog__wrapper
R8g:__ZNSt3__113basic_istreamIcNS_11char_traitsIcEEED1Ev
tFa:__ZN17PersistentManager23DestroyFromFileInternalEi
xg:_recv
c3g:__ZL7log2_64y
KKb:__Z19TransferField_ArrayI18StreamedBinaryReadILb0EE19Converter_PrimitiveIyEEvRK23StaticTransferFieldInfoR31RuntimeSerializationCommandInfoRT0_
i_g:__ZL96UnityWebRequest_t1582871641_CustomAttributesCacheGenerator_UnityWebRequest_get_error_m3454762737P21CustomAttributesCache
OZe:_Component_GetComponentsInChildren_m1419556996
Fld:_CryptoConvert_Trim_m4105167672
m7f:__ZN6il2cpp6icalls8mscorlib6System9Threading6Thread11Thread_initEP12Il2CppThread
NIf:_List_1_get_Count_m1141337524_gshared
Ega:__ZN22CreateGpuProgramOutputC2Ev
DIa:__ZN12ScriptMapper23VirtualRedirectTransferER14SafeBinaryRead
vFc:_RandomNumberGenerator__ctor_m2911340286
uIe:_SoapServices_GetXmlTypeForInteropType_m433232637
MK:_UNITY_png_set_text_2
Hmf:__Z111RuntimeInvoker_Void_t2779279689_Il2CppObject_Int32_t2847414787_Il2CppObject_Int32_t2847414787_Int32_t2847414787PK10MethodInfoPvPS2_
Q_:__ZN8GUILayer12CleanupClassEv
EZf:_EqualityComparer_1_get_Default_m4184451100_gshared
d3d:_HybridDictionary_get_SyncRoot_m1280025498
wzb:__ZN15SerializeTraitsINSt3__14pairI8UnityStrS2_EEE8TransferI13ProxyTransferEEvRS3_RT_
TIa:__ZN19ShaderPropertySheet27AddNewPropertyUninitializedERKN9ShaderLab16FastPropertyNameENS_12PropertyTypeEijj
oa:invoke_vidi
rBe:_MethodInfo_get_ContainsGenericParameters_m2631056340
Jsa:__ZNK15GUIEventManager15GetEventAtIndexEi
ibg:__ZN6il2cpp5utils11StringUtils15StringDuplicateEPKc
Q5:__ZNK9ShaderLab21ShaderRasterStateDesc16ToGfxRasterStateEPK19ShaderPropertySheetS3_R14GfxRasterState
Nse:_Module_get_ScopeName_m724946931
e_:__Z16RenderShadowMapsPK18ShadowMapJobHeaderR17ShaderPassContext
Nkg:__ZN6il2cpp2os9EventImplC2Ebb
rLb:__Z16Transfer_BuiltinI11ColorRGBA3219StreamedBinaryWriteILb0EELb0EEvRK29SerializationCommandArgumentsR31RuntimeSerializationCommandInfo
kea:__Z20IsMatrixBuiltinParamPKcPi
UUf:_Scene_Equals_m93578403
jma:__ZN8Renderer19PostInitializeClassEv
snd:_PrivateKeyInfo_DecodeRSA_m1382613138
Hch:__ZNKSt3__110moneypunctIwLb1EE13do_neg_formatEv
a3c:_Convert_ToByte_m310449511
Pig:__ZN6il2cpp6icalls8mscorlib6System8Delegate23CreateDelegate_internalEP20Il2CppReflectionTypeP12Il2CppObjectP22Il2CppReflectionMethodb
sSe:_TimeSpan_Equals_m2969422609
S8:__ZN25ThreadsafeLinearAllocator10ReallocateEPvji
pre:_Dictionary_2_ToTValue_m975543294_gshared
$Tf:_Rect_get_height_m2154960823
hhg:_GC_disable
BEb:__ZN10Matrix4x4f8TransferI14SafeBinaryReadEEvRT_
yqf:__Z85RuntimeInvoker_Void_t2779279689_Int32_t2847414787_SByte_t2855346064_SByte_t2855346064PK10MethodInfoPvPS2_
_5c:_Convert_ToUInt64_m2276527046
SLf:_ReadOnlyCollection_1_System_Collections_Generic_ICollectionU3CTU3E_Clear_m3085678928_gshared
nMc:_UnverifiableCodeAttribute__ctor_m3261770352
VIa:__ZN19ShaderPropertySheet16SetVectorIndexedERKN9ShaderLab16FastPropertyNameEifRK8Vector4fNS_8SetFlagsE
bbd:_DelegateSerializationHolder__ctor_m3368674811
sib:__ZL14OnWorldStoppedv
Fy:__ZN4FMOD6SoundI12getOpenStateEP14FMOD_OPENSTATEPjPbS4_
O8e:_GCHandle_Alloc_m4018232088
sLg:__ZL103CodeAccessPermission_t1537136389_CustomAttributesCacheGenerator_CodeAccessPermission_Equals_m3733109266P21CustomAttributesCache
I8c:_DateTimeFormatInfo_get_ShortTimePattern_m1542255145
T_a:__ZN7ApiGLES18ClearBufferSubDataEjN2gl12BufferTargetEll
TNd:_MonoType_IsByRefImpl_m244089130
eVa:__Z37Camera_Get_Custom_PropAllCamerasCountv
Xgb:__ZN14Texture2DArray8TransferI18StreamedBinaryReadILb0EEEEvRT_
N2b:__Z38Register_UnityEngine_GUIStyle_get_namev
qEe:_PropertyInfo_GetValue_m396207607
puc:_Split_Cubic
Za:invoke_fiiii
LQf:_DownloadHandlerAssetBundle_t1172283193_marshal_pinvoke_back
Tsf:__Z58RuntimeInvoker_Il2CppObject_Int64_t2847414882_Il2CppObjectPK10MethodInfoPvPS2_
gAd:_Array_InternalArray__get_Item_TisKeyValuePair_2_t1028297519_m1457368332_gshared
hAg:__ZL68Il2CppArray_CustomAttributesCacheGenerator_Array_GetValue_m244212206P21CustomAttributesCache
Nbg:__ZN6il2cpp2os10ThreadImpl22CreateForCurrentThreadEv
ETf:_UnityString_Format_m427603113
mjf:_Uri_System_Runtime_Serialization_ISerializable_GetObjectData_m3581151196
n3b:__Z64Register_UnityEngine_GUIStyle_GetFontInternalDuringLoadingThreadv
X1d:_SslStreamBase_get_CanRead_m780009774
agc:__ZN15ContactFilter2D13ShouldCollideEP9b2FixtureS1_
bmb:__Z29StdTemplateConversionFunctionIbyEbPvR14SafeBinaryRead
Vdg:__ZN6il2cpp2vm8Profiler12GCHeapResizeEx
vjh:dynCall_viiifi
W0a:__ZN18GfxFramebufferGLES20ActiveContextChangedEPP17RenderSurfaceBaseS2_
O7c:_DateTimeFormatInfo_get_InvariantInfo_m1430381298
wUd:_PKCS1_Verify_v15_m4160617511
xka:__ZN5Image13ReformatImageERK14ImageReferenceii13TextureFormatNS0_8BlitModeE
St:__ZN12AudioManager17RemoveAudioSourceEP11AudioSource
Ltg:__ZNSt3__112__hash_tableINS_17__hash_value_typeIPK19Il2CppGenericMethodPK26Il2CppGenericMethodIndicesEENS_22__unordered_map_hasherIS4_S8_N6il2cpp8metadata23Il2CppGenericMethodHashELb1EEENS_21__unordered_map_equalIS4_S8_NSB_26Il2CppGenericMethodCompareELb1EEENS_9allocatorIS8_EEE4findIS4_EENS_15__hash_iteratorIPNS_11__hash_nodeIS8_PvEEEERKT_
ilf:__Z49RuntimeInvoker_Void_t2779279689_SByte_t2855346064PK10MethodInfoPvPS2_
Nmd:_KeyPairPersistence_get_UseDefaultKeyContainer_m1048698904
MGc:_RNGCryptoServiceProvider_RngInitialize_m3158968500
QPf:_X509Crl_VerifySignature_m1549750422
aie:_InternalEnumerator_1_Dispose_m2760671866_gshared
vgc:__ZN5physx14PxLightCpuTask12addReferenceEv
B8b:__Z10b2DistanceP16b2DistanceOutputP14b2SimplexCachePK15b2DistanceInput
nPb:__ZN21EnlightenSceneMapping8TransferI19StreamedBinaryWriteILb0EEEEvRT_
mqd:_SecurityParser_OnChars_m1522268083
l$b:__ZN10GUIManager10DoGUIEventER10InputEventb
nGd:_MonoIO_GetException_m1380825636
NBg:__ZL61MarshalAsAttribute_t1016163854_CustomAttributesCacheGeneratorP21CustomAttributesCache
Dcf:_Identity_set_Disposed_m1071218783
vag:__ZN6il2cpp2vm12GenericClass8GetClassEP18Il2CppGenericClass
Zv:__Z32AudioMixerDuckingProcessCallbackP21UnityAudioEffectStatePfS1_jii
QCd:_Guid_AppendInt_m60474956
$qa:__Z25GetBytesFromTextureFormat13TextureFormat
Qqa:__ZN9Texture3D19UnloadFromGfxDeviceEb
Ejd:_BigInteger_Clear_m2771926564
Uhh:dynCall_iiffi
lEg:__ZL53SeekOrigin_t3506139269_CustomAttributesCacheGeneratorP21CustomAttributesCache
hj:_emscripten_webgl_init_context_attributes
Hkg:__ZNK6il2cpp8metadata24Il2CppGenericInstCompareclEPK17Il2CppGenericInstS4_
Ydc:__ZN9b2Simplex9ReadCacheEPK14b2SimplexCachePK15b2DistanceProxyRK11b2TransformS5_S8_
K1f:__ZN6il2cpp2vm13MetadataCache23GetInvokerMethodPointerEPK10MethodInfoPK20Il2CppGenericContext
rfa:__ZN9GfxDevice21RegisterNativeTextureE9TextureIDi16TextureDimension
Prh:b101
Zud:_Array_InternalArray__IndexOf_TisKeyValuePair_2_t816448501_m3247624005_gshared
Gig:__ZN6il2cpp6icalls8mscorlib6System10Reflection4Emit11TypeBuilder20create_generic_classEP27Il2CppReflectionTypeBuilder
Z8e:_Marshal__cctor_m156400721
JQc:_EncoderExceptionFallbackBuffer_GetNextChar_m1461911898
lQb:__ZNSt3__115__inplace_mergeIRN10vector_mapIijNS_4lessIiEENS_9allocatorINS_4pairIijEEEEE13value_compareENS_11__wrap_iterIPS6_EEEEvT0_SE_SE_T_NS_15iterator_traitsISE_E15difference_typeESI_PNSH_10value_typeEi
ICe:_MonoField_GetObjectData_m2261672671
fzf:__Z97RuntimeInvoker_Il2CppObject_Il2CppObject_Il2CppObject_Int32_t2847414787_Il2CppObject_Il2CppObjectPK10MethodInfoPvPS2_
qj:_emscripten_glUniformMatrix4fv
Dvb:__ZN12ScriptMapperD2Ev
Dfg:_GC_stopped_mark
jrf:__Z47RuntimeInvoker_MethodImplAttributes_t3301691718PK10MethodInfoPvPS2_
Sdh:__ZNKSt3__15ctypeIwE10do_tolowerEw
zxd:_Array_InternalArray__Insert_TisKeyValuePair_2_t2686855369_m2775855938_gshared
cv:__ZNK11AudioSource14GetRolloffModeEv
Xfg:_GC_check_leaked
M4c:_Convert_ToInt64_m3672181841
fdb:__Z18SkinGenericMathLibILi4ELb0ELb0EEvR12SkinMeshInfo
vIc:_SHA384Managed_processWord_m2575145806
lSb:__ZNSt3__16vectorI7SubMesh13stl_allocatorIS1_L18MemLabelIdentifier16ELi16EEEC2ERKS5_
Wlc:_cf2_getBlueMetrics
pF:__ZN11UnityEngine15CloudWebService16SessionContainer8AddEventEPNS0_14CloudEventInfoE
jQf:_X509Store_get_Crls_m2221659197
YAd:_CustomAttributeData_UnboxValues_TisCustomAttributeNamedArgument_t318735129_m2964992489_gshared
aSf:_UnityWebRequest_get_error_m3454762737
noh:_glGetStringi__wrapper
hda:__ZN10VertexData8TransferI14SafeBinaryReadEEvRT_
by:__ZN4FMOD8ChannelI8setDelayE14FMOD_DELAYTYPEjj
Ypg:__ZN21InterfaceFuncInvoker2IbbbE6InvokeEjP11Il2CppClassPvbb
_eg:_GC_malloc_atomic
gjg:__ZN6il2cpp5utils6Memory13AlignedMallocEjj
hKb:__Z16Transfer_BuiltinI5RectTIfE18StreamedBinaryReadILb0EELb1EEvRK29SerializationCommandArgumentsR31RuntimeSerializationCommandInfo
p8a:__ZNSt3__16__treeINS_12__value_typeINS_12basic_stringIcNS_11char_traitsIcEENS_9allocatorIcEEEEjEENS_19__map_value_compareIS7_S8_NS_4lessIS7_EELb1EEE13stl_allocatorIS8_L18MemLabelIdentifier6ELi16EEE4findIS7_EENS_15__tree_iteratorIS8_PNS_11__tree_nodeIS8_PvEEiEERKT_
D2b:__Z35GUIStyle_CUSTOM_Internal_CalcHeight6IntPtrP15ScriptingObjectf
vBf:__Z60RuntimeInvoker_Boolean_t211005341_KeyValuePair_2_t1028297519PK10MethodInfoPvPS2_
$ib:__ZN13ProxyTransfer8TransferI8MonoPPtrEEvRT_PKc17TransferMetaFlags
L5b:__ZN13BoxCollider2D13RegisterClassEv
bxf:__Z67RuntimeInvoker_Byte_t2778693821_Int16_t2847414729_Int16_t2847414729PK10MethodInfoPvPS2_
dRb:__Z26SkinVerticesGenericMathLibILi1ELb1ELb1EEvPKhiiiiPhiPKvS4_
kM:_jpeg_free_small
qXb:__ZN20SphericalHarmonicsL28TransferI18StreamedBinaryReadILb1EEEEvRT_
xhf:_CaptureAssertion_get_Alternate_m4248571978
vbd:_StackFrame_GetInternalMethodName_m623093646
a4e:_GUIStyle_get_focused_m2717215092
UDc:__ZNSt3__16__treeINS_12__value_typeINS_12basic_stringIcNS_11char_traitsIcEENS_9allocatorIcEEEES7_EENS_19__map_value_compareIS7_S8_N6detail7ci_lessELb1EEENS5_IS8_EEE15__insert_uniqueERKS8_
lyb:__ZNSt3__16vectorIN20ArchiveStorageHeader4NodeE13stl_allocatorIS2_L18MemLabelIdentifier54ELi16EEE26__swap_out_circular_bufferERNS_14__split_bufferIS2_RS5_EE
oAg:__ZL87Il2CppArray_CustomAttributesCacheGenerator_Array_CreateInstance_m1056577835____lengths1P21CustomAttributesCache
z_c:_BitArray_Set_m3317154012
j0d:_SslCipherSuite_ComputeServerRecordMAC_m3251033165
EOe:_UTF32Encoding_GetPreamble_m4266568199
hzf:__Z50RuntimeInvoker_Void_t2779279689_RectU26_t453716951PK10MethodInfoPvPS2_
vcg:__ZN6il2cpp2gc16GarbageCollector9StopWorldEv
Vs:__ZN13AudioListener12CleanupClassEv
O$b:__ZN8GUIState12GetControlIDEi9FocusTypeRK5RectTIfE
Rta:__Z13GetIEnlightenv
Vcg:__ZN6il2cpp2os6ThreadC2Ev
ELe:_RuntimeTypeHandle_Equals_m3214712582
ste:_AssemblyName_GetObjectData_m3727277531
nff:_PatternCompiler_EmitSet_m2895987935
yWg:__ZL96GameObject_t4012695102_CustomAttributesCacheGenerator_GameObject_GetComponentInParent_m434474382P21CustomAttributesCache
evc:_compare_uni_maps
Cpc:__ZL34RegisterModuleICalls_TextRenderingv
pdf:_MethodCall_InitMethodProperty_m2379029369
eyc:__ZN11UnityEngine15PlatformWrapper27GetGraphicsCapsSupportFlagsEv
wMb:__ZN12NativeBufferI16Converter_StringE15SetupForWritingER9ArrayInfo
Ukh:___cxa_end_catch__wrapper
BLd:_NullTextWriter_Write_m1650030462
LWb:__ZNSt3__17__sort4IR15ReflProbeSorterPP15ReflectionProbeEEjT0_S6_S6_S6_T_
otf:__Z50RuntimeInvoker_UInt32_t985925326_Int32_t2847414787PK10MethodInfoPvPS2_
Zle:_Enumerator__ctor_m3920831137_gshared
$bh:__ZNKSt3__110moneypunctIcLb0EE13do_pos_formatEv
CAa:__ZN13MonoBehaviour22DoScriptRebuildWarningEv
bSg:__ZL86BigInteger_t1694088928_CustomAttributesCacheGenerator_BigInteger_op_Modulus_m465134612P21CustomAttributesCache
X6f:__ZN6il2cpp6icalls8mscorlib6System5Array13ClearInternalEP11Il2CppArrayii
PMf:_StaticGetter_1_EndInvoke_m3212189152_gshared
TBe:_MonoMethodInfo_GetCallingConvention_m4186754404
NLg:__ZL101Decoder_t1611780840_CustomAttributesCacheGenerator_Decoder_t1611780840____FallbackBuffer_PropertyInfoP21CustomAttributesCache
p0a:__Z20GetBufferManagerGLESv
w4b:__ZN11IMGUIModule25GetGUIStyleScriptingClassEv
Lsc:_tt_get_interface
$Dd:_Int32_CompareTo_m2558537238
G4b:__ZN24TextDOMTransferWriteBaseI9JSONWriteEC2E24TransferInstructionFlagsPNSt3__112basic_stringIcNS3_11char_traitsIcEENS3_9allocatorIcEEEE
x3c:_Convert_ToDateTime_m2082043967
Pya:__Z18ConvertUTF16toUTF8PPKtS0_PPhS2_15ConversionFlags
DIf:_List_1_Shift_m490684402_gshared
_2g:__ZL16my_g_bit_nth_msfj
dca:__Z20DeformSkinnedMeshJobP12SkinMeshInfo
Kzf:__Z85RuntimeInvoker_Void_t2779279689_Il2CppObject_Vector2U26_t2646958564_Int32_t2847414787PK10MethodInfoPvPS2_
KSb:__ZN9ShaderLab13ParserUsePassD2Ev
WDf:__Z54RuntimeInvoker_CustomAttributeNamedArgument_t318735129PK10MethodInfoPvPS2_
evd:_Array_InternalArray__IndexOf_TisDateTime_t339033936_m3650658993_gshared
z0f:__ZN6il2cpp2vm5Class15GetInstanceSizeEPK11Il2CppClass
jYg:__ZL59GUISkin_t2614611333_CustomAttributesCacheGenerator_m_windowP21CustomAttributesCache
nqd:_SecurityParser_OnEndParsing_m3668248508
cI:__ZN9rapidjson8internal6u64toaEyPc
Fzb:__ZN14SerializedFile4Type8ReadTypeILb1EEEbibiRPKhS3_
FAb:__Z16Transfer_BuiltinId18StreamedBinaryReadILb1EELb0EEvRK29SerializationCommandArgumentsR31RuntimeSerializationCommandInfo
Fxe:_GenericTypeParameterBuilder_IsAssignableFrom_m2291646236
_Og:__ZL79Convert_t1097883944_CustomAttributesCacheGenerator_Convert_ToUInt64_m1647411363P21CustomAttributesCache
lUe:_Type_get_IsNested_m2782386097
Tob:__ZL19BlitFramebufferImplRN4gles23BlitFramebufferDrawQuadER9GfxDevice9TextureIDRK8Vector4f
vih:dynCall_viiiiiiiiiiiiii
sOb:__ZN14SafeBinaryRead21TransferSTLStyleArrayINSt3__16vectorI9InputAxisNS1_9allocatorIS3_EEEEEEvRT_17TransferMetaFlags
a9:__ZN18PlayableController12GetFrameDataEv
Cke:_DefaultComparer_Compare_m3265011409_gshared
sqa:__ZN14Texture2DArray11InitTextureEiii13TextureFormatb
EOd:_MulticastNotSupportedException__ctor_m3265751898
zUg:__ZL84Camera_t3533968274_CustomAttributesCacheGenerator_Camera_get_cullingMask_m1045975289P21CustomAttributesCache
xTf:_Object_op_Implicit_m2106766291
ELc:_StringBuilder_Replace_m118777941
v4d:_DefaultUriParser__ctor_m1912198945
g2e:_GUILayoutUtility_Internal_GetWindowRect_m1168223211
Z8d:_X509CertificateCollection__ctor_m329398404
UIg:__ZL53IEnvoyInfo_t3291672932_CustomAttributesCacheGeneratorP21CustomAttributesCache
Fhb:__ZN9InputAxis8TransferI18StreamedBinaryReadILb0EEEEvRT_
qke:_InternalEnumerator_1_System_Collections_IEnumerator_Reset_m3521736938_gshared
fde:_IntervalCollection_get_Count_m3146453934
TUd:_KeyGeneratedEventHandler_Invoke_m1246442575
x2b:__Z30GUIStyle_CUSTOM_SetDefaultFontP15ScriptingObject
aDd:_IndexOutOfRangeException__ctor_m2445908561
vya:__Z38VerifyNothingIsPersistentInLoadedSceneRKNSt3__112basic_stringIcNS_11char_traitsIcEENS_9allocatorIcEEEE
Gxd:_Array_InternalArray__Insert_TisDecimal_t1688557254_m3179327460_gshared
IDd:_NumberFormatter_NumberToString_m1355610105
yJc:_TripleDES_set_Key_m1852525880
iV:__Z20SyncFenceCullResultsR11CullResults
oxb:__ZN15TextureTFMethod20IsBoneCountSupportedEi
QPe:_Thread_get_CurrentThread_m1523593825
GVg:__ZL82Object_t3878351788_CustomAttributesCacheGenerator_Object_DestroyObject_m3324336244P21CustomAttributesCache
qld:_BitConverterLE_UIntFromBytes_m318761967
iCf:__Z62RuntimeInvoker_Int32_t2847414787_ResourceCacheItem_t3699857703PK10MethodInfoPvPS2_
mIb:__Z22TransferField_NonArrayI17RemapPPtrTransfer27Converter_SimpleNativeClassI8GUIStyleEEvRK23StaticTransferFieldInfoR31RuntimeSerializationCommandInfoRT0_
Phb:__ZNK17AnimationCurveTplIfE20EvaluateWithoutCacheEfRf
gdg:__ZN6il2cpp2os6Thread12QueueUserAPCEPFvPvES2_
KXe:_pinvoke_delegate_wrapper_LogCallback_t3235662729
yGb:__Z16Transfer_BuiltinIi13ProxyTransferLb0EEvRK29SerializationCommandArgumentsR31RuntimeSerializationCommandInfo
g6d:_ServicePointManager_get_CheckCertificateRevocationList_m2088706324
s2c:_Console_get_Error_m3008907509
nr:__ZN17AnimationCurveTplIfE8TransferI14SafeBinaryReadEEvRT_
bjd:_SortKeyBuffer_AppendBufferPrimitive_m2920762936
v$g:__ZL67ExcludeFromDocsAttribute_t2739928377_CustomAttributesCacheGeneratorP21CustomAttributesCache
cna:__Z40CleanupRendererAnimationBindingInterfacev
B4g:__ZNSt3__118basic_stringstreamIcNS_11char_traitsIcEENS_9allocatorIcEEED0Ev
_Pc:_DecoderExceptionFallbackBuffer__ctor_m1509764995
PVg:__ZL80Object_t3878351788_CustomAttributesCacheGenerator_Object_Instantiate_m3040600263P21CustomAttributesCache
yof:__Z89RuntimeInvoker_Il2CppObject_Int32_t2847414787_Int32_t2847414787_Il2CppObject_Il2CppObjectPK10MethodInfoPvPS2_
ppb:__ZN14DrawBufferGLESI12VertexBuffer27VertexBufferUsageMapperGLESE8EndWriteEj
mFe:_MonoMethodMessage_get_MethodBase_m1950873241
pTd:_ASN1_ToString_m2072053203
m4f:_il2cpp_class_get_image
xXf:_Locale_GetText_m2031928403
gTa:__Z16AsyncReadRequestP16AsyncReadCommand
Rjf:_Uri_Unescape_m416590285
hfb:__Z19Build2DArrayTextureIhPFvPhiiiiiiEEP14Texture2DArrayPKciii13TextureFormatRKT0_17TextureColorSpace
Dee:_U3CGetEnumeratorU3Ec__Iterator0_System_Collections_IEnumerator_get_Current_m4054268681_gshared
XPc:_DecoderExceptionFallback__ctor_m3484109795
Xah:__ZNKSt3__18time_getIcNS_19istreambuf_iteratorIcNS_11char_traitsIcEEEEE11do_get_yearES4_S4_RNS_8ios_baseERjP2tm
tOb:__ZN9InputAxis8TransferI14SafeBinaryReadEEvRT_
eXc:_Char__cctor_m3887439662
Cxc:__Z27RegisterModule_UnityConnectv
lp:copyTempFloat
aye:_GenericTypeParameterBuilder_GetGenericArguments_m4080596481
v5f:__ZN6il2cpp2vm10Reflection27GetCustomAttributesCacheForEP25Il2CppReflectionParameter
QSe:_TimeZone_get_CurrentTimeZone_m2986247742
Xne:_Enumerator_MoveNext_m803891385_gshared
R4d:_RemoteCertificateValidationCallback_Invoke_m2321994438
_6e:_Mathf__cctor_m1875403730
lce:_RepeatContext_set_Start_m3788788766
mje:_InternalEnumerator_1_Dispose_m2750196932_gshared
wCg:__ZL81SmallXmlParser_t1795169203_CustomAttributesCacheGenerator_U3CU3Ef__switchU24map18P21CustomAttributesCache
MBf:__Z60RuntimeInvoker_Boolean_t211005341_ContactPoint2D_t3963746319PK10MethodInfoPvPS2_
vZc:_ArrayListWrapper_ToArray_m2775301700
BC:__ZN10ObjectPoolIN4FMOD12ChannelGroupENS0_13ChannelGroupIEE7SetSizeEi
$Sa:__Z5SplitRKNSt3__112basic_stringIcNS_11char_traitsIcEENS_9allocatorIcEEEEcRNS_6vectorIS5_NS3_IS5_EEEEi
CZc:_FixedSizeArrayListWrapper_Clear_m2440861404
Wzg:__ZL73Enum_t2778772662_CustomAttributesCacheGenerator_Enum_ToObject_m1448255064P21CustomAttributesCache
Qbg:__ZN6il2cpp2os10ThreadImpl33UnregisterCurrentThreadForCleanupEv
kNg:__ZL149ApplicationIdentity_t271056291_CustomAttributesCacheGenerator_ApplicationIdentity_System_Runtime_Serialization_ISerializable_GetObjectData_m769720520P21CustomAttributesCache
DUd:_EncryptedPrivateKeyInfo_get_IterationCount_m1213644604
b8:__Z22ValidateTlsfAllocationPvjiS_
lpd:_PKCS12_CertificateSafeBag_m3963003161
kHe:_RemotingProxy_Finalize_m1311356449
joe:_ValueCollection_System_Collections_ICollection_CopyTo_m1511207592_gshared
pFe:_MonoMethodMessage_get_TypeName_m2637395646
Tyf:__Z74RuntimeInvoker_Vector2_t3525329788_Vector2_t3525329788_Vector2_t3525329788PK10MethodInfoPvPS2_
WLe:_SByte_System_IConvertible_ToUInt32_m4285595070
Ow:__ZN11SoundHandleC2ERKS_
J5d:_IPv6Address_SwapUShort_m3711871552
FIa:__ZN12ScriptMapper23VirtualRedirectTransferER18StreamedBinaryReadILb1EE
ulb:__Z29StdTemplateConversionFunctionItxEbPvR14SafeBinaryRead
g7:__ZN9ShaderLab18ParserBindChannelsC2Ev
DN:__ZN39AssetBundleLoadFromStreamAsyncOperationC2ERKNSt3__112basic_stringIcNS0_11char_traitsIcEENS0_9allocatorIcEEEE
dDg:__ZL52IComparer_t2207526184_CustomAttributesCacheGeneratorP21CustomAttributesCache
jPd:_NumberFormatter_Init_m2948152342
yXb:__ZN14RenderSettings18TransferDeprecatedI14SafeBinaryReadEEvRT_
nNg:__ZL70ArgumentOutOfRangeException_t3479058991_CustomAttributesCacheGeneratorP21CustomAttributesCache
qXd:_Context_Clear_m2073665242
pod:_ContentInfo_set_ContentType_m3906424955
ipe:_Dictionary_2_System_Collections_IDictionary_Remove_m127000079_gshared
P$d:_RecordProtocol_EncodeRecord_m3527606936
qOc:_String_Replace_m3369701083
$Ma:__ZN20ArchiveStorageHeader13GetDataOffsetERKNS_6HeaderE
std:_Array_InternalArray__ICollection_Remove_TisTypeTag_t1738289281_m4237032245_gshared
yEg:__ZL97DynamicMethod_t2778460557_CustomAttributesCacheGenerator_DynamicMethod_CreateDelegate_m2432808878P21CustomAttributesCache
Gse:_Assembly_ToString_m395441739
v0e:_GameObject_SendMessage_m2244324713
Iod:_PKCS12__cctor_m2928380682
Vmg:__ZN16VirtFuncInvoker5IiP20ByteU5BU5D_t58506160iiP22CharU5BU5D_t3416858730iE6InvokeEjPvS1_iiS3_i
F5:__ZN9ShaderLab7Program22ComputeSupportsShadowsEv
rUb:__ZN6prcoreL17RemapGenericFloatI18TexFormatARGBFloat17TexFormatRGBAHalfEEvPKNS_9InnerInfoE
yhc:__ZN13Simd4iFactoryIN6detail9FourTupleEEC2Eiiii
H3d:_NameObjectCollectionBase_Init_m3194316544
hVa:__Z40Camera_CUSTOM_INTERNAL_CALL_RaycastTry2DP15ScriptingObjectRK3Rayfi
C5b:__ZN10Collider2D14FinalizeCreateERK10Matrix4x4fR12b2FixtureDefP6b2BodyPK13dynamic_arrayIP7b2ShapeLj4EE
cRg:__ZL62WebHeaderCollection_t1099177929_CustomAttributesCacheGeneratorP21CustomAttributesCache
XPb:__ZN15SerializeTraitsI33EnlightenTerrainChunksInformationE8TransferI14SafeBinaryReadEEvRS0_RT_
NDb:__ZNSt3__16vectorIa13stl_allocatorIaL18MemLabelIdentifier1ELi16EEE8__appendEj
UOb:__ZNK32RendererMaterialAnimationBinding9BindValueER6ObjectRKN11UnityEngine9Animation14GenericBindingERNS3_10BoundCurveE
PLd:_UnexceptionalStreamWriter_Write_m2227220375
Pta:__Z13GetIAnimationv
jMf:_ReadOnlyCollection_1_Contains_m3355043202_gshared
pZb:__ZL18stbir__support_onef
cxd:_Array_InternalArray__ICollection_CopyTo_TisParameterModifier_t500203470_m167312129_gshared
cnb:__ZN15NameToObjectMapI6ShaderNSt3__13mapI4PPtrIS0_E8UnityStrNS1_4lessIS4_EENS1_9allocatorINS1_4pairIKS4_S5_EEEEEENS1_8multimapIS5_S4_NS6_IS5_EENS8_INS9_IKS5_S4_EEEEEEE4FindERKNS1_12basic_stringIcNS1_11char_traitsIcEENS8_IcEEEE
_Bd:_NumberFormatInfo_GetFormat_m219671647
gjc:_UNITY_FT_DivFix
FUg:__ZL98Camera_t3533968274_CustomAttributesCacheGenerator_Camera_INTERNAL_CALL_ScreenPointToRay_m371614468P21CustomAttributesCache
uvc:__ZN18StreamedBinaryReadILb1EE21TransferSTLStyleArrayI10vector_mapINSt3__14pairIttEEfN20TextRenderingPrivate4Font14KerningCompareENS3_9allocatorINS4_IS5_fEEEEEEEvRT_17TransferMetaFlags
Fa:invoke_vdd
Un:FUNCTION_TABLE_fiii
GMg:__ZL71SynchronizationLockException_t1158168039_CustomAttributesCacheGeneratorP21CustomAttributesCache
Vcb:__ZNSt3__16vectorIh13stl_allocatorIhL18MemLabelIdentifier14ELi16EEE6insertENS_11__wrap_iterIPKhEEjRS6_
rxe:_GenericTypeParameterBuilder_IsSubclassOf_m952653568
Wn:FUNCTION_TABLE_fiif
QQb:__ZNK30SpriteRendererAnimationBinding12GetPPtrValueERKN11UnityEngine9Animation10BoundCurveE
I_g:__ZL98UploadHandler_t2015444082_CustomAttributesCacheGenerator_UploadHandler_InternalDestroy_m3840871545P21CustomAttributesCache
Ybe:_Interpreter_TryMatch_m3565421809
Ccf:_Identity_get_Disposed_m1911726198
$Vc:_Boolean_System_IConvertible_ToUInt32_m3723299531
Ueb:__Z14RandomRotationP9Texture2DPhiiii
rqh:_emscripten_glLinkProgram__wrapper
qIb:__Z65EmitSerializationCommandsForLinearCollectionOfManagedObjectsFieldI17RemapPPtrTransferEvRK23TransferArrayField_InfoR20SerializationCommandR32SerializationCommandQueueBuilderRP20AllowNameConversions
yqg:__ZN18VirtActionInvoker1I18OpCode_t4028977979E6InvokeEjPvS0_
Omg:__ZN16VirtFuncInvoker0ItE6InvokeEjPv
TSe:_TimeZone_ToLocalTime_m2341401576
OFe:_ReturnMessage_set_Uri_m4046194808
NWc:_Convert_ToUInt16_m3839993974
tuf:__Z52RuntimeInvoker_DateTime_t339033936_SByte_t2855346064PK10MethodInfoPvPS2_
ndc:__ZN15dense_hashtableINSt3__14pairIKNS1_IPK10Collider2DS4_EE11Collision2DEES5_NS2_23ColliderPairHashFunctorEN14dense_hash_mapIS5_S7_S9_NS0_8equal_toIS5_EE13stl_allocatorIS8_L18MemLabelIdentifier65ELi16EEE9SelectKeyESC_SF_E12resize_deltaEjj
Ike:_DefaultComparer_Compare_m470059266_gshared
cVe:_UInt32_System_IConvertible_ToDateTime_m3845377030
pif:_Parser_ParseHex_m370479069
sYa:__ZNK13EmscriptenWWW14GetPartialDataEv
Yph:_glDeleteProgram__wrapper
mVa:__Z50Register_UnityEngine_Camera_INTERNAL_get_pixelRectv
F3:__ZN19RuntimeSceneManager14LoadSceneAsyncERK8UnityStrS2_S2_RK9UnityGUIDiNS_11LoadingModeEbRP10UnityScene
kje:_InternalEnumerator_1_System_Collections_IEnumerator_Reset_m3343201747_gshared
Rab:__ZN6prcoreL18BlitFloatToIntegerERK14ImageReferenceRS0_
pOe:_HMAC_Create_m3219387469
sNe:_DSA_FromXmlString_m4148544211
wcd:_Enum_System_IConvertible_ToInt16_m2840902492
u9b:__ZN7b2Timer5ResetEv
zI:__ZN11UnityEngine15CloudWebService14RestDownloader17OnCompleteContentEv
Bqa:__ZN14Texture2DArray23VirtualRedirectTransferER13ProxyTransfer
TZg:__ZL58UnityWebRequest_t1582871641_CustomAttributesCacheGeneratorP21CustomAttributesCache
Na:invoke_viffi
qRf:_UnityWebRequest_GetAssetBundle_m1397031519
Qa:invoke_vifff
qCd:_TextInfo_Equals_m2282464544
uDg:__ZL51Calendar_t2654956468_CustomAttributesCacheGeneratorP21CustomAttributesCache
Loh:_glGetVertexAttribiv__wrapper
Je:_emscripten_request_fullscreen
UNg:__ZL78Convert_t1097883944_CustomAttributesCacheGenerator_Convert_ToInt16_m1004860027P21CustomAttributesCache
WZc:_SynchronizedArrayListWrapper_set_Capacity_m3235728024
BQa:__ZN20LocalFileSystemWebGL6DeleteER13FileEntryDatab
Ne:_emscripten_glDisableVertexAttribArray
Kb:invoke_fifffi
sEg:__ZL64UnmanagedMemoryStream_t4280280686_CustomAttributesCacheGeneratorP21CustomAttributesCache
S3a:__ZN4gles23ClearCurrentFramebufferEP7ApiGLESbbbRK10ColorRGBAffi
Iic:__ZN20TextRenderingPrivate19NativeTextGenerator15InsertCharacterEi
Hvd:_Array_InternalArray__IndexOf_TisHitInfo_t2591228609_m2556404424_gshared
Ze:_emscripten_glDeleteObjectARB
Zna:__Z14DecompressDXT3iiiPKjPj
pKc:_StrongNamePublicKeyBlob_GetHashCode_m1175711719
EZb:_decode_mcu_AC_refine
v_f:_GenericEqualityComparer_1_GetHashCode_m1043508355_gshared
ebb:__ZN9ShaderLab16ParserSubProgramC2Ev
sPd:_NumberFormatter_get_IsFloatingSource_m3965742250
KUb:__ZN6prcoreL17RemapGenericFloatI17TexFormatRGBAHalf18TexFormatARGBFloatEEvPKNS_9InnerInfoE
h0b:__ZNK8GUIStyle21DrawWithTextSelectionER8GUIStateRK5RectTIfER10GUIContentbbbbbiiRK10ColorRGBAfSA_
A0b:__Z14GetBuiltinSkini
RRd:_BigInteger_ToString_m3209284166
Zge:_InternalEnumerator_1__ctor_m1735201994_gshared
Sje:_InternalEnumerator_1_get_Current_m737292716_gshared
BWd:_Context_get_ClientWriteIV_m621691963
Ml:_JS_SystemInfo_GetBrowserVersionString
Ola:__ZN2UI13RectTransform23VirtualRedirectTransferER14SafeBinaryRead
GUf:_pinvoke_delegate_wrapper_ReapplyDrivenProperties_t3247703954
gsa:__ZN9Transform25CompleteTransformTransferI13ProxyTransferEEvRT_
dib:__ZNSt3__16__treeIiNS_4lessIiEENS_9allocatorIiEEE12__find_equalIiEERPNS_16__tree_node_baseIPvEENS_21__tree_const_iteratorIiPNS_11__tree_nodeIiS8_EEiEESB_RKT_
Sda:__ZN18AsyncUploadManager19AsyncResourceUploadER9GfxDeviceii
S3g:__ZNSt3__114__split_bufferIP12Il2CppThreadRNS_9allocatorIS2_EEED2Ev
pwd:_Array_InternalArray__ICollection_Add_TisResourceInfo_t4074584572_m1025747317_gshared
SFa:__ZN17PersistentManagerC2Eii
Gxf:__Z84RuntimeInvoker_Int32_t2847414787_Il2CppObject_Int32U26_t2544866037_Int32_t2847414787PK10MethodInfoPvPS2_
a_a:__ZN7ApiGLES15BindFramebufferEN2gl17FramebufferTargetENS0_17FramebufferHandleE
y1b:__Z71Register_UnityEngine_GUILayoutUtility_INTERNAL_CALL_Internal_MoveWindowv
Lt:__ZN12AudioManager16SetListenerPauseEb
vRg:__ZL63X509ChainStatusFlags_t1387926129_CustomAttributesCacheGeneratorP21CustomAttributesCache
MSb:__ZNSt3__16vectorIN9ShaderLab14ParserPropertyENS_9allocatorIS2_EEE10deallocateEv
$Gg:__ZL68MarshalDirectiveException_t1317716672_CustomAttributesCacheGeneratorP21CustomAttributesCache
tcf:_SynchronizedServerContextSink__ctor_m4169493510
jNc:_String_System_Collections_Generic_IEnumerableU3CcharU3E_GetEnumerator_m319382653
la:invoke_viiiiiiiiiii
Dxa:__ZN14PlayerSettings23VirtualRedirectTransferER13ProxyTransfer
f6e:_Hash128_t3885020822_marshal_pinvoke_back
vDb:__Z14resize_trimmedINSt3__16vectorIj13stl_allocatorIjL18MemLabelIdentifier1ELi16EEEEEvRT_j
Cdb:__ZN11ChannelInfo8TransferI19StreamedBinaryWriteILb0EEEEvRT_
FMa:__ZN23ArchiveStorageConverter24ReadHeaderFromMemoryFileEv
he:_munmap
z8g:__ZNSt3__18ios_base16__call_callbacksENS0_5eventE
Spc:__ZNSt3__16vectorIN20TextRenderingPrivate4Font7IntRectE13stl_allocatorIS3_L18MemLabelIdentifier34ELi16EEE21__push_back_slow_pathIKS3_EEvRT_
PQf:_DownloadHandlerAudioClip_t3437957997_marshal_pinvoke_back
_Dg:__ZL57FileAttributes_t2606923962_CustomAttributesCacheGeneratorP21CustomAttributesCache
sUa:__Z34Register_UnityEngine_Gradient_Initv
lNd:_MonoEnumInfo_get_enum_info_m1623052572
had:_Decimal_CompareTo_m2551434482
tdb:__Z26TransformVerticesInnerLoopILb1ELb1ELb0EEvPhRK10Matrix4x4fRK10Matrix3x3fjPKhiiiS8_ii25GfxTransformVerticesFlags
I$g:__ZL71RequiredByNativeCodeAttribute_t641452194_CustomAttributesCacheGeneratorP21CustomAttributesCache
noa:__ZN13ScreenManager23SetIsOrientationEnabledE18EnabledOrientationb
sue:_StrongNameKeyPair_StrongName_m2125236127
uld:_BitConverterLE_ToSingle_m3430028734
Hhb:__ZN9InputAxis8TransferI19StreamedBinaryWriteILb0EEEEvRT_
o3b:__Z45Register_UnityEngine_GUIStyle_GetFontInternalv
Lvg:__ZNSt3__112basic_stringIcNS_11char_traitsIcEENS_9allocatorIcEEE6__initIPKcEENS_9enable_ifIXsr21__is_forward_iteratorIT_EE5valueEvE4typeESA_SA_
cyf:__Z48RuntimeInvoker_Void_t2779279689_Byte_t2778693821PK10MethodInfoPvPS2_
nYd:_Context_set_SecurityProtocol_m848973232
P$g:__ZL38U24_t37_CustomAttributesCacheGeneratorP21CustomAttributesCache
g2b:__Z37GUIStyle_Set_Custom_PropStretchHeightP15ScriptingObjecth
mRb:__Z14resize_trimmedINSt3__16vectorI7SubMesh13stl_allocatorIS2_L18MemLabelIdentifier16ELi16EEEEEvRT_j
lWf:_UnityException__ctor_m1176480467
XWa:__Z33Component_CUSTOM_BroadcastMessageP15ScriptingObjectP15ScriptingStringS0_i
Fsf:__Z114RuntimeInvoker_Il2CppObject_Byte_t2778693821_Il2CppObject_SByte_t2855346064_Il2CppObject_Il2CppObject_Il2CppObjectPK10MethodInfoPvPS2_
nde:_CostDelegate_EndInvoke_m917297514
Zie:_InternalEnumerator_1__ctor_m2865872515_gshared
Lfe:_ArrayReadOnlyList_1_RemoveAt_m2867415153_gshared
eR:__ZN10GameObject23VirtualRedirectTransferER18StreamedBinaryReadILb0EE
fHc:_RSACryptoServiceProvider__ctor_m4233192173
yg:_glFrontFace
t2e:_GUISettings_get_cursorFlashSpeed_m3510903059
gma:__Z22RegisterClass_Rendererv
OLd:_UnexceptionalStreamWriter_Write_m2144061973
fce:_Interpreter_Backtrack_m742921570
Z8c:_DBNull_System_IConvertible_ToBoolean_m945636952
yB:__Z35AudioListener_Set_Custom_PropVolumef
Wgf:_AnchorInfo_get_IsPosition_m467864027
Whb:__ZN13BuildSettings8TransferI18StreamedBinaryReadILb1EEEEvRT_
prg:__ZL24il2cpp_codegen_no_returnv15321
Ljd:_Kernel_modInverse_m2730926279
cJg:__ZL60RemotingException_t2970919604_CustomAttributesCacheGeneratorP21CustomAttributesCache
b7d:_AsnEncodedData_ToString_m2998858121
jtd:_Array_InternalArray__ICollection_Remove_TisCustomAttributeNamedArgument_t318735129_m1202792447_gshared
xve:_Module_get_Assembly_m4154223570
yRd:_U24ArrayTypeU2464_t214874644_marshal_pinvoke_cleanup
Rg:_strftime_l
$Tb:__ZN6prcoreL17RemapGenericFloatI17TexFormatRGBFloat18TexFormatRGBAFloatEEvPKNS_9InnerInfoE
laf:_CrossAppDomainChannel_get_ChannelData_m2816187657
gCf:__Z57RuntimeInvoker_Int32_t2847414787_MonoResource_t1936012254PK10MethodInfoPvPS2_
kC:__ZN11AudioSource8TransferI13ProxyTransferEEvRT_
e7g:___towrite
LJ:_UNITY_png_malloc_warn
pxf:__Z68RuntimeInvoker_UInt16_t985925268_UInt16_t985925268_UInt16_t985925268PK10MethodInfoPvPS2_
dCg:__ZL57TypedReference_t1193563574_CustomAttributesCacheGeneratorP21CustomAttributesCache
U1d:_SslStreamBase_SetLength_m1474200217
cBg:__ZL73Il2CppArray_CustomAttributesCacheGenerator_Array_BinarySearch_m3933814211P21CustomAttributesCache
rte:_AssemblyName_SetPublicKeyToken_m3550661833
os:__ZN9AudioClip11CreateSoundEv
Pdf:_LogicalCallContext_Clone_m3487936816
Fob:__ZN13dynamic_arrayIfLj4EE6insertEPfPKfS3_
fw:__ZN20SoundChannelInstance23ApplyBufferedParametersEv
Eqg:__ZN16VirtFuncInvoker2IP14PropertyInfo_tP8String_tiE6InvokeEjPvS3_i
Ggg:_GC_push_gc_structures
i3g:__ZN6il2cpp6icalls8mscorlib6SystemL8IsPublicEPK9EventInfo
lWd:_CipherSuite_Write_m3763647761
c4a:__Z22GetShaderCachePathGLESv
Prd:_ArgumentNullException__ctor_m2162372070
Fme:_ShimEnumerator_Reset_m827449413_gshared
cOe:_HashAlgorithm_TransformFinalBlock_m1193599374
v8e:_ReliabilityContractAttribute__ctor_m1813433017
mPe:_UTF8Encoding_InternalGetByteCount_m776634770
Hqg:__ZN16VirtFuncInvoker0IaE6InvokeEjPv
vjd:_BigInteger_SetBit_m2279269508
QWg:__ZL89Time_t1525492538_CustomAttributesCacheGenerator_Time_get_realtimeSinceStartup_m2972554983P21CustomAttributesCache
uIa:__ZN8keywords6CreateEPKc
ba:Math_imul
Oca:__ZN14SpriteRenderer15SetupPropertiesEv
v8:__ZN14StackAllocator16FrameMaintenanceEb
mzb:__ZN14SafeBinaryRead19TransferSTLStyleMapINSt3__13mapIN9ShaderLab16FastPropertyNameEN18UnityPropertySheet11UnityTexEnvENS1_4lessIS4_EENS1_9allocatorINS1_4pairIKS4_S6_EEEEEEEEvRT_17TransferMetaFlags
N3g:__ZNSt3__16removeINS_11__wrap_iterIPP12Il2CppThreadEES3_EET_S6_S6_RKT0_
zEd:_Int64_System_IConvertible_ToInt16_m3772847328
iEe:_ParameterInfo_IsDefined_m1420905444
c6b:__ZN16CircleCollider2D23VirtualRedirectTransferER18StreamedBinaryReadILb0EE
dmh:_emscripten_glStencilOpSeparate__wrapper
Kjd:_BigInteger_ModInverse_m2802984018
xX:__ZN13ProbeRenderer8ConvolveEbijjb
Waa:__ZN17GenericDynamicVBOC2ER9GfxDevice13GfxBufferModejj
Xcc:__Z28GetPhysics2DScriptingClassesv
YOe:_UTF7Encoding_InternalGetChars_m504744357
dnb:__ZN12ScriptMapper7PRODUCEE18MemLabelIdentifier18ObjectCreationMode
UF:__ZN11UnityEngine15CloudWebService17SessionEventQueue10PurgeItemsEj
MUc:_SimpleEnumerator_get_Current_m2780033260
vza:__ZN13MonoBehaviour18TransferEngineDataI13ProxyTransferEE4PPtrI10MonoScriptERT_
bib:__ZNSt3__16__treeINS_12__value_typeINS_12basic_stringIcNS_11char_traitsIcEENS_9allocatorIcEEEEP15FileSystemEntryEENS_19__map_value_compareIS7_SA_NS_4lessIS7_EELb1EEENS5_ISA_EEE7destroyEPNS_11__tree_nodeISA_PvEE
kSc:_StringBuilder_Remove_m970775893
kfa:__ZN9GfxDevice20DeallocRenderSurfaceEP17RenderSurfaceBase
MM:_unity_z_deflateEnd
G6:__Z5yylexv
OJg:__ZL100X509Certificate_t3432067208_CustomAttributesCacheGenerator_X509Certificate_GetIssuerName_m1001053335P21CustomAttributesCache
tqb:__ZN12BaseRenderer23RendererBecameInvisibleEv
M$c:_Hashtable_set_hcp_m3304781571
qRg:__ZL75X509Chain_t2831591730_CustomAttributesCacheGenerator_U3CU3Ef__switchU24mapBP21CustomAttributesCache
M_g:__ZL112DownloadHandler_t3818353675_CustomAttributesCacheGenerator_DownloadHandler_InternalCreateAssetBundle_m2968064314P21CustomAttributesCache
TVd:_CipherSuite_get_EncryptionCipher_m3951497384
Lng:__ZN16VirtFuncInvoker0IP28NumberFormatInfo_t3411951076E6InvokeEjPv
j8e:_CompilerGeneratedAttribute__ctor_m2546676106
jca:__ZN16MeshVertexFormat23CreateVertexDeclarationEjPKS_
T4c:_Convert_ToInt64_m946235843
_Fd:_BinaryReader_ReadUInt32_m3616500457
dsb:__ZN9GfxDevice9SkinOnGPUERK18VertexStreamSourceP9GfxBufferP17GPUSkinPoseBufferS4_iijb
q_g:__ZL97UnityWebRequest_t1582871641_CustomAttributesCacheGenerator_UnityWebRequest_get_isDone_m3067820008P21CustomAttributesCache
pBg:__ZL49IList_1_t838940445_CustomAttributesCacheGeneratorP21CustomAttributesCache
sde:_GenericGenerator_1__ctor_m1310017228_gshared
h0e:_Playable_Equals_m1149042830
GCf:__Z60RuntimeInvoker_Void_t2779279689_ParameterModifier_t500203470PK10MethodInfoPvPS2_
Dzb:__ZN18IDCollectorFunctorD0Ev
skg:__ZN6il2cpp6icalls8mscorlib6System10Reflection4Emit13DynamicMethod22destroy_dynamic_methodEP29Il2CppReflectionDynamicMethodS7_
ENg:__ZL77Convert_t1097883944_CustomAttributesCacheGenerator_Convert_ToChar_m3357626021P21CustomAttributesCache
Beg:_GC_new_free_list_inner
BRg:__ZL80AsnEncodedData_t4287420181_CustomAttributesCacheGenerator_U3CU3Ef__switchU24mapAP21CustomAttributesCache
x9a:__ZN14RenderSettings7PRODUCEE18MemLabelIdentifier18ObjectCreationMode
Z5e:_GUIUtility_Internal_GetGUIDepth_m2619692036
qqf:__Z76RuntimeInvoker_Il2CppObject_Il2CppObject_Int32_t2847414787_SByte_t2855346064PK10MethodInfoPvPS2_
Tod:_SafeBag_get_ASN1_m1523235481
V7d:_X509BasicConstraintsExtension__ctor_m4274454898
xVd:_Alert_get_Description_m3120128934
aqg:__ZN16VirtFuncInvoker2IbP12Il2CppObjectPiE6InvokeEjPvS1_S2_
v8d:_X509Certificate2_GetValueAsString_m4160591819
zad:_Decimal_t1688557254_marshal_pinvoke
che:_InternalEnumerator_1_get_Current_m3036426419_gshared
dQc:_DecoderExceptionFallbackBuffer_Fallback_m3367248051
_We:_Version_get_Major_m489899787
btf:__Z62RuntimeInvoker_Void_t2779279689_Il2CppObject_Int16_t2847414729PK10MethodInfoPvPS2_
IIb:__Z16Transfer_BuiltinI8Vector4f17RemapPPtrTransferLb1EEvRK29SerializationCommandArgumentsR31RuntimeSerializationCommandInfo
ax:__ZN12SoundManager20RegisterModifiedClipEP10SampleClip
FDb:__Z19TransferField_ArrayI18StreamedBinaryReadILb1EE19Converter_PrimitiveIhEEvRK23StaticTransferFieldInfoR31RuntimeSerializationCommandInfoRT0_
GWf:_Vector4_ToString_m3272970053
u7a:__ZN15dense_hashtableINSt3__14pairIKiP6ObjectEEi21InstanceIDHashFunctorN14dense_hash_mapIiS4_S6_NS0_8equal_toIiEE13stl_allocatorIS5_L18MemLabelIdentifier65ELi16EEE9SelectKeyES9_SC_E12resize_deltaEjj
Nu:__ZN11AudioSource4PlayEd
wJd:_Path_WindowsDriveAdjustment_m578050859
Jk:_cos
nme:_ShimEnumerator_get_Entry_m4239870524_gshared
DVb:__ZN14qsort_internal8_QSortMTIP15RODataDepthPassi17ROSorterDepthPassE10CleanupJobEPS4_
VPa:__ZNK20LocalFileSystemPosix8IsHiddenERK13FileEntryData
pjf:_Uri_get_IsAbsoluteUri_m145672153
Gwf:__Z103RuntimeInvoker_Void_t2779279689_Int32_t2847414787_Int32_t2847414787_Int32_t2847414787_Int32_t2847414787PK10MethodInfoPvPS2_
Cma:__ZThn28_NK8Renderer8GetLayerEv
ikg:__ZN6il2cpp5utils9PathUtils7CombineERKNSt3__112basic_stringIcNS2_11char_traitsIcEENS2_9allocatorIcEEEESA_
HJg:__ZL60SerializationInfo_t2995724695_CustomAttributesCacheGeneratorP21CustomAttributesCache
F_c:_BitArrayEnumerator__ctor_m1920950519
YCf:__Z69RuntimeInvoker_Void_t2779279689_Int32_t2847414787_DateTime_t339033936PK10MethodInfoPvPS2_
Cie:_InternalEnumerator_1_System_Collections_IEnumerator_Reset_m3034770946_gshared
vja:__ZN7Cubemap23VirtualRedirectTransferER18StreamedBinaryReadILb0EE
_pc:__ZN20TextRenderingPrivate4Font8TransferI17RemapPPtrTransferEEvRT_
Ivc:__ZNSt3__16vectorIN20TextRenderingPrivate4Font13CharacterInfoE13stl_allocatorIS3_L18MemLabelIdentifier34ELi16EEE6assignINS_11__wrap_iterIPS3_EEEENS_9enable_ifIXaasr21__is_forward_iteratorIT_EE5valuesr16is_constructibleIS3_NS_15iterator_traitsISD_E9referenceEEE5valueEvE4typeESD_SD_
s6e:_DefaultValueAttribute_Equals_m1990537309
fng:__ZN16VirtFuncInvoker0IP12MemberInfo_tE6InvokeEjPv
ogd:_U24ArrayTypeU2424_t214874519_marshal_pinvoke
vKa:__ZN12FileAccessor4SeekEx10FileOrigin
PNf:_SafeBag_get_BagOID_m2256458192
mLg:__ZL53IPrincipal_t1145956874_CustomAttributesCacheGeneratorP21CustomAttributesCache
lne:_Transform_1_BeginInvoke_m2253318505_gshared
d8e:_RuntimeResourceSet__ctor_m1737082738
Axb:__ZN15UniformTFMethod15UnmapBoneBufferEv
cfe:_ArrayReadOnlyList_1_IndexOf_m1098739118_gshared
IXa:__Z39Register_UnityEngine_Time_get_timeScalev
Iv:__ZN10AudioMixer11SetupGroupsEv
Ktd:_Array_InternalArray__IEnumerable_GetEnumerator_TisChar_t2778706699_m830381039_gshared
jvg:__ZN6il2cpp2vmL16IsGenericCMethodEP12Il2CppObject
f1b:__Z35Register_UnityEngine_Event_get_typev
XPf:_X509Extension_get_Oid_m1309247492
FJ:_UNITY_png_free
ghg:_GC_enable
Mud:_Array_IndexOf_TisIl2CppObject_m2661005505_gshared
YCg:__ZL81Hashtable_t3875263730_CustomAttributesCacheGenerator_Hashtable_Remove_m2304720630P21CustomAttributesCache
KZf:_EqualityComparer_1__ctor_m626458549_gshared
sMd:_MemberAccessException__ctor_m2147680482
ZSd:_PrimalityTests_GetSPPRounds_m3682781848
dte:_AssemblyName_get_Name_m1123490526
Gk:_glStencilOp
Tdf:_MethodCall_get_Args_m2777349738
eEa:__ZN13ProxyTransfer20TransferTypelessDataEjPvi
oHg:__ZL53_Activator_t2192934744_CustomAttributesCacheGeneratorP21CustomAttributesCache
uu:__ZN11AudioSource5ResetEv
Nfd:_DateTimeFormatInfo_PopulateCombinedList_m498527762
prd:_AppDomain_InternalGetContext_m41184350
Dqa:__ZN14Texture2DArray23VirtualRedirectTransferER18StreamedBinaryReadILb0EE
Vla:__ZN2UI13RectTransform13AwakeFromLoadE17AwakeFromLoadMode
$8a:__ZL27GetDestRenderTargetSurfacesP13RenderTextureR12ObjectHandleI17RenderSurface_TagP17RenderSurfaceBaseES6_
ITf:_Quaternion_t1891715979_marshal_pinvoke_back
sE:__ZN19CloudServiceHandler17PlayerLoopHandlerEv
Bwf:__Z54RuntimeInvoker_TimeSpan_t763862892_DateTime_t339033936PK10MethodInfoPvPS2_
tpg:__ZN21InterfaceFuncInvoker0IP21WaitHandle_t361062656E6InvokeEjP11Il2CppClassPv
gtd:_Array_InternalArray__ICollection_Remove_TisInt64_t2847414882_m4004071486_gshared
LIg:__ZL57ProxyAttribute_t4025161600_CustomAttributesCacheGeneratorP21CustomAttributesCache
tHf:_List_1_set_Item_m1074271145_gshared
pGe:_SoapTypeAttribute_get_XmlTypeNamespace_m1186792374
U2c:_Double_IsNaN_m506471885
lIa:__ZN6Shader23VirtualRedirectTransferER13ProxyTransfer
T$c:_Hashtable__ctor_m346689243
rMg:__ZL94UnicodeEncoding_t909387252_CustomAttributesCacheGenerator_UnicodeEncoding_GetBytes_m1942137033P21CustomAttributesCache
iEb:__Z16Transfer_BuiltinI8Vector3f14SafeBinaryReadLb0EEvRK29SerializationCommandArgumentsR31RuntimeSerializationCommandInfo
yAb:__Z22Transfer_Builtin_AlignIh18StreamedBinaryReadILb1EELb0EEvRK29SerializationCommandArgumentsR31RuntimeSerializationCommandInfo
kl:_glGetStringi
HRf:_UnityWebRequest_Post_m3509843812
JIb:__Z16Transfer_BuiltinI5RectTIfE17RemapPPtrTransferLb1EEvRK29SerializationCommandArgumentsR31RuntimeSerializationCommandInfo
oDc:__Z67Register_UnityEngine_Networking_UnityWebRequest_get_useHttpContinuev
Und:_SymmetricTransform_CBC_m3015659530
HWc:_Convert_ToInt64_m4109529146
kud:_Array_InternalArray__IEnumerable_GetEnumerator_TisX509ChainStatus_t1122151684_m2152964560_gshared
Wcb:__ZNSt3__16vectorI7SubMesh13stl_allocatorIS1_L18MemLabelIdentifier16ELi16EEE8__appendEj
ave:_ConstructorBuilder_not_supported_m993826647
fBb:__ZN6HelperI18StreamedBinaryReadILb1EE23TransferArrayField_InfoLb1EE24SerializationFunctionForERKS2_R23StaticTransferFieldInfoPb
Yha:__Z20scripting_gc_collecti
wHf:_List_1__cctor_m3694987882_gshared
ijf:_Uri__ctor_m2876888702
eub:__ZN13ScreenManager16SetScreenTimeoutEi
cCb:__Z19TransferField_ArrayI18StreamedBinaryReadILb1EE19Converter_PrimitiveI11ColorRGBA32EEvRK23StaticTransferFieldInfoR31RuntimeSerializationCommandInfoRT0_
kzd:_Array_Sort_TisIl2CppObject_m1017714568_gshared
kJf:_Collection_1_System_Collections_IList_Insert_m2187188150_gshared
l2:__Z35IntersectSpherePlaneBoundsOptimizedRKN4math7_float4EPS1_i
HEd:_Int64_System_IConvertible_ToUInt64_m3148063152
dOe:_HMAC__ctor_m1246202746
Ijd:_BigInteger_op_Equality_m3743829593
R2d:_U24ArrayTypeU24128_t2366141827_marshal_pinvoke
P2:__Z22CleanupLODGroupManagerPv
Sl:_glUniform3fv
s3d:_ListDictionary_get_Item_m151625826
Xnc:_UNITY_FT_Init_Class_tt_service_gx_multi_masters
yMd:_MissingFieldException__ctor_m237625228
xKf:_Collection_1_Add_m1900106744_gshared
Xxe:_GenericTypeParameterBuilder_get_Module_m4212322478
cib:__ZNSt3__16__treeINS_12__value_typeIi10vector_setIiNS_4lessIiEENS_9allocatorIiEEEEENS_19__map_value_compareIiS8_S4_Lb1EEENS5_IS8_EEE7destroyEPNS_11__tree_nodeIS8_PvEE
dla:__ZNK16LightmapSettings31GetRealtimeLightmapDecodeValuesEv
Pv:__ZN5audio5mixer12SetSuspendedERNS0_16AudioMixerMemoryEb
YFa:__ZN17PersistentManager21UnloadNonDirtyStreamsEv
C7f:__ZN6il2cpp2vm13LivenessStateC2EP11Il2CppClassjPFvPP12Il2CppObjectiPvES7_PFvvESB_
E$e:_UnityEventBase__ctor_m199506446
sVg:__ZL107Object_t3878351788_CustomAttributesCacheGenerator_Object_GetOffsetOfInstanceIDInCPlusPlusObject_m1992516375P21CustomAttributesCache
jm:_emscripten_glDepthMask
pKd:_NullStreamReader_ReadToEnd_m2254213202
dja:__ZN4crnd25static_huffman_data_model22prepare_decoder_tablesEv
fqa:__ZN9Texture2D23VirtualRedirectTransferER17RemapPPtrTransfer
_Ec:_KeySizes_IsLegalKeySize_m620693618
jGd:_Directory_Exists_m4117375188
E$b:__Z23GUIStatePopDisplayIndexv
fdf:_ConstructionCall_InitDictionary_m600871527
KZb:__ZL22CleanupUnityWebStreamsPv
EXg:__ZL82Event_t1590224583_CustomAttributesCacheGenerator_Event_get_commandName_m1197792621P21CustomAttributesCache
Mwf:__Z40RuntimeInvoker_AddressFamily_t1632127208PK10MethodInfoPvPS2_
vqh:_emscripten_glEnableClientState__wrapper
dMb:__Z16Transfer_BuiltinI8BitField19StreamedBinaryWriteILb0EELb1EEvRK29SerializationCommandArgumentsR31RuntimeSerializationCommandInfo
xP:__ZN11GameManager15ThreadedCleanupEv
uhd:_MSCompatUnicodeTable_GetTailoringInfo_m350198803
PT:__ZNK6Camera16GetStereoEnabledEv
dgd:_U24ArrayTypeU24136_t2366141855_marshal_pinvoke_back
KW:__ZN12LightManager15InitializeClassEv
w2f:__ZN6il2cpp2vm8basepathEPKc
hXd:_CipherSuiteFactory_GetSsl3SupportedCiphers_m2259956690
cCa:__ZN18ScriptingArgumentsC2Ev
LFg:__ZL113ConstructorInfo_t3542137334_CustomAttributesCacheGenerator_ConstructorInfo_t3542137334____MemberType_PropertyInfoP21CustomAttributesCache
MKg:__ZL58RijndaelManaged_t2043993497_CustomAttributesCacheGeneratorP21CustomAttributesCache
bmh:_emscripten_glBlendFuncSeparate__wrapper
eNd:_MonoTODOAttribute__ctor_m3185129988
N6c:_DateTime_System_IConvertible_ToDecimal_m53652706
vUc:_Array_Sort_m2177774092
Vef:_Enumerator_System_Collections_IEnumerator_get_Current_m360409
q8b:__Z25b2CollidePolygonAndCircleP10b2ManifoldPK14b2PolygonShapeRK11b2TransformPK13b2CircleShapeS6_
$p:__ZN8Vector3f8TransferI14SafeBinaryReadEEvRT_
Go:FUNCTION_TABLE_ii
t8a:__ZN10TagManager8TransferI18StreamedBinaryReadILb0EEEEvRT_
vy:__ZN4FMOD4DSPI6removeEv
Pge:_InternalEnumerator_1_System_Collections_IEnumerator_get_Current_m1713001566_gshared
kb:invoke_diiii
oyg:__ZL75SByte_t2855346064_CustomAttributesCacheGenerator_SByte_TryParse_m1515780220P21CustomAttributesCache
qxd:_Array_InternalArray__ICollection_CopyTo_TisKeyframe_t2095052507_m876943730_gshared
WDg:__ZL69DirectoryNotFoundException_t1466949242_CustomAttributesCacheGeneratorP21CustomAttributesCache
knc:_UNITY_FT_Destroy_Class_sfnt_services
Ry:__ZN4FMOD7SystemI9getDriverEPi
Msf:__Z129RuntimeInvoker_Void_t2779279689_Il2CppObject_Il2CppObject_Int64_t2847414882_ObjectU26_t426379564_SerializationInfoU26_t3740776577PK10MethodInfoPvPS2_
HOg:__ZL79Convert_t1097883944_CustomAttributesCacheGenerator_Convert_ToUInt16_m3455690438P21CustomAttributesCache
v3:__Z9EndJobSetR8JobFence11JobPriority
W7e:_ResourceSet_Dispose_m1480295523
dhb:__ZN9Texture3D8TransferI19StreamedBinaryWriteILb0EEEEvRT_
OT:__ZNK6Camera22CalculateRenderingPathEv
pih:dynCall_iiiiiiiiiiiiii
Tzg:__ZL73Enum_t2778772662_CustomAttributesCacheGenerator_Enum_ToObject_m1129836274P21CustomAttributesCache
lIe:_TrackingServices__cctor_m1041791976
V$e:_Playable_t3404354247_marshal_pinvoke_cleanup
JKe:_pinvoke_delegate_wrapper_CallbackHandler_t3576143653
DHb:__ZL12InvokeMethodI17RemapPPtrTransferEvRK29SerializationCommandArgumentsR31RuntimeSerializationCommandInfo
$Sf:_Object_DestroyImmediate_m1826427014
eHc:_RSACryptoServiceProvider__ctor_m32080133
jra:__Z14IsHalfRTFormat19RenderTextureFormat
Oec:__ZN15b2DistanceJointD0Ev
Jia:__ZN11MonoManager25GetAssemblyIndexFromImageEP14ScriptingImage
avf:__Z50RuntimeInvoker_UInt32_t985925326_SByte_t2855346064PK10MethodInfoPvPS2_
nig:__ZN6il2cpp6icalls8mscorlib6System9Threading16NativeEventCalls20CreateEvent_internalEbbP12Il2CppStringPb
m2b:__Z32GUIStyle_Set_Custom_PropFontSizeP15ScriptingObjecti
gdh:__ZNKSt3__19money_putIwNS_19ostreambuf_iteratorIwNS_11char_traitsIwEEEEE6do_putES4_bRNS_8ios_baseEwRKNS_12basic_stringIwS3_NS_9allocatorIwEEEE
gzc:__ZN22CrashReportingSettings15InitializeClassEv
Hjd:_BigInteger_Equals_m2754111464
jfg:_GC_add_map_entry
j$:__ZN18DeferredRenderLoop13RenderGBufferEP13RenderTexturePS1_b8JobFencePK25DeferredRenderLoopScratchRi
zac:__ZN15b2ContactSolver9WarmStartEv
yQf:_DownloadHandler_InternalCreateAssetBundle_m4164801108
PUe:_UInt16_CompareTo_m2335401604
Lze:_TypeBuilder_get_UnderlyingSystemType_m301071877
Wvg:__ZN6il2cpp6icalls8mscorlib6System9ThreadingL11ThreadStartEPv
Rpd:_X509CertificateCollection_get_Item_m1700022920
Tjg:__ZN6il2cpp2vm9LastError31InitializeLastErrorThreadStaticEv
Zrb:__ZN9GfxDevice12DeleteBufferEP9GfxBuffer
tSc:_StringBuilder_Insert_m1867188302
EVb:__ZN14qsort_internal31_FindAndMovePivotToLastPositionIP15RODataDepthPassi17ROSorterDepthPassEEvT_S4_T0_T1_
o4:__ZN12CachedReader10Align4ReadEv
w8b:__ZN15b2WorldManifold10InitializeEPK10b2ManifoldRK11b2TransformfS5_f
yIg:__ZL61LogicalCallContext_t1074763138_CustomAttributesCacheGeneratorP21CustomAttributesCache
vig:__ZN6il2cpp5utils5MatchENSt3__112basic_stringIcNS1_11char_traitsIcEENS1_9allocatorIcEEEERKS7_
F2d:_BasicConstraintsExtension_get_CertificateAuthority_m1090073055
Xif:_Reference_GetWidth_m2365245465
uYg:__ZL78GUISkin_t2614611333_CustomAttributesCacheGenerator_m_verticalScrollbarUpButtonP21CustomAttributesCache
n$e:_Event_get_modifiers_m4020990886
eAb:__ZNK28MonoBehaviourPropertyBinding12SetPPtrValueERKN11UnityEngine9Animation10BoundCurveEi
cW:__ZN11HaloManager17RenderGeometryJobEP22HaloManagerGeometryJob
xRd:_U24ArrayTypeU2464_t214874644_marshal_pinvoke_back
BJc:_TripleDESCryptoServiceProvider_GenerateIV_m1507918646
Vse:_AssemblyConfigurationAttribute__ctor_m4121139744
HIc:_SHA512Managed_processWord_m2245859317
hVd:_ContentInfo__ctor_m2758504540
xee:_Action_1__ctor_m881151526_gshared
Ida:__ZN18AsyncUploadManagerC2Ev
$fc:__ZN15ContactFilter2DD0Ev
Qtc:_ft_black_new
H$c:_Hashtable__ctor_m1514037738
_Eg:__ZL54TypeBuilder_t4287691406_CustomAttributesCacheGeneratorP21CustomAttributesCache
Tvb:__ZN17FileSystemHandler4CopyER13FileEntryDataS1_
Gwd:_Array_InternalArray__ICollection_CopyTo_TisByte_t2778693821_m1825253014_gshared
GMf:_Predicate_1_BeginInvoke_m2038073176_gshared
ekh:_emscripten_glUniform4f__wrapper
vOd:_MulticastDelegate_Equals_m1775662595
uG:__ZNK11UnityEngine15CloudWebService14JsonBaseObject12GetArraySizeEv
Mdf:_LogicalCallContext__ctor_m2483628683
zT:__ZNK6Camera16GetProjectionFarEv
ihb:__Z24InverseTransformRotationRK23TransformAccessReadOnlyRKN4math7_float4E
gLb:__ZL26Transfer_SimpleNativeClassI19StreamedBinaryWriteILb0EE8GUIStyleLb0EEvRK29SerializationCommandArgumentsR31RuntimeSerializationCommandInfo
IKg:__ZL71RSAPKCS1SignatureDeformatter_t1504052144_CustomAttributesCacheGeneratorP21CustomAttributesCache
pyg:__ZL48Int16_t2847414729_CustomAttributesCacheGeneratorP21CustomAttributesCache
_u:__ZN11AudioSource6UpdateEv
usb:__ZN9GfxDevice21ResetDynamicResourcesEv
rGg:__ZL60StrongNameKeyPair_t2760016869_CustomAttributesCacheGeneratorP21CustomAttributesCache
$md:_PKCS1_RSAVP1_m3152001232
maa:__ZNK3WWW17GetSecurityPolicyEv
Dwc:__ZN20UnityConnectSettings23VirtualRedirectTransferER18StreamedBinaryReadILb1EE
cdf:_MethodCall__ctor_m4232248307
$$e:_GenericMixerPlayable_InternalCreate_m1179042611
WP:__ZN17GlobalGameManager23VirtualRedirectTransferER18StreamedBinaryReadILb0EE
bHd:_FileStream__ctor_m3446221265
DLd:_NullTextWriter_Write_m1740671447
F$a:__ZNK13TranslateGLES6EnableEN2gl10EnabledCapE
gx:__ZN16BaseVideoTexture19UpdateVideoTexturesEv
$ka:__ZNK16LightmapSettings23HasLightProbeTetrahedraEv
Boa:__ZN6Sprite23VirtualRedirectTransferER19StreamedBinaryWriteILb0EE
A5e:_GUIStyle_INTERNAL_CALL_Internal_Draw2_m1512749466
Xbd:_Double_System_IConvertible_ToUInt16_m3970470150
PCc:__Z37UnityWebRequest_Get_Custom_PropIsDoneP15ScriptingObject
jOd:_MonoType_get_Namespace_m1531779339
Xd:_emscripten_glVertexPointer
Y1:__Z17GetFrustumPortionPK8Vector3fffPS_
dhd:_TableRange__ctor_m3599194282
Wxf:__Z53RuntimeInvoker_Void_t2779279689_StringU26_t2030016554PK10MethodInfoPvPS2_
uSf:_UnityWebRequest_IsHeaderNameLegal_m1178792156
kEb:__Z16Transfer_BuiltinI8Vector4f14SafeBinaryReadLb0EEvRK29SerializationCommandArgumentsR31RuntimeSerializationCommandInfo
Y0d:_SslStreamBase_RaiseLocalCertificateSelection_m3048410672
p2b:__Z32GUIStyle_Get_Custom_PropRichTextP15ScriptingObject
LYc:_ArrayList_AddRange_m92466430
oue:_DefaultMemberAttribute__ctor_m66421301
pgf:_Parser_GetMapping_m2242103141
qea:__ZN14ChannelAssigns4BindE13ShaderChannel15VertexComponent
bvd:_Array_InternalArray__IndexOf_TisLink_t2496691359_m2429713216_gshared
lXe:_WeakReference__ctor_m2482272510
ahf:_ExpressionCollection_set_Item_m3407994931
obc:__ZN11b2GearJoint4DumpEv
xwc:__Z34RegisterClass_UnityConnectSettingsv
okf:_UriParser_OnRegister_m3986311499
s7d:_Oid__ctor_m49113285
iMe:_SByte_ToString_m926863599
fRa:__Z11IsBatchmodev
gOg:__ZL78Convert_t1097883944_CustomAttributesCacheGenerator_Convert_ToSByte_m3378162843P21CustomAttributesCache
HFd:_EndOfStreamException__ctor_m2858794028
Jce:_InterpreterFactory_set_NamesMapping_m2940156550
mGg:__ZL61PropertyAttributes_t3095558010_CustomAttributesCacheGeneratorP21CustomAttributesCache
b_b:__ZN13RuntimeStaticINSt3__13mapINS0_4pairIPcS3_EEPFbPvR14SafeBinaryReadE20smaller_cstring_pairNS0_9allocatorINS2_IKS4_S9_EEEEEEE13StaticDestroyES5_
FJb:__ZN10RectOffset8TransferI18StreamedBinaryReadILb0EEEEvRT_
ERg:__ZL60CaptureCollection_t1466462303_CustomAttributesCacheGeneratorP21CustomAttributesCache
V2g:__ZNSt3__112__hash_tableINS_17__hash_value_typeINS_4pairIPK14Il2CppAssemblyP11Il2CppClassEEP24Il2CppReflectionAssemblyEENS_22__unordered_map_hasherIS8_SB_17ReflectionMapHashIS8_ELb1EEENS_21__unordered_map_equalIS8_SB_19ReflectionMapEqualsIS8_ELb1EEEN6il2cpp2gc9AllocatorISB_EEE20__node_insert_uniqueEPNS_11__hash_nodeISB_PvEE
oBd:_GregorianCalendar_GetDayOfWeek_m3196705338
w2e:_GUISkin__ctor_m3819836417
hEf:__Z39RuntimeInvoker_MonoResource_t1936012254PK10MethodInfoPvPS2_
cCd:_SortKey__ctor_m1693041873
Icc:__ZNK12b2WheelJoint10GetAnchorBEv
BPb:__ZN15SerializeTraitsI13dynamic_arrayI33EnlightenTerrainChunksInformationLj4EEE19ResizeSTLStyleArrayERS2_i18MemLabelIdentifier
y4f:_il2cpp_gc_collect
nRb:__ZN7SubMesh8TransferI18StreamedBinaryReadILb1EEEEvRT_
NSb:__ZNSt3__114__split_bufferIPPN9ShaderLab17ParserShaderStateENS_9allocatorIS4_EEE10push_frontERKS4_
cdh:__ZNSt3__19money_putIwNS_19ostreambuf_iteratorIwNS_11char_traitsIwEEEEED0Ev
bQc:_DecoderFallbackBuffer__ctor_m2764245520
b3g:__ZL10roundUp128PyS_
BE:__ZN11UnityEngine15CloudWebService17CloudJobSchedulerD0Ev
PBa:__ZN18LoadSceneOperation7PerformEv
Qwe:_EnumBuilder_GetMethods_m2248069569
pXd:_ClientContext_Clear_m2709420165
VFd:_BinaryReader_ReadInt64_m2883282109
D3e:_SkinChangedDelegate_EndInvoke_m3094371710
Pxf:__Z93RuntimeInvoker_Void_t2779279689_Il2CppObject_Il2CppObject_SByte_t2855346064_SByte_t2855346064PK10MethodInfoPvPS2_
_$b:__Z21CleanupGlobalGUIStatev
fib:__ZL23AddConflictingClassIMPL11ClassIDTypeS_
hMd:_MarshalByRefObject_get_ObjectIdentity_m426029982
IBa:__ZNK11PreloadData25GetClassIDVirtualInternalEv
Pga:__ZN22VertexDeclarationCache5ClearEv
qBe:_MethodInfo_get_IsGenericMethodDefinition_m1886989779
$xd:_Array_InternalArray__Insert_TisTimeSpan_t763862892_m3352532996_gshared
Vtb:__ZN13RenderTexture17UploadToGfxDeviceEv
mPg:__ZL156DateTimeOffset_t3712260035_CustomAttributesCacheGenerator_DateTimeOffset_System_Runtime_Serialization_IDeserializationCallback_OnDeserialization_m3161484655P21CustomAttributesCache
My:__ZN4FMOD7SystemI18createChannelGroupEPKcPPNS_12ChannelGroupE
LT:__ZN6Camera24PrepareCullingParametersERK23CameraCullingParameters13RenderingPathR11CullResults
E$g:__ZL86Logger_t3804382717_CustomAttributesCacheGenerator_Logger_get_filterLogType_m1512373196P21CustomAttributesCache
wnf:__Z52RuntimeInvoker_Decimal_t1688557254_Int32_t2847414787PK10MethodInfoPvPS2_
UHb:__Z26Transfer_UnityEngineObjectI17RemapPPtrTransferLb0EEvRK29SerializationCommandArgumentsR31RuntimeSerializationCommandInfo
xvd:_Array_InternalArray__IndexOf_TisX509ChainStatus_t1122151684_m368879979_gshared
sWd:_Context_GetSecureRandomBytes_m3225475755
GSa:__ZN17WeakPtrSharedDataD0Ev
I1g:__ZNSt3__16vectorINS_12basic_stringIcNS_11char_traitsIcEENS_9allocatorIcEEEENS4_IS6_EEEC2ERKS8_
ZXd:_ClientSessionInfo_get_Valid_m3298602216
GVd:_CertificateValidationCallback__ctor_m2692809593
ACb:__Z19TransferField_ArrayI18StreamedBinaryReadILb1EE19Converter_PrimitiveI8Vector4fEEvRK23StaticTransferFieldInfoR31RuntimeSerializationCommandInfoRT0_
jDf:__Z77RuntimeInvoker_Void_t2779279689_Int32_t2847414787_X509ChainStatus_t1122151684PK10MethodInfoPvPS2_
yfg:_GC_adj_bytes_allocd
Wle:_Enumerator_VerifyState_m3658372295_gshared
Fvd:_Array_InternalArray__IndexOf_TisContactPoint2D_t3963746319_m1566338272_gshared
nDe:_MonoMethod_get_IsGenericMethod_m1007555531
O0c:_HashValues_get_Count_m2417436125
vtg:__ZNSt3__113__vector_baseIjNS_9allocatorIjEEED2Ev
koe:_ValueCollection_System_Collections_IEnumerable_GetEnumerator_m3055859895_gshared
Vbc:__ZN13b2PulleyJoint24SolveVelocityConstraintsERK12b2SolverData
Ohb:__ZNK17AnimationCurveTplIfE20FindIndexForSamplingERKNS0_5CacheEfRiS4_
Gae:_X509Extension__ctor_m2269929986
q9e:_SafeHandle_SetHandle_m1470505077
rRg:__ZL75X509Chain_t2831591730_CustomAttributesCacheGenerator_U3CU3Ef__switchU24mapCP21CustomAttributesCache
cva:__ZN20SphericalHarmonicsL219AddDirectionalLightERKN4math7_float3ERKNS0_7_float4E
hib:__ZL30CollectComponentsWithoutAddingR10GameObjectiP14ScriptingClassR13dynamic_arrayI16AddComponentDataLj4EES6_PNSt3__112basic_stringIcNS7_11char_traitsIcEENS7_9allocatorIcEEEE
r3:__Z26ScheduleJobForEachInternalR8JobFencePFvPvjES1_iPFvS1_E11JobPriority
Vga:__ZN9Scripting18RaiseMonoExceptionEPKcz
kqa:__ZN9Texture2D8TransferI19StreamedBinaryWriteILb0EEEEvRT_
XOa:__ZN24RingBufferMemoryFileData6UnlockEPv
QTd:_HMAC_get_Key_m2760207782
W4:__ZN9ShaderLab16FastPropertyName15InitBy28BitHashEj
L3e:_GUIStyle_InternalOnAfterDeserialize_m1012732492
ijb:__ZN13MonoBehaviour18TransferEngineDataI18StreamedBinaryReadILb0EEEE4PPtrI10MonoScriptERT_
eYd:_ClientSessionCache_SetContextFromCache_m2249085247
Tse:_Assembly_GetManifestModuleInternal_m158430201
Haa:__ZN17PackedFloatVector12UnpackFloatsEPfiiii
Qwg:__ZNSt3__112basic_stringItNS_11char_traitsItEENS_9allocatorItEEED2Ev
Z0d:_SslClientStream_OnLocalPrivateKeySelection_m3261566884
C3a:__ZN13GfxDeviceGLES21DestroyComputeProgramER12ObjectHandleI18ComputeProgram_TagPvE
J6c:_DateTime_System_IConvertible_ToBoolean_m2607169538
hte:_AssemblyName_get_FullName_m2880072013
rYf:_DefaultComparer_Equals_m2783841258_gshared
Noe:_ValueCollection_CopyTo_m3524503962_gshared
ySa:__ZN17UniqueIDGenerator16DestroyPureIndexEj
hXe:_Version_op_Inequality_m4221983316
x6c:_DaylightTime_get_Start_m3918072881
Xqb:__ZNK13BaseAllocator10IsAssignedEv
K4b:__ZN24TextDOMTransferWriteBaseI9JSONWriteE12PushMetaFlagEi
CKg:__ZL52RIPEMD160_t2080656385_CustomAttributesCacheGeneratorP21CustomAttributesCache
Kaf:_ConfigHandler_OnIgnorableWhitespace_m3445514551
VUb:__ZN6prcoreL26RemapGenericIntegerToFloatI17TexFormatARGB888815TexFormatRFloatEEvPKNS_9InnerInfoE
zJa:__ZN5Mutex6UnlockEv
q6f:__ZN6il2cpp2vm17TypeNameParseInfoD2Ev
vLe:_RuntimeMethodHandle_GetObjectData_m3915325998
Bma:__ZNK8Renderer8GetLayerEv
tFd:_InvalidCastException__ctor_m2881613629
uV:__ZN12FlareManager11DeleteFlareEi
Dlh:_glProgramBinary__wrapper
vOb:__ZNSt3__113move_backwardIP10InputEventS1_S2_RS1_PS2_iLi85EEENS_16__deque_iteratorIT0_T1_T2_T3_T4_XT5_EEET_SC_SB_PNS_9enable_ifIXsr27__is_random_access_iteratorISC_EE5valueEvE4typeE
FRd:_BigInteger__ctor_m1050530395
fZb:__ZL23stbir__calculate_memoryP11stbir__info
rkg:__ZN6il2cpp6icalls8mscorlib6System10Reflection4Emit13DynamicMethod21create_dynamic_methodEP29Il2CppReflectionDynamicMethodS7_
fzc:__ZN22CrashReportingSettingsC2ER6Object
pJa:__Z36UnityPropertySheet_MakeSortedTexEnvsRKNSt3__13mapIN9ShaderLab16FastPropertyNameEN18UnityPropertySheet11UnityTexEnvENS_4lessIS2_EENS_9allocatorINS_4pairIKS2_S4_EEEEEER10vector_mapIS2_S4_S6_NS7_INS8_IS2_S4_EEEEE
mK:_UNITY_png_handle_sRGB
rJe:_BinaryFormatter_ReadBinaryHeader_m258242310
Gp:__ZN9Behaviour11FixedUpdateEv
JCf:__Z59RuntimeInvoker_Void_t2779279689_X509ChainStatus_t1122151684PK10MethodInfoPvPS2_
I4b:__ZNK9rapidjson12GenericValueINS_4UTF8IcEE13JSONAllocatorE6AcceptINS_12PrettyWriterI16TempBufferWriterS2_S2_S3_EEEEbRT_
J9b:__ZN16b2ContactManager15FindNewContactsEv
GDb:__ZN18StreamedBinaryReadILb1EE8TransferINSt3__16vectorIh13stl_allocatorIhL18MemLabelIdentifier1ELi16EEEEEEvRT_PKc17TransferMetaFlags
nPf:_X509CertificateEnumerator_System_Collections_IEnumerator_get_Current_m974397704
_Eb:__Z16Transfer_BuiltinIf14SafeBinaryReadLb1EEvRK29SerializationCommandArgumentsR31RuntimeSerializationCommandInfo
hgd:_U24ArrayTypeU2416_t214874490_marshal_pinvoke_cleanup
DO:__ZN6ObjectD2Ev
_Uf:_SceneManager_Internal_ActiveSceneChanged_m3583151927
Cme:_ShimEnumerator_get_Key_m3361638295_gshared
POg:__ZL79Convert_t1097883944_CustomAttributesCacheGenerator_Convert_ToUInt32_m3676846822P21CustomAttributesCache
hHd:_FileStream_get_CanRead_m3703756390
$we:_EnumBuilder_IsValueTypeImpl_m3904157452
NXf:_SymmetricTransform_TransformBlock_m1944043099
BBe:_Module_IsDefined_m3759276225
gsg:__ZN23InterfaceActionInvoker3IP8String_tbbE6InvokeEjP11Il2CppClassPvS1_bb
zSe:_TimeSpan_GetHashCode_m3188156777
gOe:_HMAC_set_HashName_m876988162
bAe:_TypeBuilder_IsArrayImpl_m1759767571
ple:_Enumerator_MoveNext_m1213995029_gshared
EWg:__ZL83GameObject_t4012695102_CustomAttributesCacheGenerator_GameObject_set_tag_m859036203P21CustomAttributesCache
x6g:___cxa_can_catch
tFc:_MD5CryptoServiceProvider_ProcessFinalBlock_m2458243595
nid:_SortKeyBuffer_AppendCJKExtension_m2180112849
PQe:_Thread_GetSerializedCurrentUICulture_m4095015032
$ye:_MethodBuilder_get_IsGenericMethod_m3124339088
XTa:__Z32RectOffset_Set_Custom_PropBottomP15ScriptingObjecti
Lv:__ZN10AudioMixer6UpdateEf
H$a:__ZNK13TranslateGLES23VertexArraySizeBitfieldEi
mJc:_ToBase64Transform_Finalize_m1322714047
Zag:__ZN6il2cpp2os5posix15PosixWaitObjectC2ENS2_4TypeE
oWg:__ZL98Component_t2126946602_CustomAttributesCacheGenerator_Component_SendMessage_m1163914169____options2P21CustomAttributesCache
IEc:_HMACSHA384_set_ProduceLegacyHmacValues_m1568488641
JCd:_Guid_CompareTo_m4163940548
Ulh:_emscripten_glVertexPointer__wrapper
Q4:__ZN23ShaderVariantCollection13WarmupShadersEv
dAd:_Array_InternalArray__get_Item_TisDictionaryEntry_t130027246_m297283038_gshared
sob:__ZNSt3__112basic_stringIcNS_11char_traitsIcEE13stl_allocatorIcL18MemLabelIdentifier66ELi16EEE7reserveEj
hD:__ZN11AudioModule20SuspendVideoTexturesEv
tbb:__ZNSt3__16__treeINS_12__value_typeIiiEENS_19__map_value_compareIiS2_NS_4lessIiEELb1EEENS_9allocatorIS2_EEE7destroyEPNS_11__tree_nodeIS2_PvEE
dCa:__ZN18ScriptingArguments10AddBooleanEb
q5b:__ZN10Collider2D16RecreateColliderEbP11Rigidbody2D
IGd:_EndOfStreamException__ctor_m1615815533
jle:_Enumerator__ctor_m2377115088_gshared
qjc:_UNITY_FT_GlyphLoader_CheckPoints
fpa:__ZN7Texture23VirtualRedirectTransferER18StreamedBinaryReadILb0EE
Lqe:_Dictionary_2_System_Collections_IDictionary_Add_m3361938684_gshared
Sze:_TypeBuilder_DefineDefaultConstructor_m4180060431
y_g:__ZL106UnityWebRequest_t1582871641_CustomAttributesCacheGenerator_UnityWebRequest_set_chunkedTransfer_m3848763846P21CustomAttributesCache
zvd:_Array_InternalArray__IndexOf_TisMark_t3725932776_m1786057617_gshared
Axd:_Array_InternalArray__Insert_TisKeyValuePair_2_t1028297519_m4103844904_gshared
yua:__ZN10Matrix4x4fmLERKS_
qq:__ZN4PPtrI9TransformE8TransferI18StreamedBinaryReadILb0EEEEvRT_
g1g:__ZNSt3__112__hash_tableINS_17__hash_value_typeINS_4pairIPKcS4_EEiEENS_22__unordered_map_hasherIS5_S6_24NamespaceAndNamePairHashLb1EEENS_21__unordered_map_equalIS5_S6_26NamespaceAndNamePairEqualsLb1EEENS_9allocatorIS6_EEE6rehashEj
Csa:__ZN17TransformInternal12InitLocalTRSE15TransformAccessRKN4math7_float3ERKNS1_7_float4ES4_
lKb:__Z16Transfer_BuiltinI10ColorRGBAf18StreamedBinaryReadILb0EELb1EEvRK29SerializationCommandArgumentsR31RuntimeSerializationCommandInfo
pCb:__Z14resize_trimmedINSt3__16vectorI10Matrix4x4f13stl_allocatorIS2_L18MemLabelIdentifier1ELi16EEEEEvRT_j
bpe:_Dictionary_2__ctor_m1859298524_gshared
BWc:_Convert_ToDouble_m1367243830
Y3g:__ZNSt3__16vectorI6pollfdNS_9allocatorIS1_EEE26__swap_out_circular_bufferERNS_14__split_bufferIS1_RS3_EE
kv:__ZNK11AudioSource25GetClassIDVirtualInternalEv
Mdb:__ZN18ConcurrentFreeListI28FileTextureUploadInstructionE7CleanUpEv
Pxc:__ZN11UnityEngine15PlatformWrapper18GetOperatingSystemEv
ded:_CCMath_div_m3921680315
aHf:_List_1_AddEnumerable_m1739422052_gshared
NEd:_Int64_Parse_m3451396568
l3f:__ZN6il2cpp6icalls8mscorlib6System8MonoType19GetGenericArgumentsEP20Il2CppReflectionType
JSf:_UploadHandler_SetContentType_m1034215851
bjc:_FT_MSB
xGc:_RIPEMD160Managed_HH_m2207633891
aoh:_emscripten_glReadPixels__wrapper
m4d:_EditorBrowsableAttribute_get_State_m2194662776
tjg:__ZN6il2cpp6icalls8mscorlib4Mono8Security12Cryptography18KeyPairPersistence10_CanSecureEP12Il2CppString
ipf:__Z235RuntimeInvoker_Int32_t2847414787_Il2CppObject_Int32_t2847414787_Int32_t2847414787_Il2CppObject_Int32_t2847414787_Int32_t2847414787_BooleanU26_t3343357035_BooleanU26_t3343357035_SByte_t2855346064_SByte_t2855346064_ContextU26_t2739380041PK10MethodInfoPvPS2_
b4e:_GUIStyle_set_focused_m1026899231
Osa:__ZN9InputAxisC2ERKNSt3__112basic_stringIcNS0_11char_traitsIcEENS0_9allocatorIcEEEE
jGe:_SoapParameterAttribute__ctor_m498933869
k7d:_X509BasicConstraintsExtension__ctor_m331703276
F1a:__ZN13GfxDeviceGLES14SetRasterStateEPK17DeviceRasterState
t$a:__ZNK13TranslateGLES11BlendFactorE9BlendMode
NEb:__Z30TransferField_LinearCollectionI14SafeBinaryReadEvRK29SerializationCommandArgumentsR31RuntimeSerializationCommandInfo
sEa:__ZN14SafeBinaryRead11EndTransferEv
rrb:__ZNK3WWW12GetAudioClipEv
EEb:__ZN14SafeBinaryRead8TransferI8MonoPPtrEEvRT_PKc17TransferMetaFlags
sxb:__ZN21UniformBufferTFMethod13MapBoneBufferEj
Ylf:__Z62RuntimeInvoker_Void_t2779279689_Il2CppObject_Int32_t2847414787PK10MethodInfoPvPS2_
ud:_cosf
wna:__ZN13RenderTexture15SetAntiAliasingEi
dWa:__Z40Register_UnityEngine_Input_GetKeyDownIntv
rda:__ZN10VertexData6ResizeEjjjRK19VertexStreamsLayoutRK20VertexChannelsLayout
p5d:_IPv6Address_get_Address_m1909339413
Iie:_InternalEnumerator_1_System_Collections_IEnumerator_Reset_m2604776403_gshared
Qve:_DynamicMethod_GetParameters_m4076757737
$Je:_ObjectReader_SetObjectValue_m1699342176
jze:_ModuleBuilder_get_next_table_index_m3600803990
Gkb:__ZNSt3__16__treeINS_12basic_stringIcNS_11char_traitsIcEENS_9allocatorIcEEEENS_4lessIS6_EE13stl_allocatorIS6_L18MemLabelIdentifier37ELi16EEE4findIS6_EENS_15__tree_iteratorIS6_PNS_11__tree_nodeIS6_PvEEiEERKT_
a9e:_Marshal_Copy_m1390445676
fwf:__Z64RuntimeInvoker_Void_t2779279689_Il2CppObject_Decimal_t1688557254PK10MethodInfoPvPS2_
F0c:_Enumerator_get_Entry_m213677431
Qda:__ZN18AsyncUploadManager17DoScaledPaddedJobEP28FileTextureUploadInstruction
$Ha:__ZN6Shader21AwakeFromLoadThreadedEv
Jlg:__ZN16VirtFuncInvoker0IiE6InvokeEjPv
B5f:__ZN6il2cpp2vm10Reflection12HasAttributeEP12Il2CppObjectP11Il2CppClass
nRc:_ForwardingDecoder__ctor_m2930063152
dUb:__ZN6prcoreL17RemapGenericFloatI17TexFormatRGBFloat17TexFormatRGBAHalfEEvPKNS_9InnerInfoE
uz:__ZN10ObjectPoolIN4FMOD12ChannelGroupENS0_13ChannelGroupIEE5CheckEv
K6e:_Keyframe_set_outTangent_m4071134898
aEc:__ZN13UploadHandler10OnSentDataEj
Yjg:__ZN6il2cpp2os9SemaphoreC2Eii
opf:__Z112RuntimeInvoker_Int32_t2847414787_Il2CppObject_Il2CppObject_Int32_t2847414787_Int32_t2847414787_Int32_t2847414787PK10MethodInfoPvPS2_
Agb:__ZNSt3__16vectorI17BlendShapeChannelNS_9allocatorIS1_EEE8__appendEj
Dxb:__ZN15UniformTFMethod20IsBoneCountSupportedEi
_bd:_Double_CompareTo_m2864423062
wXd:_TlsStream_ReadByte_m4124498283
j9f:__ZN6il2cpp2vm9Exception26FormatInvalidCastExceptionEPK11Il2CppClassS4_
MKc:_Hash_GetData_m808019137
Mih:dynCall_viidi
zIf:_List_1_Contains_m4075630001_gshared
T2g:__ZN6il2cpp2gc9AllocatorIPNSt3__111__hash_nodeINS2_17__hash_value_typeINS2_4pairIPK9FieldInfoP11Il2CppClassEEP21Il2CppReflectionFieldEEPvEEE10deallocateESF_j
VCc:__Z44UnityWebRequest_Set_Custom_PropRedirectLimitP15ScriptingObjecti
uog:__ZN16VirtFuncInvoker5IP27ConstructorInfo_t3542137334iP18Binder_t4180926488iP22TypeU5BU5D_t3431720054P35ParameterModifierU5BU5D_t3379147067E6InvokeEjPviS3_iS5_S7_
TDa:__ZN24ScriptingMethodFiltering17FilterOnSignatureENS_18MethodSearchFilterE
rxd:_Array_InternalArray__ICollection_CopyTo_TisHitInfo_t2591228609_m2755048108_gshared
WYa:__ZN18ScreenManagerWebGL13SetLockCursorE14CursorLockMode
Dmc:_cf2_arrstack_finalize
gHe:_RealProxy_SetTargetDomain_m1954293026
Q3e:_GUIStyle_set_normal_m3590268413
aQb:__ZN12LightmapData8TransferI13ProxyTransferEEvRT_
rDg:__ZL69DebuggerTypeProxyAttribute_t2334822152_CustomAttributesCacheGeneratorP21CustomAttributesCache
oAa:__ZN13MonoBehaviour19HandleNotificationsEPviR11MessageData
bWa:__Z39Input_CUSTOM_INTERNAL_get_mousePositionR8Vector3f
USg:__ZL173U3CGetExtensionMethodsU3Ec__IteratorC_t1663269283_CustomAttributesCacheGenerator_U3CGetExtensionMethodsU3Ec__IteratorC_System_Collections_IEnumerator_get_Current_m2916943977P21CustomAttributesCache
XAg:__ZL65Il2CppArray_CustomAttributesCacheGenerator_Array_Sort_m1327718954P21CustomAttributesCache
A9g:__ZNSt3__17collateIwED2Ev
Pnh:b58
Z3f:_il2cpp_class_get_methods
ymh:b52
Hnh:b53
umh:b50
xmh:b51
_ge:_InternalEnumerator_1_System_Collections_IEnumerator_Reset_m372492438_gshared
Onh:b57
Inh:b54
Jnh:b55
rGd:_Path_GetDirectoryName_m1772680861
djb:__Z33BuildSerializationCommandQueueForI13ProxyTransferEvRK34BuildSerializationCommandQueueArgsR32SerializationCommandQueueBuilderRP20AllowNameConversionsbPK18TransferField_Info
qC:__ZN4PPtrI15AudioMixerGroupE8TransferI18StreamedBinaryReadILb0EEEEvRT_
R3g:__ZNSt3__16vectorIP12Il2CppThreadNS_9allocatorIS2_EEE26__swap_out_circular_bufferERNS_14__split_bufferIS2_RS4_EE
oI:__ZNSt3__115basic_stringbufIcNS_11char_traitsIcEENS_9allocatorIcEEE9pbackfailEi
NUd:_RC4_get_IV_m3603717424
SQ:__ZN10GameObject12CleanupClassEv
tua:__ZN10Matrix3x3f15InvertTransposeEv
MSc:_UnicodeDecoder__ctor_m1607892801
Srb:__ZN9GfxDevice25SetShaderPropertiesSharedERK19ShaderPropertySheet
HNg:__ZL81Convert_t1097883944_CustomAttributesCacheGenerator_Convert_ToDateTime_m2913263033P21CustomAttributesCache
EEa:__ZN18StreamedBinaryReadILb1EE20TransferTypelessDataEjPvi
MAa:__ZN10MonoScript17MainThreadCleanupEv
fna:__ZN13RenderTexture9SetActiveEiP12ObjectHandleI17RenderSurface_TagP17RenderSurfaceBaseES4_PPS_i11CubemapFaceij
$ue:_ConstructorBuilder_Invoke_m3130091177
sqd:_SmallXmlParser_IsNameChar_m1063489066
Bnb:__ZN24dense_hashtable_iteratorINSt3__14pairIKNS0_12basic_stringIcNS0_11char_traitsIcEE13stl_allocatorIcL18MemLabelIdentifier54ELi16EEEEP20ArchiveStorageReaderEES8_11djb2_hash_tIS8_EN14dense_hash_mapIS8_SB_SE_NS0_8equal_toIS8_EES5_ISC_LS6_54ELi16EEE9SelectKeyESH_SI_E30advance_past_empty_and_deletedEv
pmb:__ZL25InitializeDefaultMaterialv
IMa:__ZN21ArchiveStorageCreatorD2Ev
Swf:__Z76RuntimeInvoker_Il2CppObject_Int32_t2847414787_Il2CppObject_SByte_t2855346064PK10MethodInfoPvPS2_
Fvb:__ZN19FileAccessorHandlerD2Ev
eTg:__ZL105AssetBundleRequest_t920637194_CustomAttributesCacheGenerator_AssetBundleRequest_get_allAssets_m2335877586P21CustomAttributesCache
Bye:_LabelFixup_t320573180_marshal_pinvoke_back
_fd:_U24ArrayTypeU24124_t2366141822_marshal_pinvoke_cleanup
$yf:__Z86RuntimeInvoker_Single_t958209021_Single_t958209021_Single_t958209021_Single_t958209021PK10MethodInfoPvPS2_
Lsg:__ZN16VirtFuncInvoker1Ii39CustomAttributeTypedArgument_t560415562E6InvokeEjPvS0_
goa:__ZN13ScreenManager17RequestResolutionEiibi
vqf:__Z91RuntimeInvoker_Void_t2779279689_Int32U26_t2544866037_Int32U26_t2544866037_Int32_t2847414787PK10MethodInfoPvPS2_
F4f:_il2cpp_unity_liveness_calculation_from_statics
fDf:__Z78RuntimeInvoker_Void_t2779279689_Int32_t2847414787_ParameterModifier_t500203470PK10MethodInfoPvPS2_
q7e:_MonoBehaviour_IsInvoking_m3881121150
ana:__ZN8Renderer8TransferI17RemapPPtrTransferEEvRT_
yna:__ZN13RenderTexture16SetSRGBReadWriteEb
Dbb:__ZNSt3__15dequeIPN9ShaderLab17ParserShaderStateENS_9allocatorIS3_EEE19__add_back_capacityEv
JEd:_Int64_Equals_m1990436019
CHf:_List_1_System_Collections_IList_IndexOf_m2250248133_gshared
ZVa:__Z22Input_CUSTOM_GetKeyInti
qEb:__Z16Transfer_BuiltinI11ColorRGBA3214SafeBinaryReadLb0EEvRK29SerializationCommandArgumentsR31RuntimeSerializationCommandInfo
L$g:__ZL64g_AssemblyU2DUnityScript_Assembly_CustomAttributesCacheGeneratorP21CustomAttributesCache
Yua:__Z24LookRotationToQuaternionRK8Vector3fS1_P11Quaternionf
BYe:_pinvoke_delegate_wrapper_AudioConfigurationChangeHandler_t1722466426
Zbb:__ZL18IsGpuProgramUsable20ShaderGpuProgramTypePK6Shader
aN:__ZNK11AssetBundle25GetClassIDVirtualInternalEv
nWf:_UnityException__ctor_m2780758535
Hwg:__ZN6il2cpp2vm11MethodStack23CleanupForCurrentThreadEv
_jc:_UNITY_FT_CMap_New
Dqe:_Dictionary_2_GetEnumerator_m3747816989_gshared
HOd:_NotImplementedException__ctor_m495190705
ihe:_InternalEnumerator_1_get_Current_m2267962386_gshared
TNg:__ZL78Convert_t1097883944_CustomAttributesCacheGenerator_Convert_ToInt16_m3986893763P21CustomAttributesCache
$Hf:_List_1_get_Capacity_m4200284520_gshared
iEg:__ZL47Path_t2029632748_CustomAttributesCacheGeneratorP21CustomAttributesCache
E6a:_output_message
Qmb:__ZN18UnityPropertySheet8TransferI19StreamedBinaryWriteILb0EEEEvRT_
BVb:__ZN14qsort_internal8_QSortMTIP15RODataDepthPassi17ROSorterDepthPassE14SortMTInternalES2_S2_iS3_RK8JobFence
pCf:__Z53RuntimeInvoker_Int32_t2847414787_Keyframe_t2095052507PK10MethodInfoPvPS2_
lJf:_Collection_1_System_Collections_IList_Remove_m2625864114_gshared
H7e:_ResourceEnumerator_get_Entry_m715318570
pef:_MethodDictionary_get_SyncRoot_m1527806020
SEb:__Z22Transfer_Builtin_AlignIt14SafeBinaryReadLb1EEvRK29SerializationCommandArgumentsR31RuntimeSerializationCommandInfo
Pog:__ZN18VirtActionInvoker1IP22CharU5BU5D_t3416858730E6InvokeEjPvS1_
_7:__ZN21UnityDefaultAllocatorI17LowLevelAllocatorE10DeallocateEPv
Wte:_ConstructorInfo__cctor_m1731782269
qr:__ZN15PackedIntVector8TransferI14SafeBinaryReadEEvRT_
MOb:__ZN17SharedTextureDataD0Ev
sxd:_Array_InternalArray__Insert_TisTableRange_t476453423_m786444093_gshared
Qs:__ZN13AudioListener8DoUpdateEv
Aqe:_Dictionary_2_ToTKey_m2428705020_gshared
Jng:__Z13bankers_roundd
FOb:__ZN14SafeBinaryRead8TransferI5RectTIfEEEvRT_PKc17TransferMetaFlags
sm:_emscripten_glGenFramebuffers
jO:__ZN17BaseObjectManager16StaticInitializeEPv
PEg:__ZL55MethodBuilder_t765486855_CustomAttributesCacheGeneratorP21CustomAttributesCache
eHb:__Z22Transfer_Builtin_AlignIs13ProxyTransferLb1EEvRK29SerializationCommandArgumentsR31RuntimeSerializationCommandInfo
pnd:_PrivateKeyInfo_get_PrivateKey_m941592214
Xfe:_InternalEnumerator_1_MoveNext_m569750258_gshared
f1:__ZN9Behaviour23VirtualRedirectTransferER17RemapPPtrTransfer
Abd:_StackTrace__ctor_m109564407
fUf:_Rect_ToString_m2093687658
iDc:__Z65Register_UnityEngine_Networking_UnityWebRequest_InternalSetMethodv
$2:__ZN18ProceduralMaterial9ReloadAllEbb
YJd:_StreamReader_Initialize_m2919850118
SHe:_RemotingServices_GetIdentityForUri_m1730131113
RO:__ZN6Object15StringToClassIDEPKc
jja:__Z16DecompressCrunchPKhRjR13TextureFormatiiii18MemLabelIdentifier
dn:_sqrt
U8c:_DateTimeFormatInfo_GetEraName_m766646867
nrg:__ZN16VirtFuncInvoker0I31RuntimeMethodHandle_t2360005078E6InvokeEjPv
XVb:__ZN14qsort_internal8_QSortMTIP18RPDataMotionVectoriN22MotionVectorRenderLoop18RenderObjectSorterEE10CleanupJobEPS5_
Rnd:_SymmetricTransform_Dispose_m450958196
W3d:_NameObjectCollectionBase_BaseGet_m3404124054
v6:__ZN9ShaderLab9SubShader19CreateFromSubShaderERKS0_
u$:__Z29RenderForwardObjectsIntoDepthRK17RenderLoopContextP13RenderTextureP13dynamic_arrayI16RenderObjectDataLj4EE12ObjectHandleI17RenderSurface_TagP17RenderSurfaceBaseESC_iib
klc:_cff_builder_add_point1
kMe:_CodeAccessPermission_Equals_m3733109266
ene:_Transform_1_EndInvoke_m468964762_gshared
kWf:_Enumerator_Reset_m258411155
Da:invoke_iiiiiiiiii
pDc:__Z67Register_UnityEngine_Networking_UnityWebRequest_set_useHttpContinuev
awf:__Z53RuntimeInvoker_TypeAttributes_t104824479_Il2CppObjectPK10MethodInfoPvPS2_
nsf:__Z88RuntimeInvoker_Il2CppObject_Il2CppObject_Il2CppObject_Il2CppObject_StringU26_t2030016554PK10MethodInfoPvPS2_
mSd:_Kernel_Subtract_m593759655
G0e:_GUIUtility_CheckOnGUI_m640002012
UBa:__ZN18LoadSceneOperation19IntegrateTimeSlicedEi
Xpe:_Dictionary_2_System_Collections_IDictionary_Add_m3976165078_gshared
Vwd:_Array_InternalArray__ICollection_CopyTo_TisInt64_t2847414882_m3604858377_gshared
Ltf:__Z101RuntimeInvoker_Int32_t2847414787_Il2CppObject_Int32_t2847414787_CharU26_t1869721389_SByte_t2855346064PK10MethodInfoPvPS2_
VCa:__ZN16ScriptingManager24NotifyScriptCacheReleaseEi
GTa:__Z47Register_UnityEngine_Coroutine_ReleaseCoroutinev
Zfd:_U24ArrayTypeU24124_t2366141822_marshal_pinvoke_back
qu:__ZN15AudioReverbZone13SetFMODValuesEv
pCa:__ZN19ScriptingInvocationC2Ev
ZZb:__ZL19StaticDestroyShaderPv
sc:_glRenderbufferStorageMultisample
Doe:_ValueCollection__ctor_m2532250131_gshared
age:_InternalEnumerator_1_Dispose_m2505350033_gshared
YCd:_Guid_t2778838590_marshal_pinvoke_back
Bmc:_cf2_stack_clear
aWb:__ZN22MotionVectorRenderLoopD2Ev
Py:__ZN4FMOD7SystemI12createReverbEPPNS_6ReverbE
_M:_zcfree
yma:__ZThn28_N8Renderer21RendererBecameVisibleEv
fbe:_BaseMachine_Scan_m223381495
hXb:__ZN25ShadowMapJobHeaderScratchD2Ev
D9b:__ZNK6b2Body13ShouldCollideEPKS_
$qh:_pthread_cond_broadcast__wrapper
lFa:__ZN17PersistentManager38InstanceIDToSerializedObjectIdentifierEiR26SerializedObjectIdentifier
mJf:_Collection_1_System_Collections_ICollection_get_SyncRoot_m1873829551_gshared
$Cg:__ZL94Hashtable_t3875263730_CustomAttributesCacheGenerator_Hashtable_t3875263730____hcp_PropertyInfoP21CustomAttributesCache
kr:__ZN17PackedFloatVector8TransferI18StreamedBinaryReadILb0EEEEvRT_
cZf:_EqualityComparer_1__cctor_m3018656820_gshared
yja:__ZN7Cubemap23VirtualRedirectTransferER17RemapPPtrTransfer
MTa:__Z37Register_UnityEngine_Screen_get_widthv
jvd:_Array_InternalArray__IndexOf_TisInt64_t2847414882_m2200466997_gshared
iVb:__ZN22BlockMemoryCacheWriter11GetPathNameEv
UXc:_Char_ToLowerInvariant_m2407684316
Pzf:__Z41RuntimeInvoker_EventModifiers_t3870720879PK10MethodInfoPvPS2_
cMb:__Z16Transfer_BuiltinI11ColorRGBA3219StreamedBinaryWriteILb0EELb1EEvRK29SerializationCommandArgumentsR31RuntimeSerializationCommandInfo
cbe:_X509SubjectKeyIdentifierExtension_FromHexChar_m751746662
dE:__ZN19CloudServiceHandlerD2Ev
f0c:_Hashtable_set_Item_m1018975416
w1g:__ZNSt3__114__split_bufferIN6il2cpp2vm22EmbeddedResourceRecordERNS_9allocatorIS3_EEED2Ev
G9:__ZN8Playable18SetInputConnectionEPS_i
tIe:_SoapServices_GetXmlElementForInteropType_m694138433
o1b:__Z26GUI_Set_Custom_PropChangedh
cph:_glProgramParameteri__wrapper
cBc:__ZNK21DownloadHandlerBuffer8GetBytesEv
ZHd:_Object_Finalize_m3027285644
Kyf:__Z95RuntimeInvoker_Boolean_t211005341_Il2CppObject_Int32_t2847414787_Il2CppObject_Int32_t2847414787PK10MethodInfoPvPS2_
IWg:__ZL99GameObject_t4012695102_CustomAttributesCacheGenerator_GameObject_SendMessage_m423373689____options2P21CustomAttributesCache
ad:_stat
Edd:_Exception_get_InnerException_m1427945535
fPf:_X509CertificateCollection_System_Collections_IEnumerable_GetEnumerator_m4286050429
e2e:_GUILayoutUtility_LayoutSingleGroup_m1841651392
Ynb:__ZNSt3__16__treeINS_12__value_typeINS_12basic_stringIcNS_11char_traitsIcEE13stl_allocatorIcL18MemLabelIdentifier54ELi16EEEEPN16MemoryFileSystem4NodeEEENS_19__map_value_compareIS8_SC_NS_4lessIS8_EELb1EEES5_ISC_LS6_54ELi16EEE12__find_equalISC_EERPNS_16__tree_node_baseIPvEESO_RKT_
Rac:__ZN15b2DistanceJoint23InitVelocityConstraintsERK12b2SolverData
wqb:__ZN6CameraD2Ev
Rrf:__Z53RuntimeInvoker_MonoEventInfo_t4117885171_Il2CppObjectPK10MethodInfoPvPS2_
FVc:_Convert_ToType_m353901888
ra:invoke_iiiiiiiiiiii
P1g:__ZNSt3__114__split_bufferINS_12basic_stringIcNS_11char_traitsIcEENS_9allocatorIcEEEERNS4_IS6_EEED2Ev
Npd:_X509Certificate_GetIssuerName_m3616837067
XPg:__ZL79NumberFormatter_t719190774_CustomAttributesCacheGenerator_threadNumberFormatterP21CustomAttributesCache
Elh:___assert_fail__wrapper
IIc:_SHA512Managed_HashFinal_m2897219948
tCe:_MonoField_GetParentType_m3845576618
O2e:_GUISkin_set_window_m93050723
wXa:__Z43Register_UnityEngine_GameObject_SendMessagev
cRf:_UnityWebRequest__ctor_m2883079303
_0f:__ZN6il2cpp2vm17SetupFieldsLockedEP11Il2CppClassRKNS_2os12FastAutoLockE
NKf:_Collection_1_IsValidItem_m3654037736_gshared
SC:__ZN11AudioSourceD0Ev
k9c:_DBNull_System_IConvertible_ToUInt32_m256639662
sbd:_StackFrame_GetILOffset_m2885157332
mKb:__Z16Transfer_BuiltinI11ColorRGBA3218StreamedBinaryReadILb0EELb1EEvRK29SerializationCommandArgumentsR31RuntimeSerializationCommandInfo
Gpc:__ZNSt3__16__treeINS_12__value_typeIN20TextRenderingPrivate7FontRefENS2_6OSFontEEENS_19__map_value_compareIS3_S5_NS_4lessIS3_EELb1EEENS_9allocatorIS5_EEE7destroyEPNS_11__tree_nodeIS5_PvEE
Xu:__ZN11AudioSource16UpdateParametersE12SoundChannel
Z3e:_GUIStyle_set_onHover_m946102841
hqe:_Dictionary_2_get_Count_m2429776882_gshared
u0b:__ZNK8GUIStyle8CalcSizeER10GUIContent
OKe:_SerializationEntry_get_Value_m522021722
mve:_ModuleBuilder_GetTokenGenerator_m4211747974
fTc:_Array_System_Collections_ICollection_get_Count_m1062882991
Rjc:_UNITY_FT_New_Size
ECa:__Z42ScriptingGetComponentsOfTypeFromGameObjectRK26ScriptingGetComponentsArgs
Whd:_SimpleCollator_GetContraction_m1209314148
U9d:_X509Chain_IsSelfIssued_m397924845
Mgh:__ZNSt3__114__split_bufferIPNS_6locale5facetERNS_15__sso_allocatorIS3_Lj28EEEEC2EjjS6_
Fsa:__ZN17TransformInternal22CopyTransformHierarchyER18TransformHierarchyjjS1_j
aqd:_X509Extension_GetHashCode_m3467310705
Pmc:_cf2_hintmap_build
suc:_Line_Up
fVg:__ZL101MonoBehaviour_t3012272455_CustomAttributesCacheGenerator_MonoBehaviour_StopCoroutine_Auto_m1074098068P21CustomAttributesCache
FUf:_ReapplyDrivenProperties__ctor_m3710908308
_d:_emscripten_glBufferSubData
xrg:__ZN6il2cpp2vm14PlatformInvoke12MarshalArrayIfEEPT_P11Il2CppArray
Wif:_PositionAssertion_GetAnchorInfo_m3911354203
fXa:__Z30GameObject_CUSTOM_GetComponentP15ScriptingObjectS0_
UJe:_ObjectReader_ReadValue_m122066046
nTb:__ZN6prcoreL12RemapGenericI15TexFormatRGB88817TexFormatARGB8888EEvPKNS_9InnerInfoE
DXd:_TlsStream_WriteInt24_m3944062020
Gbf:_Context_Freeze_m2478059108
jQe:_ExecutionContext_get_SecurityContext_m2311120735
mYc:_ArrayList_get_Item_m1166987603
NM:_unity_z_deflateReset
_xf:__Z110RuntimeInvoker_Il2CppObject_Il2CppObject_Il2CppObject_Il2CppObject_Int32_t2847414787_Il2CppObject_Il2CppObjectPK10MethodInfoPvPS2_
ZQa:_LzmaDec_DecodeToDic
M4:__ZN22MemoryCacherReadBlocks14LockCacheBlockEjPPhS1_
Jhd:_MSCompatUnicodeTable_get_IsReady_m989669506
U5a:_decompress_onepass
vid:_SimpleCollator_CompareInternal_m2883409076
G0g:__ZN4utf88internal15increase_safelyIPKcEENS0_9utf_errorERT_S5_
ZRd:_BigInteger_op_Equality_m1709618143
M5c:_Convert_ToUInt32_m2201561165
OHd:_FileStream_FlushBuffer_m3897535046
Ihf:_CapturingGroup_IsComplex_m923392880
Olg:__Z21ArrayElementTypeCheckP11Il2CppArrayPv
joh:_emscripten_glTexSubImage2D__wrapper
e7b:__ZN17PhysicsMaterial2D16CheckConsistencyEv
Kve:_DynamicMethod_GetCustomAttributes_m1932918
FF:__ZN11UnityEngine15CloudWebService16SessionContainer25GetSessionHeaderJsonArrayERK8UnityStrRNSt3__119basic_ostringstreamIcNS5_11char_traitsIcEENS5_9allocatorIcEEEE
$ng:__ZN18VirtActionInvoker1IP28NumberFormatInfo_t3411951076E6InvokeEjPvS1_
PWd:_CipherSuiteCollection_System_Collections_IList_IndexOf_m2797029265
F7d:_OidEnumerator_MoveNext_m3766070973
GN:__ZN39AssetBundleLoadFromStreamAsyncOperation11GetProgressEv
Oe:_TTF_RenderText_Solid
EPd:_NumberFormatter_SetThreadCurrentCulture_m27395807
v1e:_GUILayoutEntry_get_margin_m3705107036
Ncb:__ZN4Mesh7PRODUCEE18MemLabelIdentifier18ObjectCreationMode
dof:__Z45RuntimeInvoker_Il2CppObject_Int64_t2847414882PK10MethodInfoPvPS2_
zsf:__Z90RuntimeInvoker_Boolean_t211005341_Il2CppObject_StringU26_t2030016554_StringU26_t2030016554PK10MethodInfoPvPS2_
Fdd:_Exception_get_HResult_m3941496800
oXf:_U24ArrayTypeU241024_t335950519_marshal_pinvoke
DDd:_Int16_ToString_m1124031606
jAb:__ZN7Hash1288TransferI18StreamedBinaryReadILb1EEEEvRT_
Zyc:__ZN11UnityEngine7Connect16PersistentValuesC2Ev
b2d:_InternalAsyncResult_get_AsyncState_m478600163
R1c:_Enumerator_get_Key_m1154255281
mQd:_NumberFormatter_AppendExponent_m163214555
Qug:__ZL7log2_32j
YNf:_DeriveBytes_set_Password_m2839198645
AYg:__ZL88GUIStyleState_t47287592_CustomAttributesCacheGenerator_GUIStyleState_Cleanup_m3584086848P21CustomAttributesCache
YIb:__Z19TransferField_ArrayI17RemapPPtrTransfer27Converter_UnityEngineObjectEvRK23StaticTransferFieldInfoR31RuntimeSerializationCommandInfoRT0_
N5d:_IPv6Address_ToString_m804087156
w7e:_MonoBehaviour_StopCoroutine_m1340700766
A9a:__ZN14RenderSettings8TransferI18StreamedBinaryReadILb0EEEEvRT_
vmd:_KeyPairPersistence_get_KeyValue_m204692013
pQc:_DecoderReplacementFallback_CreateFallbackBuffer_m2535777809
YNb:__ZN15dense_hashtableINSt3__14pairIKiiEEi21InstanceIDHashFunctorN14dense_hash_mapIiiS4_NS0_8equal_toIiEE13stl_allocatorIS3_L18MemLabelIdentifier1ELi16EEE9SelectKeyES7_SA_E9copy_fromERKSD_j
Beh:__ZNKSt3__17codecvtIDsc11__mbstate_tE10do_unshiftERS1_PcS4_RS4_
j1g:__ZNSt3__16vectorIP12Il2CppThreadN6il2cpp2gc9AllocatorIS2_EEE26__swap_out_circular_bufferERNS_14__split_bufferIS2_RS6_EE
Zfe:_InternalEnumerator_1__ctor_m3904876858_gshared
Weh:__ZNKSt3__18numpunctIcE16do_decimal_pointEv
qB:__ZN4FMOD6System9createDSPEP20FMOD_DSP_DESCRIPTIONPPNS_3DSPE
sf:_JS_SystemInfo_HasCursorLock
ux:__ZN4FMOD8ChannelI11EndCallbackEv
aRd:_U24ArrayTypeU2412_t214874488_marshal_pinvoke_cleanup
a0b:__ZN8GUIStyle14SetDefaultFontEPN13TextRendering4FontE
UJd:_StreamReader__ctor_m3256554182
mvg:__ZN6il2cpp2os10FileHandleC2Ev
LVa:__Z59Register_UnityEngine_MonoBehaviour_Internal_CancelInvokeAllv
LVd:_CertificateValidationCallback2__ctor_m1854682743
iyb:__ZN30dense_hashtable_const_iteratorINSt3__14pairIKNS0_12basic_stringIcNS0_11char_traitsIcEENS0_9allocatorIcEEEES7_EES7_11djb2_hash_tIS7_EN14dense_hash_mapIS7_S7_SB_NS0_8equal_toIS7_EE13stl_allocatorIS9_L18MemLabelIdentifier54ELi16EEE9SelectKeyESE_SH_E30advance_past_empty_and_deletedEv
p4g:__ZNSt3__112__hash_tableIPK17Il2CppGenericInstN6il2cpp8metadata21Il2CppGenericInstHashENS5_24Il2CppGenericInstCompareENS_9allocatorIS3_EEE20__node_insert_uniqueEPNS_11__hash_nodeIS3_PvEE
E0d:_SslClientStream_set_ClientCertSelectionDelegate_m1954811816
lpa:__ZN7Texture8TransferI18StreamedBinaryReadILb0EEEEvRT_
K8f:__ZN6il2cpp6icalls8mscorlib6System10Reflection10MonoMethod29get_IsGenericMethodDefinitionEP22Il2CppReflectionMethod
i8f:__ZN6il2cpp2vm6Thread21AllocThreadStaticDataEi
O1g:__ZNSt3__16vectorINS_12basic_stringIcNS_11char_traitsIcEENS_9allocatorIcEEEENS4_IS6_EEE26__swap_out_circular_bufferERNS_14__split_bufferIS6_RS7_EE
J8g:__ZNSt3__115basic_streambufIcNS_11char_traitsIcEEE4syncEv
ANd:_MonoTypeInfo__ctor_m353652298
vHb:__Z16Transfer_BuiltinI11ColorRGBA3213ProxyTransferLb1EEvRK29SerializationCommandArgumentsR31RuntimeSerializationCommandInfo
gze:_MethodToken_t2392331557_marshal_pinvoke_back
T9:__ZN8Playable11DerivesFromEP14ScriptingClass
leh:__ZNKSt3__17codecvtIcc11__mbstate_tE11do_encodingEv
Uxb:__ZNSt3__16__treeI20DeviceDepthStateGLES11memcmp_lessIS1_S1_ENS_9allocatorIS1_EEE7destroyEPNS_11__tree_nodeIS1_PvEE
Yf:_emscripten_glUniform4i
Fk:_emscripten_glUniform4f
SNb:__ZN30RuntimeInitializeOnLoadManager9ClassInfo8TransferI13ProxyTransferEEvRT_
Ygg:_GC_default_oom_fn
wLe:_RuntimeMethodHandle_Equals_m3425680831
JWd:_CipherSuiteCollection_get_Item_m3036376750
R9c:_Decimal_Subtract_m4038646005
sw:__ZN20SoundChannelInstance19setReverbPropertiesEP29FMOD_REVERB_CHANNELPROPERTIES
a9f:__ZN6il2cpp2vm9Exception18GetFormatExceptionEPKc
Mjf:_Uri_FromHex_m2865381007
w_c:_BitArray_get_Item_m2410594623
kZg:__ZL88GUIStyle_t1006925219_CustomAttributesCacheGenerator_GUIStyle_GetFontInternal_m2928804526P21CustomAttributesCache
$0e:_GUI_INTERNAL_set_color_m774536016
QGe:_RemotingServices_Unmarshal_m3453424695
pQe:_Monitor_Exit_m2088237919
VHd:_FileStream_SetLength_m922718469
kbe:_Capture_get_Value_m2353629574
jZg:__ZL107GUIStyle_t1006925219_CustomAttributesCacheGenerator_GUIStyle_GetFontInternalDuringLoadingThread_m1458608761P21CustomAttributesCache
n_e:_Component_BroadcastMessage_m2857110644
Wib:__ZN18StreamedBinaryReadILb1EE21TransferSTLStyleArrayINSt3__16vectorIN15ResourceManager10DependencyENS2_9allocatorIS5_EEEEEEvRT_17TransferMetaFlags
Lug:__ZL17log2withScale_128yyi
hOe:_HMAC_get_Key_m1472198904
uId:_MemoryStream__ctor_m1231145921
j_f:_GenericEqualityComparer_1_GetHashCode_m789537036_gshared
o3d:_DictionaryNode__ctor_m424034580
yta:__ZN11TimeManager6UpdateEv
iQf:_X509Store_BuildCertificatesCollection_m1851273927
Eyb:__ZNSt3__17__sort5IRPFbRKNS_4pairIN9ShaderLab16FastPropertyNameEN18UnityPropertySheet11UnityTexEnvEEES8_EPS6_EEjT0_SD_SD_SD_SD_T_
Wrb:__ZN9GfxDevice12UpdateBufferEP9GfxBuffer13GfxBufferMode14GfxBufferLabeljPKvj
H1d:_InternalAsyncResult_get_Offset_m3785298228
Png:__ZN16VirtFuncInvoker5IP12MethodInfo_tP8String_tiP18Binder_t4180926488P22TypeU5BU5D_t3431720054P35ParameterModifierU5BU5D_t3379147067E6InvokeEjPvS3_iS5_S7_S9_
Pg:_fflush
M$:__ZN17LightProbeContext4InitERK16LightmapSettingsRK14RenderSettings
Clg:__GLOBAL__sub_I_Error_cpp
N5:__ZNK9ShaderLab7Program21GetMatchingSubProgramEPK6ShaderPKNS_4PassERK16ShaderKeywordSetRS7_R19ShaderSnippetResult
Eub:__ZN9Texture3DD2Ev
Tae:_X509KeyUsageExtension_CopyFrom_m1769316556
Nrf:__Z114RuntimeInvoker_Void_t2779279689_Il2CppObject_Il2CppObject_Il2CppObject_Il2CppObject_Int32_t2847414787_Il2CppObjectPK10MethodInfoPvPS2_
Zyb:__ZN10ColorRGBAf8TransferI19StreamedBinaryWriteILb0EEEEvRT_
cge:_InternalEnumerator_1_get_Current_m94889217_gshared
QXf:_SymmetricTransform_Random_m3415780681
iCc:__Z46UploadHandlerRaw_CUSTOM_InternalSetContentTypeP15ScriptingObjectP15ScriptingString
J_:__Z34ProcessIndexListIsNodeVisibleStep2RK22SceneCullingParametersPK9SceneNodePK4AABBR9IndexList
hvb:__ZN10MonoScriptD2Ev
BTb:__ZN6prcoreL12RemapGenericI17TexFormatARGB888817TexFormatBGRA8888EEvPKNS_9InnerInfoE
KJg:__ZL70SerializationInfoEnumerator_t1298671611_CustomAttributesCacheGeneratorP21CustomAttributesCache
RAb:__Z16Transfer_BuiltinI11ColorRGBA3218StreamedBinaryReadILb1EELb0EEvRK29SerializationCommandArgumentsR31RuntimeSerializationCommandInfo
$4a:__GLOBAL__sub_I_half_cpp
lsc:_tt_cmap13_char_next
I_d:_TlsServerSettings_set_RsaParameters_m1298390193
u5:__ZN9ShaderLab4Pass16SetupPassOptionsEv
cWc:_Convert_ToUInt64_m3087942316
mSc:_StringBuilder_Append_m2189222616
bRc:_Encoding__cctor_m1612564368
sh:_JS_Sound_ReleaseInstance
Hfb:__ZN15QualitySettings8TransferI13ProxyTransferEEvRT_
_sf:__Z85RuntimeInvoker_Void_t2779279689_Il2CppObject_Il2CppObject_StreamingContext_t986364934PK10MethodInfoPvPS2_
anh:_emscripten_glPixelStorei__wrapper
hrd:_AppDomain_get_CurrentDomain_m3448347417
jn:FUNCTION_TABLE_diddi
_6f:__ZN6il2cpp6icalls8mscorlib6System5Array8FastCopyEP11Il2CppArrayiS5_ii
bqe:_Dictionary_2_System_Collections_Generic_ICollectionU3CSystem_Collections_Generic_KeyValuePairU3CTKeyU2CTValueU3EU3E_CopyTo_m2360590611_gshared
Snb:__ZNSt3__16vectorIN20ArchiveStorageHeader12StorageBlockE13stl_allocatorIS2_L18MemLabelIdentifier54ELi16EEE21__push_back_slow_pathIKS2_EEvRT_
Eqb:__ZN8GUILayerD2Ev
hUa:__Z42Register_UnityEngine_RectOffset_get_bottomv
zBc:__ZN26DownloadHandlerAssetBundle7PrepareEv
y$e:_ArgumentCache_OnAfterDeserialize_m3764330697
w_g:__ZL104UnityWebRequest_t1582871641_CustomAttributesCacheGenerator_UnityWebRequest_set_redirectLimit_m1472631432P21CustomAttributesCache
Z4e:_GUIStyle_Internal_CalcHeight_m3448302985
Wua:__Z18QuaternionToMatrixRK11QuaternionfR10Matrix4x4f
vmh:_emscripten_glUniform1f__wrapper
aih:dynCall_di
a$g:__ZL104SendMouseEvents_t2490149283_CustomAttributesCacheGenerator_SendMouseEvents_DoSendMouseEvents_m4104134333P21CustomAttributesCache
ych:__ZNSt3__110moneypunctIwLb1EED0Ev
Y0e:_WindowFunction_Invoke_m2798584028
S4f:_il2cpp_monitor_enter
Rfb:__ZN2UI13RectTransform8TransferI14SafeBinaryReadEEvRT_
gRa:__Z20IsHumanControllingUsv
eNf:_UnityAction_2__ctor_m1940257211_gshared
eNe:_DESCryptoServiceProvider_GenerateIV_m3244683960
yXe:_AnimationCurve_Finalize_m2382224032
D$:__ZN23ForwardShaderRenderLoop23RenderForwardShadowMapsEPK11ActiveLightbN6Camera10RenderFlagER17ShaderPassContext
mZa:__ZN10systeminfo21GetPersistentDataPathEv
b2a:__ZN13GfxDeviceGLES17DestroyGpuProgramEPK10GpuProgram
xAb:__Z22Transfer_Builtin_AlignIa18StreamedBinaryReadILb1EELb0EEvRK29SerializationCommandArgumentsR31RuntimeSerializationCommandInfo
u3b:__Z42Register_UnityEngine_GUIStyle_set_richTextv
H_g:__ZL100UploadHandler_t2015444082_CustomAttributesCacheGenerator_UploadHandler_InternalCreateRaw_m3364909982P21CustomAttributesCache
RZb:__ZN12_GLOBAL__N_113StaticDestroyEPv
c0b:__ZNK8GUIStyle4DrawER8GUIStateRK5RectTIfER10GUIContentbbbb
Wqh:_glUnmapBuffer__wrapper
AZd:_TlsClientSettings_get_ClientCertificate_m1621563643
lhd:_ContractionComparer_Compare_m3351171011
FKb:__ZN18StreamedBinaryReadILb0EE21TransferSTLStyleArrayINSt3__16vectorINS2_12basic_stringIcNS2_11char_traitsIcEE13stl_allocatorIcL18MemLabelIdentifier1ELi16EEEES7_ISA_LS8_1ELi16EEEEEEvRT_17TransferMetaFlags
txf:__Z111RuntimeInvoker_Boolean_t211005341_Int32_t2847414787_Int32U26_t2544866037_Int32U26_t2544866037_SByte_t2855346064PK10MethodInfoPvPS2_
pya:__Z18GetResourceManagerv
w5b:__ZNK10Collider2D15GetAttachedBodyEv
yGe:_SerializationInfoEnumerator_get_Name_m4156977240
ZWe:_Version_get_Build_m4183817856
_xc:__ZN11UnityEngine15PlatformWrapper25GetGraphicsRendererStringEv
vnb:__ZNSt3__16__sortIRPFbRKNS_4pairIN9ShaderLab16FastPropertyNameE10ColorRGBAfEES7_EPS5_EEvT0_SC_T_
hob:_LzmaDec_TryDummy
r1g:__ZNSt3__112basic_stringIcNS_11char_traitsIcEENS_9allocatorIcEEE6__initINS_11__wrap_iterIPcEEEENS_9enable_ifIXsr21__is_forward_iteratorIT_EE5valueEvE4typeESB_SB_
Cb:invoke_vi
Ab:invoke_vd
ib:invoke_vf
oic:__ZN20TextRenderingPrivate4Font23VirtualRedirectTransferER18StreamedBinaryReadILb0EE
JMb:__ZN19StreamedBinaryWriteILb0EE21TransferSTLStyleArrayINSt3__16vectorIN15ResourceManager10DependencyENS2_9allocatorIS5_EEEEEEvRT_17TransferMetaFlags
sQ:__ZNK10GameObject8IsActiveEv
SLd:_UnmanagedMemoryStream_get_CanRead_m2499719859
JZf:_EqualityComparer_1_get_Default_m819258957_gshared
nub:__ZN13ScreenManager18RequestOrientationE17ScreenOrientation
D0f:__ZN6il2cpp2vm5Class12SetupMethodsEP11Il2CppClass
vzd:_Dictionary_2_Do_CopyTo_TisIl2CppObject_TisIl2CppObject_m2056369272_gshared
mG:__ZN11UnityEngine15CloudWebService13WWWRestClient18GetResponseHeadersEv
DYa:__ZN13EmscriptenWWW14BlockUntilDoneEv
l8d:_X509Certificate2_get_NotBefore_m4057480336
CXb:__ZNSt3__17__sort4IR23CompareReflectionProbesP31RuntimeReflectionProbeBlendInfoEEjT0_S5_S5_S5_T_
rng:__ZN21InterfaceFuncInvoker1I19DateTime_t339033936P12Il2CppObjectE6InvokeEjP11Il2CppClassPvS2_
W_e:_DisplaysUpdatedDelegate__ctor_m3468699627
M2b:__Z37Register_UnityEngine_GUIStyle_Cleanupv
Ka:invoke_iiifii
j8g:__ZNKSt3__112basic_stringIcNS_11char_traitsIcEENS_9allocatorIcEEE7compareEjjPKcj
JXa:__Z39Register_UnityEngine_Time_set_timeScalev
Gqb:__ZN8GUILayer12AddToManagerEv
q3f:__ZN6il2cpp6icalls8mscorlib6System8MonoType13IsPointerImplEP20Il2CppReflectionType
Ych:__ZNSt3__19money_putIcNS_19ostreambuf_iteratorIcNS_11char_traitsIcEEEEED0Ev
mxc:__ZN22BaseUnityConnectClient31DonePreparingOnMainThreadStaticEPv
jj:_emscripten_glFramebufferRenderbuffer
Jih:dynCall_vid
UQb:__ZN22SharedSpriteRenderDataD0Ev
mPb:__ZN15QualitySettings14QualitySetting8TransferI13ProxyTransferEEvRT_
ORe:_WaitCallback_EndInvoke_m2361662125
sD:__ZN11AudioModule26SetDefaultMicrophoneDriverEPv
_Fb:__Z19TransferField_ArrayI14SafeBinaryRead19Converter_PrimitiveIyEEvRK23StaticTransferFieldInfoR31RuntimeSerializationCommandInfoRT0_
_Od:_NumberFormatter_ScaleOrder_m2668614822
_kd:_ASN1_set_Value_m1539277917
jAa:__ZN13MonoBehaviour13StopCoroutineEPKc
Bsa:__ZN17TransformInternal36OnScaleChangedCalculateTransformTypeE15TransformAccess
N9c:_Decimal_System_IConvertible_ToUInt64_m2861402004
NLa:__ZN17ArchiveFileSystem10ToAbsoluteEPKc
x9g:__ZNKSt3__17collateIcE10do_compareEPKcS3_S3_S3_
Nte:_Default_check_arguments_m2569422268
sYf:_DefaultComparer__ctor_m895439973_gshared
V3e:_GUIStyle_set_active_m79497342
Z5g:__ZNSt8bad_castC2Ev
Ohe:_InternalEnumerator_1_System_Collections_IEnumerator_Reset_m1566904129_gshared
Akb:__ZN15dense_hashtableINSt3__14pairIKi17ThreadedAwakeDataEEi21InstanceIDHashFunctorN14dense_hash_mapIiS3_S5_NS0_8equal_toIiEENS0_9allocatorIS4_EEE9SelectKeyES8_SA_E14squash_deletedEv
vpe:_Dictionary_2_set_Item_m3219597724_gshared
Xvf:__Z49RuntimeInvoker_Int32_t2847414787_Guid_t2778838590PK10MethodInfoPvPS2_
RIa:__ZN19ShaderPropertySheet20ReservePropertyCountEj
ebg:__ZN6il2cpp5utils11StringUtils6PrintfEPKcz
g8c:_DateTime_ToString_m2141430949
Qcc:__Z38BoxCollider2D_CUSTOM_INTERNAL_set_sizeP15ScriptingObjectRK13Vector2fIcall
z3f:__ZN6il2cpp6icalls8mscorlib6System7Decimal13decimal2Int64EP19il2cpp_decimal_reprPx
_Yb:__ZN18StreamedBinaryReadILb0EE19TransferSTLStyleMapINSt3__18multimapI8UnityStrN11AssetBundle9AssetInfoENS2_4lessIS4_EENS2_9allocatorINS2_4pairIKS4_S6_EEEEEEEEvRT_17TransferMetaFlags
$Jb:__Z16Transfer_BuiltinIf18StreamedBinaryReadILb0EELb1EEvRK29SerializationCommandArgumentsR31RuntimeSerializationCommandInfo
ojb:__ZN10MonoScript7PRODUCEE18MemLabelIdentifier18ObjectCreationMode
VI:_UNITY_png_zstream_error
CCc:__Z40UnityWebRequest_CUSTOM_InternalSetMethodP15ScriptingObject21UnityWebRequestMethod
ojg:__ZN6il2cpp6icalls8mscorlib6System9Threading5Mutex20CreateMutex_internalEbP12Il2CppStringPb
tZg:__ZL111GUIStyle_t1006925219_CustomAttributesCacheGenerator_GUIStyle_INTERNAL_CALL_Internal_DrawPrefixLabel_m3654921866P21CustomAttributesCache
b_e:_GameObject_set_tag_m859036203
Q4a:__GLOBAL__sub_I_RenderSettings_cpp
inb:__ZN18StreamedBinaryReadILb1EE19TransferSTLStyleMapINSt3__13mapI4PPtrI6ShaderE8UnityStrNS2_4lessIS6_EENS2_9allocatorINS2_4pairIKS6_S7_EEEEEEEEvRT_17TransferMetaFlags
ere:_Dictionary_2_Resize_m2399412032_gshared
z5e:_GUIStyle_set_richText_m1293612906
ltf:__Z86RuntimeInvoker_UInt32_t985925326_Int32_t2847414787_Int32_t2847414787_Int32_t2847414787PK10MethodInfoPvPS2_
Ezg:__ZL60MulticastDelegate_t2585444626_CustomAttributesCacheGeneratorP21CustomAttributesCache
bZb:__ZN11AssetBundle9AssetInfo8TransferI14SafeBinaryReadEEvRT_
_Db:__Z22Transfer_Builtin_AlignIs14SafeBinaryReadLb0EEvRK29SerializationCommandArgumentsR31RuntimeSerializationCommandInfo
b0b:__ZNK8GUIStyle4DrawER8GUIStateRK5RectTIfER10GUIContentib
b2:__Z24CalculateSpotLightBoundsffRK10Matrix4x4fR15SpotLightBounds
tId:_MemoryStream__ctor_m1061194329
Ptb:__ZNK13RenderTexture21GetShadowSamplingModeEv
YD:__ZN23CloudWebServicesManager23VirtualRedirectTransferER14SafeBinaryRead
cje:_InternalEnumerator_1_get_Current_m3891250378_gshared
IMd:_MissingMethodException__ctor_m2372430094
fUe:_Type_GetGenericTypeDefinition_m785420605
Wdg:__ZN6il2cpp6icalls8mscorlib6System7Convert24InternalFromBase64StringEP12Il2CppStringb
q7f:__ZN6il2cpp6icalls8mscorlib6System9Threading6Thread23GetCachedCurrentCultureEP12Il2CppThread
NLe:_SByte_System_IConvertible_ToDecimal_m829366252
tT:__ZNK6Camera22GetWorldToCameraMatrixEv
uBc:__ZNK26DownloadHandlerAssetBundle13GetMemorySizeEv
_me:_Transform_1_Invoke_m159606869_gshared
xag:__ZN6il2cpp2vm12GenericClass11IsValueTypeEP18Il2CppGenericClass
Xvd:_Array_InternalArray__ICollection_Add_TisKeyValuePair_2_t3312956448_m3107185952_gshared
ozg:__ZL64IntPtr_t_CustomAttributesCacheGenerator_IntPtr__ctor_m2509422495P21CustomAttributesCache
nzg:__ZL64IntPtr_t_CustomAttributesCacheGenerator_IntPtr__ctor_m2136603816P21CustomAttributesCache
GAa:__ZN13MonoBehaviour7SetNameEPKc
vEe:_StrongNameKeyPair_System_Runtime_Serialization_ISerializable_GetObjectData_m285619594
yBf:__Z47RuntimeInvoker_Boolean_t211005341_Slot_t2579999PK10MethodInfoPvPS2_
Lac:__ZN25b2PolygonAndCircleContact7DestroyEP9b2ContactP16b2BlockAllocator
hId:_FileStreamAsyncResult_get_AsyncState_m840004493
vHe:_RemotingConfiguration_RegisterWellKnownClientType_m2985305086
_Ea:__ZN18AwakeFromLoadQueue5ClearEv
BBg:__ZL51IReflect_t3317110914_CustomAttributesCacheGeneratorP21CustomAttributesCache
I9:__ZN8Playable10DisconnectEPS_i
wr:__ZN13ProxyTransfer8TransferI15PackedIntVectorEEvRT_PKc17TransferMetaFlags
$k:_glGenTransformFeedbacks
Fjb:__ZN13LoadOperationD2Ev
_Lb:__Z16Transfer_BuiltinI11Quaternionf19StreamedBinaryWriteILb0EELb1EEvRK29SerializationCommandArgumentsR31RuntimeSerializationCommandInfo
pbe:_CaptureCollection_SetValue_m1003011714
PLe:_SByte_System_IConvertible_ToInt16_m4101107826
Cdf:_EnvoyTerminatorSink__cctor_m2746982666
eOf:_X509CertificateCollection_GetEnumerator_m2226643995
c$a:__ZNK7ApiGLES18GetExtensionStringEv
htf:__Z88RuntimeInvoker_Void_t2779279689_Il2CppObject_SByte_t2855346064_Il2CppObject_Il2CppObjectPK10MethodInfoPvPS2_
wmh:_emscripten_glVertexAttrib1f__wrapper
Osf:__Z86RuntimeInvoker_Void_t2779279689_Il2CppObject_Int64U26_t2097784814_ObjectU26_t426379564PK10MethodInfoPvPS2_
oLa:__ZNK12HandlerChain4SizeERK13FileEntryData
ep:FUNCTION_TABLE_iiiiiiiii
t0g:__ZNSt3__112__hash_tableINS_17__hash_value_typeIPK19Il2CppGenericMethodP10MethodInfoEENS_22__unordered_map_hasherIS4_S7_N6il2cpp8metadata23Il2CppGenericMethodHashELb1EEENS_21__unordered_map_equalIS4_S7_NSA_26Il2CppGenericMethodCompareELb1EEENS_9allocatorIS7_EEE8__rehashEj
FVa:__Z34MonoBehaviour_CUSTOM_StopCoroutineP15ScriptingObjectP15ScriptingString
vRd:_U24ArrayTypeU2448_t214874586_marshal_pinvoke_cleanup
FQc:_EncoderExceptionFallbackBuffer_Fallback_m3905093511
zTe:_Type_EqualsInternal_m1929885654
C6b:__Z22GetPhysicsGroundBody2Dv
s6:__ZN9ShaderLab11shaderprops9GetMatrixEPK19ShaderPropertySheetS3_NS_16FastPropertyNameERNS0_16PropertyLocationE
ndd:_Environment_GetEnvironmentVariable_m3419218304
oke:_InternalEnumerator_1_get_Current_m1631602353_gshared
WAd:_Array_FindAll_TisIl2CppObject_m3670613038_gshared
Seg:_GC_allochblk
yya:__Z15UnloadGameScenev
Rqh:_glCheckFramebufferStatus__wrapper
iLc:_SecurityContext__ctor_m2890261396
BDg:__ZL62DateTimeFormatFlags_t3168826987_CustomAttributesCacheGeneratorP21CustomAttributesCache
XXa:__ZN11PlayerPrefs9GetStringERKNSt3__112basic_stringIcNS0_11char_traitsIcEENS0_9allocatorIcEEEES8_
hXc:_Char_System_IConvertible_ToBoolean_m661905383
Tfe:_InternalEnumerator_1__ctor_m4155127258_gshared
cPb:__Z14resize_trimmedINSt3__16vectorIN15QualitySettings14QualitySettingENS0_9allocatorIS3_EEEEEvRT_j
PF:__ZN11UnityEngine15CloudWebService17SessionEventQueue8AddEventEPNS0_14CloudEventInfoE
B2e:_GUISkin_set_font_m2298219977
Yhb:__ZNSt3__16__treeINS_12basic_stringIcNS_11char_traitsIcEENS_9allocatorIcEEEENS_4lessIS6_EENS4_IS6_EEE7destroyEPNS_11__tree_nodeIS6_PvEE
ZEf:__Z71RuntimeInvoker_Il2CppObject_Scene_t2772977204_Il2CppObject_Il2CppObjectPK10MethodInfoPvPS2_
Er:__ZNK14AudioBehaviour25GetClassIDVirtualInternalEv
z5b:__ZN10Collider2D16TransformChangedEi
nng:__ZN21InterfaceFuncInvoker1IyP12Il2CppObjectE6InvokeEjP11Il2CppClassPvS1_
E5g:__ZnwjRKSt9nothrow_t
dVd:_KeyGeneratedEventHandler_BeginInvoke_m452081622
_Je:_ObjectReader_GetDeserializationType_m932539476
KXc:_Char_IsLetter_m1699036490
Vzb:__ZNSt3__118__stable_sort_moveIRN10vector_mapIP14ScriptingClassiNS_4lessIS3_EENS_9allocatorINS_4pairIS3_iEEEEE13value_compareENS_11__wrap_iterIPS8_EEEEvT0_SG_T_NS_15iterator_traitsISG_E15difference_typeEPNSJ_10value_typeE
QVa:__Z45Register_UnityEngine_MonoBehaviour_IsInvokingv
VXg:__ZL121GUILayoutUtility_t1596329428_CustomAttributesCacheGenerator_GUILayoutUtility_INTERNAL_CALL_Internal_MoveWindow_m115257690P21CustomAttributesCache
tLb:__ZL26Transfer_SimpleNativeClassI19StreamedBinaryWriteILb0EE17AnimationCurveTplIfELb0EEvRK29SerializationCommandArgumentsR31RuntimeSerializationCommandInfo
Ane:_Transform_1_Invoke_m1166627932_gshared
Ule:_Enumerator_get_CurrentValue_m1809235202_gshared
TVa:__Z48Register_UnityEngine_MonoBehaviour_StopCoroutinev
tbd:_StackFrame_GetMethod_m1989802200
mea:__Z30GetBuiltinVectorParamArraySize24BuiltinShaderVectorParam
qHf:_List_1_set_Capacity_m1332789688_gshared
A_g:__ZL111UnityWebRequest_t1582871641_CustomAttributesCacheGenerator_UnityWebRequest_InternalSetRequestHeader_m2365080026P21CustomAttributesCache
aQe:_NativeEventCalls_SetEvent_internal_m2769880995
l0c:_Hashtable_Find_m3443418693
G9b:__ZN16b2ContactManagerC2Ev
vdg:__ZN6il2cpp2os20FileErrnoToErrorCodeEi
y5d:_IPv6Address_set_ScopeId_m1866414241
xCf:__Z45RuntimeInvoker_Void_t2779279689_Slot_t2579998PK10MethodInfoPvPS2_
wyc:__ZN11UnityEngine7Connect15DeviceInfoEvent14SetDeviceModelERK8UnityStr
BFe:_RemotingSurrogateSelector__cctor_m2468294029
_Rb:__ZN14SafeBinaryRead21TransferSTLStyleArrayI13dynamic_arrayIfLj4EEEEvRT_17TransferMetaFlags
K$d:_RecordProtocol_BeginSendRecord_m284507289
qOe:_HMAC_Create_m2470432725
QLb:__Z16Transfer_BuiltinIy19StreamedBinaryWriteILb0EELb1EEvRK29SerializationCommandArgumentsR31RuntimeSerializationCommandInfo
Jog:__ZN16VirtFuncInvoker2IxxiE6InvokeEjPvxi
vye:_OpCode_op_Equality_m1885827501
Yxc:__ZN11UnityEngine15PlatformWrapper20IsRootedOrJailbrokenEv
MNb:__ZN14SafeBinaryRead21TransferSTLStyleArrayINSt3__16vectorIi13stl_allocatorIiL18MemLabelIdentifier12ELi16EEEEEEvRT_17TransferMetaFlags
k2:__Z33IntersectAABBPlaneBoundsOptimizedRK4AABBPKN4math7_float4Ei
_ea:__ZN9GfxDevice19EndGeometryJobFrameEv
Xaf:_ConfigHandler_OnEndElement_m2179721696
Zpf:__Z62RuntimeInvoker_Void_t2779279689_SByte_t2855346064_Il2CppObjectPK10MethodInfoPvPS2_
Eyc:__ZN11UnityEngine7Connect15DeviceInfoEvent13SetAppVersionERK8UnityStrb
hMe:_SByte_ToString_m1923672677
Mad:_Delegate_CreateDelegate_m1085193661
BRb:__ZN17BlendShapeChannel8TransferI18StreamedBinaryReadILb1EEEEvRT_
bed:_CCGregorianCalendar_is_leap_year_m229298524
Yre:_Dictionary_2_ContainsValue_m712275664_gshared
KR:__Z31ManagerContextInitializeClassesv
xLd:_TextWriter_Write_m2436548156
Isc:_ft_smooth_transform
_kc:_UNITY_FT_List_Finalize
zff:_PatternCompiler_EmitTest_m3519274007
mLe:_RuntimeFieldHandle_GetObjectData_m1415752713
cX:__Z20LightAttenuateApproxRKfS0_
m8:__ZN17LowLevelAllocator6MallocEj
kgh:__ZNSt3__16locale5__imp7installINS_7num_putIcNS_19ostreambuf_iteratorIcNS_11char_traitsIcEEEEEEEEvPT_
s4b:__ZNSt3__118__insertion_sort_3IRPFbPKN5IMGUI9GUIWindowES4_EPPS2_EEvT0_SA_T_
oFg:__ZL67AssemblyCompanyAttribute_t4198449939_CustomAttributesCacheGeneratorP21CustomAttributesCache
tif:_RegularExpression__ctor_m365120276
Sbc:__ZN16b2PrismaticJoint4DumpEv
fAf:__Z49RuntimeInvoker_Il2CppObject_Il2CppObject_IntPtr_tPK10MethodInfoPvPS2_
k4e:_GUIStyle_get_overflow_m2862114233
bqg:__ZN16VirtFuncInvoker2IbiiE6InvokeEjPvii
f3:__ZN18BlockRangeInternal16PopLastNodeIndexEP10BlockRangeji
apd:_DeriveBytes_set_HashName_m523420758
qnb:__ZNSt3__16vectorINS_4pairIN9ShaderLab16FastPropertyNameEfEENS_9allocatorIS4_EEE21__push_back_slow_pathIKS4_EEvRT_
Erb:__ZN4MeshD0Ev
yEc:__ZL42RequestRecreateEyeTexturesBeforeNextUpdatev
uid:_SimpleCollator_QuickCheckPossible_m2783866695
HU:__ZNK6Camera20IsCurrentlyRenderingEv
Qng:__ZN16VirtFuncInvoker0IP26DelegateU5BU5D_t4257391775E6InvokeEjPv
G8a:__ZN6Camera8TransferI19StreamedBinaryWriteILb0EEEEvRT_
k1g:__ZNSt3__114__split_bufferIP12Il2CppThreadRN6il2cpp2gc9AllocatorIS2_EEED2Ev
_gd:_SafeHandleZeroOrMinusOneIsInvalid__ctor_m3517386007
JRe:_pinvoke_delegate_wrapper_TimerCallback_t4291881837
hpb:__ZNSt3__16__treeI22DeviceStencilStateGLES11memcmp_lessIS1_18DeviceStencilStateENS_9allocatorIS1_EEE15__insert_uniqueERKS1_
LL:_jpeg_CreateDecompress
wNf:_SubjectAltNameExtension_get_DNSNames_m3652648031
Zfc:__ZN17CircleCast2DQueryD0Ev
S2g:__ZNSt3__112__hash_tableINS_17__hash_value_typeINS_4pairIPK9FieldInfoP11Il2CppClassEEP21Il2CppReflectionFieldEENS_22__unordered_map_hasherIS8_SB_17ReflectionMapHashIS8_ELb1EEENS_21__unordered_map_equalIS8_SB_19ReflectionMapEqualsIS8_ELb1EEEN6il2cpp2gc9AllocatorISB_EEE8__rehashEj
gvb:__ZNK13MonoBehaviour25GetNeedsPerObjectTypeTreeEv
R5g:__ZNSt11logic_errorD0Ev
LP:__ZNK17GlobalGameManager25GetClassIDVirtualInternalEv
Gc:___cxa_rethrow
$De:_ParameterInfo_get_ParameterType_m962921011
y0e:_Gradient_Cleanup_m850820223
hjd:_BigInteger__ctor_m1494705524
UZb:__ZN13RuntimeStaticINSt3__13setI19RepeatingLogMessageNS0_4lessIS2_EE13stl_allocatorIS2_L18MemLabelIdentifier70ELi16EEEEE16StaticInitializeEPv
Dya:__ZN10systeminfo23SupportsLocationServiceEv
HZe:_Component_GetComponent_m936021879
Lc:_pthread_cond_timedwait
WZb:__ZNSt3__113__vector_baseINS_12basic_stringIcNS_11char_traitsIcEENS_9allocatorIcEEEENS4_IS6_EEED2Ev
Hce:_InterpreterFactory_set_Mapping_m1196240885
Eae:_X509EnhancedKeyUsageExtension_Decode_m3913247855
mNe:_DESTransform_ProcessBlock_m2076172049
oge:_InternalEnumerator_1_get_Current_m3048220323_gshared
oxc:__ZN22BaseUnityConnectClient22OnRestoreFileAsyncDoneERK8UnityStrS2_b
HVc:_Boolean_System_IConvertible_ToByte_m689202539
Uza:__ZN13MonoBehaviour5DoGUIENS_13GUILayoutTypeEii
E8:__ZNK12TLSAllocatorI14StackAllocatorE8ContainsEPKv
jEf:__Z44RuntimeInvoker_ResourceCacheItem_t3699857703PK10MethodInfoPvPS2_
ZMd:_MonoCustomAttrs_GetCustomAttributes_m3210789640
PRb:__ZN14BlendShapeData8TransferI14SafeBinaryReadEEvRT_
gme:_Enumerator_get_CurrentValue_m592783249_gshared
BQb:__ZNSt3__118__insertion_sort_3IR25ValueParameterArraySorterPN20GpuProgramParameters14ValueParameterEEEvT0_S6_T_
kmb:__ZN8TypeTreeaSERKS_
Ble:_Enumerator_System_Collections_IDictionaryEnumerator_get_Key_m2023196417_gshared
fpg:__ZN18VirtActionInvoker1IhE6InvokeEjPvh
Koc:_Update_Max
Uvg:__ZN6il2cpp6icalls8mscorlib6SystemL15ThrowNoWideningEv
xUc:_Array_Sort_m2057456952
lAg:__ZL69Il2CppArray_CustomAttributesCacheGenerator_Array_SetValue_m2615500313P21CustomAttributesCache
z6:__ZN9ShaderLab9SubShader20IsSubShaderSupportedEv
kKe:_SerializationCallbacks_get_HasDeserializedCallbacks_m4051490391
Qhh:dynCall_viiiiiiiiiii
Gob:__ZL10KeyHandleriPK23EmscriptenKeyboardEventPv
Qrc:_tt_cmap4_char_index
U_c:_CaseInsensitiveHashCodeProvider__cctor_m301215120
LF:__ZN11UnityEngine15CloudWebService13SessionHeader5ResetEv
dLa:__ZNK12HandlerChain8IsHiddenERK13FileEntryData
_gf:_ExpressionCollection_get_Item_m3558752946
gIb:__ZL26Transfer_SimpleNativeClassI17RemapPPtrTransfer10RectOffsetLb0EEvRK29SerializationCommandArgumentsR31RuntimeSerializationCommandInfo
yic:__Z14ValidateFormatR13dynamic_arrayIN20TextRenderingPrivate16TextFormatChangeELj4EE
BRf:_WWWForm_get_headers_m370408569
P5d:_IPv6Address_Equals_m1266534874
uRe:_Timer_Change_m4132562187
XFc:_RijndaelManagedTransform__ctor_m380188472
h1d:_SslStreamBase_InternalBeginWrite_m3259256466
X_e:_pinvoke_delegate_wrapper_DisplaysUpdatedDelegate_t1240057615
Cbe:_Key_Equals_m3415530204
Nyf:__Z71RuntimeInvoker_Void_t2779279689_Il2CppObject_IntPtr_t_Int32_t2847414787PK10MethodInfoPvPS2_
vfb:__ZL17fill_input_bufferP22jpeg_decompress_struct
P5:__ZNK9ShaderLab20ShaderBlendStateDesc15ToGfxBlendStateEPK19ShaderPropertySheetS3_R13GfxBlendState
OL:_jpeg_consume_input
ttc:_Compute_Point_Displacement
f5:__ZN9ShaderLab9IntShaderC2Ev
JYd:_Context_set_WriteSequenceNumber_m970670722
j3g:__ZN6il2cpp6icalls8mscorlib6SystemL9IsPrivateEPK9EventInfo
Jig:__ZN6il2cpp6icalls8mscorlib6System10Reflection4Emit11TypeBuilder20setup_internal_classEP27Il2CppReflectionTypeBuilderS7_
aOc:_String_IndexOfOrdinalIgnoreCaseUnchecked_m1319653504
XAb:__Z22TransferField_NonArrayI18StreamedBinaryReadILb1EE27Converter_SimpleNativeClassI11GradientNEWEEvRK23StaticTransferFieldInfoR31RuntimeSerializationCommandInfoRT0_
cIe:_RemotingServices_GetNormalizedUri_m2995472567
pea:__ZN14ChannelAssignsC2Ev
K7a:__ZNSt3__16vectorI16MessageForwarder13stl_allocatorIS1_L18MemLabelIdentifier6ELi8EEE6resizeEj
pua:__ZN11GradientNEW8TransferI18StreamedBinaryReadILb1EEEEvRT_
GZc:_FixedSizeArrayListWrapper_RemoveAt_m3664919515
RSe:_TimeZone_IsDaylightSavingTime_m3245775367
yld:_BlockProcessor_Initialize_m3614798244
NMc:_Single_Parse_m4064562812
Sxc:__ZN11UnityEngine15PlatformWrapper19GetPhysicalMemoryMBEv
Avd:_Array_InternalArray__IndexOf_TisTimeSpan_t763862892_m1145410765_gshared
ghb:__Z21CalculateGlobalMatrix23TransformAccessReadOnly
y4g:__ZN13dynamic_arrayIP11Il2CppClassLj4EE4backEv
Wpd:_X509CertificateEnumerator_System_Collections_IEnumerator_Reset_m2379885912
qNd:_LongComparer_Compare_m1693908336
J9:__ZN8Playable22ScheduleForDestructionEv
XWb:__ZNSt3__17__sort4IRNS_6__lessI11CulledLightS2_EEPS2_EEjT0_S6_S6_S6_T_
UEf:__Z37RuntimeInvoker_Enumerator_t3496444386PK10MethodInfoPvPS2_
Keh:__ZNKSt3__17codecvtIDic11__mbstate_tE11do_encodingEv
IAe:_FieldInfo_GetFieldFromHandle_m3507098254
Y4f:_il2cpp_delegate_begin_invoke
GEf:__Z37RuntimeInvoker_Enumerator_t1094945144PK10MethodInfoPvPS2_
hsb:__ZNK9GfxDevice27GetActiveRenderSurfaceWidthEv
A5d:_IPAddress_GetHashCode_m1369616318
dPb:__ZN15QualitySettings14QualitySetting8TransferI18StreamedBinaryReadILb1EEEEvRT_
AOa:__ZN10MemoryFile4ReadEyPvPy
r6f:__ZN6il2cpp2vm4Type7GetTypeEPK10Il2CppType
$6b:__ZN17PhysicsMaterial2D23VirtualRedirectTransferER18StreamedBinaryReadILb0EE
pCg:__ZL72PKCS12_t2950126079_CustomAttributesCacheGenerator_U3CU3Ef__switchU24map9P21CustomAttributesCache
GYg:__ZL81GUIStyle_t1006925219_CustomAttributesCacheGenerator_GUIStyle_InitCopy_m3063430789P21CustomAttributesCache
lBb:__Z22Transfer_Builtin_AlignIa18StreamedBinaryReadILb1EELb1EEvRK29SerializationCommandArgumentsR31RuntimeSerializationCommandInfo
kUb:__ZN6prcoreL17RemapGenericFloatI18TexFormatRGBAFloat17TexFormatRGBAHalfEEvPKNS_9InnerInfoE
eGb:__Z19TransferField_ArrayI14SafeBinaryRead19Converter_PrimitiveIiEEvRK23StaticTransferFieldInfoR31RuntimeSerializationCommandInfoRT0_
ERa:__Z15StringToHash128PKcj
QPb:__ZN10GISettings8TransferI14SafeBinaryReadEEvRT_
Ygb:__ZN14Texture2DArray8TransferI18StreamedBinaryReadILb1EEEEvRT_
Evd:_Array_InternalArray__IndexOf_TisUriScheme_t3266528785_m4017860342_gshared
O7a:__ZN12ImmediatePtrI10GameObjectE8TransferI18StreamedBinaryReadILb1EEEEvRT_
kna:__ZN13RenderTexture13ApplySettingsEv
qib:__ZL30RegisterFilteredObjectCallbackPPviS_
scd:_Enum_System_IConvertible_ToChar_m179982628
Se:_JS_Sound_SetListenerPosition
Kn:FUNCTION_TABLE_fiffi
Q_b:__ZN13RuntimeStaticINSt3__112basic_stringIcNS0_11char_traitsIcEENS0_9allocatorIcEEEEE13StaticDestroyEPv
vP:__ZN12EventManager11RemoveEventEP10EventEntryPFvPvS2_iES2_
Wyf:__Z103RuntimeInvoker_Void_t2779279689_Single_t958209021_Single_t958209021_Single_t958209021_Single_t958209021PK10MethodInfoPvPS2_
_Ee:_ResourceReader_LoadResourceValues_m1190122720
h2d:_TlsCipherSuite_ComputeMasterSecret_m988816908
axe:_EnumBuilder_IsDefined_m2341849838
w3c:_Convert_ToDateTime_m2913263033
TGa:__ZNK8Material16MarkDependenciesER27GarbageCollectorThreadState
OGc:_RNGCryptoServiceProvider__cctor_m2943310534
tB:__ZN4FMOD6System12createReverbEPPNS_6ReverbE
Hq:__ZN8Playable17IsMultithreadableEv
qKf:_Collection_1_System_Collections_IList_Contains_m1738786543_gshared
gud:_Array_InternalArray__IEnumerable_GetEnumerator_TisResourceCacheItem_t3699857703_m4247583091_gshared
a8g:__ZNSt3__112basic_stringIcNS_11char_traitsIcEENS_9allocatorIcEEE6appendEPKc
Eoe:_ValueCollection_System_Collections_Generic_ICollectionU3CTValueU3E_Add_m1336613823_gshared
M4d:_FtpWebRequest__ctor_m3137933378
c1c:_SyncHashtable_Add_m626175119
asc:_tt_cmap10_char_index
lje:_InternalEnumerator_1_System_Collections_IEnumerator_get_Current_m1022211391_gshared
Y5d:_ServicePoint_get_IdleSince_m3269103731
Mlc:_UNITY_FT_Destroy_Class_cff_field_handlers
L0b:__ZN5IMGUI20MoveWindowFromLayoutER8GUIStateiRK5RectTIfE
r9d:_X509Chain_ValidateChain_m976559422
dxf:__Z160RuntimeInvoker_Void_t2779279689_Il2CppObject_Il2CppObject_Il2CppObject_Int32_t2847414787_Int32_t2847414787_Int32_t2847414787_Int32_t2847414787_Int32_t2847414787PK10MethodInfoPvPS2_
Lkc:_UNITY_FT_Stream_ReadUShort
fEg:__ZL98FileSystemInfo_t2843833056_CustomAttributesCacheGenerator_FileSystemInfo_GetObjectData_m4060637166P21CustomAttributesCache
LWa:__Z50Register_UnityEngine_Object_FindSceneObjectsOfTypev
C$f:_BallControl_Start_m2471976682
Udg:__ZN6il2cpp2vm8Profiler7GCEventE13Il2CppGCEvent
H8d:_X509Certificate2Collection__ctor_m576565548
VKe:_SerializationInfo_AddValue_m1083712391
jEg:__ZL64Path_t2029632748_CustomAttributesCacheGenerator_InvalidPathCharsP21CustomAttributesCache
Rf:_emscripten_glUniform1fv
Jvb:__ZNK17FileSystemHandler8IsHiddenERK13FileEntryData
RSd:_SequentialSearchPrimeGeneratorBase_GenerateSearchBase_m3042338792
u0e:_GameObject_SendMessage_m423373689
dA:__ZN4FMOD7Channel7setModeEj
xYa:__ZN13EmscriptenWWW6CancelEv
i0e:_Playables_CastToInternal_m3521890406
v1d:_SslStreamBase_get_KeyExchangeStrength_m4089580817
gb:invoke_difi
anf:__Z72RuntimeInvoker_Int32_t2847414787_Decimal_t1688557254_Decimal_t1688557254PK10MethodInfoPvPS2_
H3e:_GUIStyle__cctor_m1452061078
p_b:__ZL50StaticRegisterSceneLoadedCallback_LightmapSettingsPv
eWb:__ZN29MotionVectorRenderLoopScratch15ThreadedCleanupEv
qn:FUNCTION_TABLE_iiffi
HMd:_MissingMethodException__ctor_m2328497877
occ:__ZNK11b2RopeJoint10GetAnchorAEv
TKf:_ReadOnlyCollection_1_System_Collections_Generic_IListU3CTU3E_Insert_m3496388003_gshared
nve:_ILGenerator__ctor_m363767667
Fxb:__ZN21GLESGpuProgramApplier11ApplyVectorERKN20GpuProgramParameters14ValueParameterEPK8Vector4ft
fV:__Z17PrepareSceneNodesP11CullResults
W6c:_DateTime_System_IConvertible_ToUInt16_m3136984848
NYd:_Context_set_ClientRandom_m628701865
xCd:_TextInfo_Clone_m2796816861
Blc:_cff_size_done
Kmf:__Z58RuntimeInvoker_Single_t958209021_Il2CppObject_Il2CppObjectPK10MethodInfoPvPS2_
q2:__ZN22RenderingCommandBuffer13GetAndCheckRTE24BuiltinRenderTextureTypeRKN9ShaderLab16FastPropertyNameEPKcPP13RenderTexture
tU:__ZN6Camera34UpdatePreviousViewProjectionMatrixEv
X5:__ZN9ShaderLab11ShaderState25RemoveUnsupportedProgramsEPK6Shader
PJb:__ZN6HelperI18StreamedBinaryReadILb0EE23TransferArrayField_InfoLb1EE24SerializationFunctionForERKS2_R23StaticTransferFieldInfoPb
vQd:_CustomInfo_Format_m1427734085
DWa:__Z44Register_UnityEngine_Object_DestroyImmediatev
eXa:__Z47Register_UnityEngine_Component_BroadcastMessagev
gr:__ZN18StreamedBinaryReadILb0EE21TransferSTLStyleArrayI13dynamic_arrayI4PPtrI6ObjectELj4EEEEvRT_17TransferMetaFlags
z9f:__ZN6il2cpp6icalls8mscorlib6System2IO6MonoIO4ReadE12Il2CppIntPtrP11Il2CppArrayiiPi
lDf:__Z69RuntimeInvoker_Void_t2779279689_Int32_t2847414787_TimeSpan_t763862892PK10MethodInfoPvPS2_
xkg:__ZN6il2cpp8metadata25Il2CppGenericClassCompare7CompareEPK18Il2CppGenericClassS4_
rme:_ShimEnumerator_Reset_m2195569961_gshared
RKf:_ReadOnlyCollection_1_System_Collections_Generic_ICollectionU3CTU3E_Add_m2541166012_gshared
s1b:__Z36Register_UnityEngine_GUI_set_changedv
k_b:__ZN13RuntimeStaticI12AdsIdHandlerE10InitializeEv
IRg:__ZL50OpFlags_t4096314113_CustomAttributesCacheGeneratorP21CustomAttributesCache
IBc:__ZNK24DownloadHandlerAudioClip13GetMemorySizeEv
ata:__ZN12InputManager23VirtualRedirectTransferER18StreamedBinaryReadILb1EE
X2b:__Z42Register_UnityEngine_GUIStyle_get_wordWrapv
rrg:__ZN16VirtFuncInvoker0I8IntPtr_tE6InvokeEjPv
_yd:_Array_Resize_TisByte_t2778693821_m2189585586_gshared
mlg:__GLOBAL__sub_I_Thread_cpp
a3g:__ZL9rshift128PyS_
AM:_jsimd_h2v1_upsample
Mk:_glRenderbufferStorage
Nxg:__ZL43Il2CppObject_CustomAttributesCacheGeneratorP21CustomAttributesCache
ZVe:_UInt64_ToString_m3095865744
cyc:__ZN11UnityEngine15PlatformWrapper28GetTextureFormatSupportFlagsEv
_oc:_UNITY_FT_Create_Class_pshinter_module_class
Wld:_KeyGeneratedEventHandler_Invoke_m257300999
$xe:_GenericTypeParameterBuilder_get_TypeHandle_m1599953625
jmc:_cf2_setError
q2e:_GUIScrollGroup_SetVertical_m3472565924
Ygh:__ZNSt3__125__num_get_signed_integralIlEET_PKcS3_Rji
P$:__Z33InterpolateLightProbeCoefficientsRK17LightProbeContextRK29LightProbeSamplingCoordinatesR20SphericalHarmonicsL2
g4b:__ZNSt3__16vectorIP6IDListNS_9allocatorIS2_EEE21__push_back_slow_pathIKS2_EEvRT_
etg:__ZN18VirtActionInvoker2I18OpCode_t4028977979P6Type_tE6InvokeEjPvS0_S2_
Z0f:__ZN6il2cpp2vm5Class18GetInterfaceOffsetEP11Il2CppClassS3_
Dvg:__ZNSt3__16vectorIiNS_9allocatorIiEEE21__push_back_slow_pathIiEEvOT_
Dpf:__Z96RuntimeInvoker_Void_t2779279689_SByte_t2855346064_ByteU5BU5DU26_t3506413520_Int32U26_t2544866037PK10MethodInfoPvPS2_
lh:_glDisable
ub:invoke_vffff
N7g:__ZNSt3__17__sort5IRNS_6__lessIiiEEPiEEjT0_S5_S5_S5_S5_T_
Oah:__ZNSt3__18time_getIcNS_19istreambuf_iteratorIcNS_11char_traitsIcEEEEED2Ev
JEb:__ZN4PPtrI9Texture2DE8TransferI14SafeBinaryReadEEvRT_
TJb:__Z22Transfer_Builtin_AlignIt18StreamedBinaryReadILb0EELb1EEvRK29SerializationCommandArgumentsR31RuntimeSerializationCommandInfo
Ine:_Enumerator_System_Collections_IEnumerator_get_Current_m2834115931_gshared
yQb:__ZNSt3__17__sort3IR25ValueParameterArraySorterPN20GpuProgramParameters14ValueParameterEEEjT0_S6_S6_T_
PJ:_UNITY_png_read_update_info
thh:_bitshift64Ashr
Mce:_Interval_get_IsDiscontiguous_m4161255183
LXc:_Char_IsLetterOrDigit_m2290383044
web:__ZN4crnd12crn_unpacker22decode_alpha_endpointsEv
d8c:_DateTime_CheckStyle_m1804676438
G_:__Z23CullDynamicObjectsUmbraPK4AABBPKN5Umbra15OcclusionBufferER9IndexList
RCf:__Z75RuntimeInvoker_Void_t2779279689_Int32_t2847414787_KeyValuePair_2_t816448501PK10MethodInfoPvPS2_
gna:__ZN13RenderTexture9SetActiveERK20GfxRenderTargetSetupPPS_j
UOc:_String_Join_m908926965
Rrc:_tt_cmap4_char_next
omg:__ZN16VirtFuncInvoker3IiP20ByteU5BU5D_t58506160iiE6InvokeEjPvS1_ii
Up:__ZN18StreamedBinaryReadILb1EE21TransferSTLStyleArrayI13dynamic_arrayIiLj4EEEEvRT_17TransferMetaFlags
zTf:_Object_op_Inequality_m1296218211
lJd:_NullStream_SetLength_m76840858
JCc:__Z46UnityWebRequest_Set_Custom_PropUseHttpContinueP15ScriptingObjecth
Gy:__ZN4FMOD6SoundI11getSubSoundEiPPNS_5SoundE
Qsb:__ZN9GfxDevice20SetComputeBufferDataE15ComputeBufferIDPKvj
Rz:__ZN4FMOD7Channel11setPositionEjj
U0b:__ZN5IMGUI19NamedKeyControlList15AddNamedControlERKNSt3__112basic_stringIcNS1_11char_traitsIcEENS1_9allocatorIcEEEEii
uJa:__Z22CreateMutexLockedQueuev
pi:_glGetVertexAttribiv
Dob:__ZNSt3__16__treeINS_12__value_typeINS_12basic_stringIcNS_11char_traitsIcEENS_9allocatorIcEEEE9PrefValueEENS_19__map_value_compareIS7_S9_NS_4lessIS7_EELb1EEENS5_IS9_EEE7destroyEPNS_11__tree_nodeIS9_PvEE
eQb:__ZN26SharedLightmapSettingsDataD2Ev
x6:__ZN9ShaderLab9SubShaderD2Ev
chc:__ZN19ControllerHitReport13onObstacleHitERKN5physx23PxControllerObstacleHitE
reg:_GC_promote_black_lists
ko:FUNCTION_TABLE_vf
Co:FUNCTION_TABLE_vd
WWb:__ZNSt3__16__sortIRNS_6__lessI11CulledLightS2_EEPS2_EEvT0_S6_T_
Eo:FUNCTION_TABLE_vi
VKb:__ZN6HelperI19StreamedBinaryWriteILb0EE18TransferField_InfoLb0EE24SerializationFunctionForERKS2_R23StaticTransferFieldInfoPb
gFd:_IntPtr_GetHashCode_m783209249
Cwd:_Array_InternalArray__ICollection_Add_TisHitInfo_t2591228609_m3621571468_gshared
JZg:__ZL103GUIUtility_t1366332446_CustomAttributesCacheGenerator_GUIUtility_Internal_GetPixelsPerPoint_m4247925832P21CustomAttributesCache
n9e:_SafeHandle_DangerousRelease_m2551287562
aAf:__Z49RuntimeInvoker_Rect_t1525428817_Int32_t2847414787PK10MethodInfoPvPS2_
tme:_ShimEnumerator_MoveNext_m3121803640_gshared
XWg:__ZL104Playables_t1588335518_CustomAttributesCacheGenerator_Playables_INTERNAL_CALL_InternalDestroy_m1453669761P21CustomAttributesCache
e8a:__ZNSt3__16vectorI16MessageForwarder13stl_allocatorIS1_L18MemLabelIdentifier6ELi8EEE6assignIPS1_EENS_9enable_ifIXaasr21__is_forward_iteratorIT_EE5valuesr16is_constructibleIS1_NS_15iterator_traitsIS9_E9referenceEEE5valueEvE4typeES9_S9_
rVc:_AttributeUsageAttribute_get_Inherited_m927710919
n4d:_EditorBrowsableAttribute_Equals_m2138671840
sGg:__ZL57TargetException_t565659628_CustomAttributesCacheGeneratorP21CustomAttributesCache
BGb:__Z16Transfer_BuiltinIy13ProxyTransferLb0EEvRK29SerializationCommandArgumentsR31RuntimeSerializationCommandInfo
ya:invoke_iiifiii
Qpc:__ZNSt3__16__treeIN20TextRenderingPrivate4Font15TexturePositionENS_4lessIS3_EE13stl_allocatorIS3_L18MemLabelIdentifier34ELi16EEE7destroyEPNS_11__tree_nodeIS3_PvEE
S8f:__ZN6il2cpp2vm9Exception11FromNameMsgEPK11Il2CppImagePKcS6_S6_
NId:_MemoryStream_Write_m1111852548
fRe:_ThreadInterruptedException__ctor_m2298757640
aCc:__ZN19TransportJavaScript7CleanupEv
zRa:__Z12GUIDToStringRK9UnityGUIDPc
nKa:__ZN15FileSystemEntry4LockE12FileLockModeP12FileAccessor
S9e:_ChannelData__ctor_m2645775933
Lle:_Enumerator__ctor_m584315628_gshared
hkg:__ZN6il2cpp5utils9PathUtils13DirectoryNameERKNSt3__112basic_stringIcNS2_11char_traitsIcEENS2_9allocatorIcEEEE
Xc:_glReadBuffer
dZ:__Z14SetupLightmapsRK8Vector4fS1_R17ShaderPassContext
Cyc:__ZN11UnityEngine7Connect15DeviceInfoEvent16SetAdvertisingIdERK8UnityStr
e8:__ZN20DynamicHeapAllocatorI17LowLevelAllocatorED0Ev
L$c:_Hashtable_SetTable_m463771856
i4c:_Convert_ToInt16_m279880205
zVb:__ZN9DepthPassD2Ev
uJf:_Collection_1_GetEnumerator_m625631581_gshared
sv:__ZN11AudioFilter6GetDSPEv
Jke:_DefaultComparer__ctor_m86943554_gshared
Rie:_InternalEnumerator_1_MoveNext_m3792346959_gshared
$Zd:_TlsServerCertificate_ProcessAsSsl3_m3288731615
IIe:_WellKnownClientTypeEntry_get_ObjectUrl_m2741314918
_Y:__Z22ExtractRenderNodeQueueRK11CullResults15ExtractionFlagsR15RenderNodeQueue
Iba:__ZN4Mesh14GetMeshBuffersER11MeshBuffersjPS_b
nfg:_GC_print_hblkfreelist
Eqf:__Z102RuntimeInvoker_Int32_t2847414787_Il2CppObject_Int32_t2847414787_Int32_t2847414787_Int32U26_t2544866037PK10MethodInfoPvPS2_
Sbg:__ZN6il2cpp2vm6Method7GetNameEPK10MethodInfo
kif:_NonBacktrackingGroup__ctor_m1908070474
xyg:__ZL91IEnumerable_t287189635_CustomAttributesCacheGenerator_IEnumerable_GetEnumerator_m3433487035P21CustomAttributesCache
Av:__ZN24AudioScriptBufferManagerC2Ev
yy:__ZN4FMOD4DSPI12setParameterEif
ex:__Z21InitializeAudioModulev
Kda:__Z21GetAsyncUploadManagerv
fk:_emscripten_glDetachShader
qyd:_Array_InternalArray__set_Item_TisKeyValuePair_2_t3312956448_m975555216_gshared
Uqg:__ZN21InterfaceFuncInvoker0IP8String_tE6InvokeEjP11Il2CppClassPv
aba:__ZN17GenericDynamicVBO20ReleaseChunkInternalERK21DynamicVBOChunkHandlejj
Epc:__ZL27CleanupModule_TextRenderingv
Qog:__ZN18VirtActionInvoker3IP22CharU5BU5D_t3416858730iiE6InvokeEjPvS1_ii
U6g:_fmodl
T6g:_fmodf
IFd:_BinaryReader_Read_m2496479153
uxd:_Array_InternalArray__Insert_TisBoolean_t211005341_m1804746733_gshared
p4:__ZN12CachedWriter11Align4WriteEv
l$:__Z20DoDeferredRenderLoopR17RenderLoopContextR13dynamic_arrayI16RenderObjectDataLj4EES4_RK11CullResultsRP13RenderTextureSA_Pb
H3:__ZN19RuntimeSceneManager11CreateSceneEv
lHb:__ZL26Transfer_SimpleNativeClassI13ProxyTransfer8GUIStyleLb1EEvRK29SerializationCommandArgumentsR31RuntimeSerializationCommandInfo
wrc:_ps_get_standard_strings
YFc:_RijndaelManaged_CreateEncryptor_m687746235
Kjg:__ZN6il2cpp2os5Mutex6UnlockEv
Ohd:_SimpleCollator_SetCJKTable_m1695548744
PSf:_UploadHandlerRaw_t3371584520_marshal_pinvoke
q7:__Z19free_alloc_internalPv18MemLabelIdentifier
BMa:__ZNK23ArchiveStorageConverter16GetDirectoryInfoEv
$3:__ZN10UnityScene23CreateLevelGameManagersEv
Bp:__ZN6Object23VirtualRedirectTransferER19StreamedBinaryWriteILb1EE
Pof:__Z62RuntimeInvoker_Void_t2779279689_Il2CppObject_SByte_t2855346064PK10MethodInfoPvPS2_
O$g:__ZL61U24ball_resetU2432_t3416395376_CustomAttributesCacheGeneratorP21CustomAttributesCache
knd:_EncryptedPrivateKeyInfo_get_Salt_m3294338600
jcf:_DynamicPropertyCollection_FindProperty_m926596200
hXg:__ZL57ContactPoint2D_t3963746319_CustomAttributesCacheGeneratorP21CustomAttributesCache
Swa:__ZN10InputEventD2Ev
Tkf:__Z106RuntimeInvoker_Boolean_t211005341_SByte_t2855346064_Il2CppObject_Int32_t2847414787_ExceptionU26_t147620060PK10MethodInfoPvPS2_
Pyd:_Array_InternalArray__set_Item_TisMark_t3725932776_m881861961_gshared
kFb:__Z16Transfer_BuiltinI10ColorRGBAf14SafeBinaryReadLb1EEvRK29SerializationCommandArgumentsR31RuntimeSerializationCommandInfo
wJc:_TripleDES_get_Key_m3541813947
uLb:__ZL26Transfer_SimpleNativeClassI19StreamedBinaryWriteILb0EE11GradientNEWLb0EEvRK29SerializationCommandArgumentsR31RuntimeSerializationCommandInfo
lwe:_TypeBuilder_get_DeclaringType_m1033527492
S4g:_isalpha
Byf:__Z106RuntimeInvoker_Void_t2779279689_Il2CppObject_Il2CppObject_SByte_t2855346064_Int32_t2847414787_Il2CppObjectPK10MethodInfoPvPS2_
p8d:_X509Certificate2_get_SignatureAlgorithm_m3325406410
K0e:_GUISkin_MakeCurrent_m174297994
Mrd:_ArgumentException_get_ParamName_m1483230569
L5a:_UNITY_png_read_filter_row_paeth_multibyte_pixel
Wvb:__ZN17FileSystemHandler5TouchER13FileEntryData
zbc:__ZNK12b2MotorJoint17GetReactionTorqueEf
XCd:_Guid_t2778838590_marshal_pinvoke
Okf:__Z45RuntimeInvoker_UInt16_t985925268_Il2CppObjectPK10MethodInfoPvPS2_
YSb:__ZN6prcoreL13inner_stretchILj1ELj1EEEvPKNS_9InnerInfoE
UTd:_HMAC_HashFinal_m3498276984
eug:__ZN6il2cpp2vmL17IsSocketAsyncCallEP14Il2CppDelegate
sAd:_Array_InternalArray__get_Item_TisIl2CppObject_m1537058848_gshared
NEf:__Z37RuntimeInvoker_Enumerator_t1306794163PK10MethodInfoPvPS2_
$Lf:_ReadOnlyCollection_1_System_Collections_IList_Add_m2345659311_gshared
J1e:_GUILayoutGroup__ctor_m3393996275
T7c:_DateTimeUtils_GetStandardPattern_m4117827954
PU:__ZN6Camera23VirtualRedirectTransferER19StreamedBinaryWriteILb0EE
Zcg:__ZN6il2cpp2os6Thread12GetApartmentEv
etb:__ZN9GfxDevice28UpdateComputeConstantBuffersEjP12ObjectHandleI18ConstantBuffer_TagPvEjjPKhPKjS8_PKi
Cl:_time
EAc:__ZN29UnityWebRequestAsyncOperationD0Ev
vZg:__ZL105GUIStyle_t1006925219_CustomAttributesCacheGenerator_GUIStyle_INTERNAL_CALL_Internal_DrawCursor_m330118499P21CustomAttributesCache
W7:__ZN14BatchAllocator6CommitE18MemLabelIdentifier
edb:__Z18SkinGenericMathLibILi2ELb0ELb0EEvR12SkinMeshInfo
fLc:_RuntimeDeclSecurityEntry_t2302558261_marshal_pinvoke
IBd:_NumberFormatInfo_get_NegativeInfinitySymbol_m3062678821
w0e:_Gradient__ctor_m3068495933
yce:_IntStack_t618478585_marshal_pinvoke
SBd:_NumberFormatInfo_get_PercentGroupSeparator_m1671536445
B8a:__ZN6Camera7PRODUCEE18MemLabelIdentifier18ObjectCreationMode
ejg:__ZN6il2cpp6icalls8mscorlib6System11Diagnostics10StackTrace9get_traceEP15Il2CppExceptionib
nqh:_glDeleteSync__wrapper
fHb:__Z16Transfer_BuiltinIi13ProxyTransferLb1EEvRK29SerializationCommandArgumentsR31RuntimeSerializationCommandInfo
lra:__Z20GetTextureFormatInfo13TextureFormat
V2b:__Z43Register_UnityEngine_GUIStyle_get_alignmentv
jne:_Transform_1__ctor_m641310834_gshared
naf:_CrossAppDomainChannel_StartListening_m4255931667
dfe:_ArrayReadOnlyList_1_Insert_m738278233_gshared
ZTd:_MD2_Create_m2231408195
y0f:__ZN6il2cpp2vm5Class4InitEP11Il2CppClass
CEa:__ZN18StreamedBinaryReadILb1EE5AlignEv
aig:__ZN6il2cpp5utils10MemoryPool6MallocEj
Fw:__ZN11SoundHandle8InstanceD2Ev
vW:__ZN31CanvasBatchIntermediateRenderer13StaticDestroyEPv
eSf:_UnityWebRequest_InternalGetUrl_m3811648454
Cvc:__ZNSt3__16vectorI8UnityStr13stl_allocatorIS1_L18MemLabelIdentifier34ELi16EEE8__appendEj
yRe:_Scheduler__ctor_m1239585238
ELd:_UnexceptionalStreamReader__ctor_m3602034817
pEb:__Z16Transfer_BuiltinI10ColorRGBAf14SafeBinaryReadLb0EEvRK29SerializationCommandArgumentsR31RuntimeSerializationCommandInfo
e$e:_Event_get_current_m238587645
xnh:_emscripten_glBindProgramARB__wrapper
Rmd:_MACAlgorithm__ctor_m1891225170
oUa:__Z41Register_UnityEngine_CullingGroup_Disposev
O3c:_Decimal_Parse_m3786250826
dZf:_EqualityComparer_1_System_Collections_IEqualityComparer_GetHashCode_m1812781938_gshared
xja:__ZN7Cubemap23VirtualRedirectTransferER19StreamedBinaryWriteILb0EE
qrh:b80
m3c:_Convert_ToChar_m3357628966
POa:__ZN25MultiBlocksMemoryFileData5WriteEyyPKv
Zbc:__ZNK13b2PulleyJoint16GetReactionForceEf
cDe:_MonoMethod_GetCustomAttributes_m673046967
rSf:_UnityWebRequest_set_chunkedTransfer_m3848763846
Zzf:__Z72RuntimeInvoker_Boolean_t211005341_Rect_t1525428817_Il2CppObject_IntPtr_tPK10MethodInfoPvPS2_
Iwb:__ZL17ProgramUniform2fvPK7ApiGLESjiihPKv
CId:_MemoryStream_get_Position_m2952192395
agb:__ZZN8Renderer15InitializeClassEvEN34FunctorImpl_Renderer_kLayerChanged4CallEPviR11MessageData
obg:__ZN6il2cpp5utils11StringUtils8EndsWithERKNSt3__112basic_stringIcNS2_11char_traitsIcEENS2_9allocatorIcEEEESA_
N_d:_TlsStream__ctor_m868803046
PGf:_List_1_System_Collections_IEnumerable_GetEnumerator_m1841330603_gshared
bCf:__Z72RuntimeInvoker_Int32_t2847414787_CustomAttributeNamedArgument_t318735129PK10MethodInfoPvPS2_
pha:__Z30scripting_method_has_attribute21ScriptingMethodIl2CppP14ScriptingClass
ywb:__ZN13Lz4CompressorD0Ev
KWf:_WaitForEndOfFrame__ctor_m4124201226
q6c:_CurrentSystemTimeZone_GetTimeZoneData_m615725030
SJb:__ZN18StreamedBinaryReadILb0EE21TransferSTLStyleArrayI31ArrayOfManagedObjectsTransfererEEvRT_17TransferMetaFlags
X_c:_CaseInsensitiveHashCodeProvider_GetHashCode_m517823364
gwg:__ZN13dynamic_arrayIP12Il2CppObjectLj4EEixEj
nAe:_TypeBuilder_get_ContainsGenericParameters_m446053341
zRc:_Encoding_GetHashCode_m2437082384
Atb:__ZNK7Cubemap20GetTextureLayerCountEv
xgf:_Regex_CreateMachine_m1572823491
qZc:_ArrayListWrapper_AddRange_m819293673
Mlg:__ZN18VirtActionInvoker06InvokeEjPv
mHc:_RSACryptoServiceProvider_EncryptValue_m511499327
S8a:__ZN16GraphicsSettings7PRODUCEE18MemLabelIdentifier18ObjectCreationMode
zt:__ZN12AudioManager21FixMasterGroupRoutingEv
hJa:__ZNK19ShaderPropertySheet11HasPropertyERKN9ShaderLab16FastPropertyNameE
ica:__ZN16MeshVertexFormat20GetVertexDeclarationEjPKS_
Xfb:__ZN2UI13RectTransform19SetAnchoredPositionERK8Vector2f
Bbc:__ZN12b2MouseJointC2EPK15b2MouseJointDef
wbg:__ZN6il2cpp6icalls8mscorlib6System4Enum12get_hashcodeEP12Il2CppObject
khg:_GC_set_no_dls
ZNc:_String_IndexOf_m1456548334
Gec:__ZN24b2ChainAndPolygonContactD0Ev
Wwd:_Array_InternalArray__ICollection_CopyTo_TisIntPtr_t_m877597887_gshared
qCg:__ZL72PKCS12_t2950126079_CustomAttributesCacheGenerator_U3CU3Ef__switchU24mapAP21CustomAttributesCache
dub:__ZNK13ScreenManager16GetScreenTimeoutEv
cgc:__ZN15dense_hashtableINSt3__14pairIKNS1_IPK10Collider2DS4_EE11Collision2DEES5_NS2_23ColliderPairHashFunctorEN14dense_hash_mapIS5_S7_S9_NS0_8equal_toIS5_EE13stl_allocatorIS8_L18MemLabelIdentifier65ELi16EEE9SelectKeyESC_SF_E9copy_fromERKSI_j
Hee:_U3CGetEnumeratorU3Ec__Iterator0__ctor_m2799549978_gshared
Hr:__ZN9AudioClip7WWWOpenEPKciPjPPvS4_
Elf:__Z75RuntimeInvoker_Byte_t2778693821_Il2CppObject_Int32_t2847414787_Il2CppObjectPK10MethodInfoPvPS2_
VMf:_UnityAction_1_Invoke_m4076964868_gshared
FMg:__ZL78Mutex_t3540010562_CustomAttributesCacheGenerator_Mutex_ReleaseMutex_m564775316P21CustomAttributesCache
_pd:_X509Extension_Decode_m2024676052
MDc:__GLOBAL__sub_I_WebRequestManager_cpp
gWa:__Z53Register_UnityEngine_Input_INTERNAL_get_mousePositionv
v_b:__ZNSt3__16__treeINS_12__value_typeINS_12basic_stringIcNS_11char_traitsIcEENS_9allocatorIcEEEEPvEENS_19__map_value_compareIS7_S9_NS_4lessIS7_EELb1EEENS5_IS9_EEE7destroyEPNS_11__tree_nodeIS9_S8_EE
FRe:_Scheduler_ShrinkIfNeeded_m4137944589
OAe:_MemberFilter_Invoke_m1252503396
swg:__ZNSt3__16__treeINS_12__value_typeIjN6il2cpp2os17SocketHandleEntryEEENS_19__map_value_compareIjS5_NS_4lessIjEELb1EEENS_9allocatorIS5_EEE5eraseENS_21__tree_const_iteratorIS5_PNS_11__tree_nodeIS5_PvEEiEE
cZe:_Camera_INTERNAL_CALL_RaycastTry_m2819346616
qSf:_UnityWebRequest_get_chunkedTransfer_m3211590493
Xra:__ZN9Transform23VirtualRedirectTransferER13ProxyTransfer
VTd:_HMAC_HashCore_m3652556320
htb:__ZN9GfxDevice22DispatchComputeProgramE12ObjectHandleI18ComputeProgram_TagPvEjjj
Pc:_SDL_GetTicks
K0a:__ZN18GfxFramebufferGLES20CleanupFBOMapForRBIDERKj
rNe:_DSA_ZeroizePrivateKey_m2681539184
TZ:__Z21CreateShadowCullerJobP30CreateUmbraShadowCullerJobData
Zwb:__ZL18ProgramUniform2uivPK7ApiGLESjiihPKv
Yoh:_glUniform4iv__wrapper
rPe:_UTF8Encoding_GetBytes_m758519618
gUe:_Type_get_IsGenericType_m3394442905
OOc:_String_Concat_m3016520001
krc:_cf2_computeDarkening
xWd:_TlsStream_ToArray_m613486997
CDf:__Z49RuntimeInvoker_Link_t2496691359_Int32_t2847414787PK10MethodInfoPvPS2_
Sfg:_GC_expand_hp_inner
Dgd:_U24ArrayTypeU2452_t214874610_marshal_pinvoke
cFb:__Z15Transfer_StringI14SafeBinaryReadLb1EEvRK29SerializationCommandArgumentsR31RuntimeSerializationCommandInfo
Ghd:_MSCompatUnicodeTable_IsHalfWidthKana_m1031776025
Ppg:__ZN21InterfaceFuncInvoker1Ii19TimeSpan_t763862892E6InvokeEjP11Il2CppClassPvS0_
Nwg:__ZN4utf812find_invalidIPKcEET_S3_S3_
hYf:_AesManaged_CreateDecryptor_m2733487560
neg:_GC_err_printf
Vrd:_ArgumentOutOfRangeException_get_Message_m873931152
t$c:_CollectionBase_OnSetComplete_m2205481652
GWd:_SecurityParameters_get_ServerWriteMAC_m451878936
oYf:_AesTransform_Decrypt128_m3310750971
Dic:__ZN20TextRenderingPrivate19NativeTextGenerator23FixLineHorizontalOffsetEiii
Dxd:_Array_InternalArray__Insert_TisSlot_t2579998_m3556997109_gshared
Nnb:__ZNSt3__112basic_stringIcNS_11char_traitsIcEE13stl_allocatorIcL18MemLabelIdentifier1ELi16EEE6appendEPKc
z7c:_DateTime_CoreParse_m2501063101
nkh:_emscripten_glDepthRange__wrapper
iGa:__ZN14SerializedFile7ReleaseEv
mTe:_Type_get_IsMarshalByRef_m345073144
wqd:_SmallXmlParser_HandleWhitespaces_m1038007407
xVe:_UInt32_ToString_m904380337
QNa:__ZN16MemoryFileSystem4OpenER13FileEntryData14FilePermission16FileAutoBehavior
WLf:_ReadOnlyCollection_1_System_Collections_Generic_IListU3CTU3E_get_Item_m1907188237_gshared
Nef:_MatchCollection_get_FullList_m3038253348
qt:__ZN12AudioManager12CleanupClassEv
ss:__ZN9AudioClip18GetQueuedAudioDataEPPvj
T9d:_X509Chain_GetSubjectKeyIdentifier_m2141872961
xCb:__Z14resize_trimmedINSt3__16vectorI5RectTIfE13stl_allocatorIS3_L18MemLabelIdentifier1ELi16EEEEEvRT_j
R6b:__ZN16Physics2DManager26DestroyRigidbodyCollisionsEP11Rigidbody2D
cbg:__ZN6il2cpp2os5posix15PosixWaitObject13InterruptWaitEv
Bac:__ZN15b2ContactSolver13StoreImpulsesEv
aYe:_AsyncOperation_get_priority_m1711502735
YZ:__Z18SetShadowsKeywordsR17ShaderPassContext9LightType10ShadowType16ShadowProjectionbb
yDd:_OverflowException__ctor_m3303963134
caa:__ZN17CollisionMeshDataC2Ev
NTe:_Type_GetMethod_m2884801946
ola:__ZN16LightmapSettings23VirtualRedirectTransferER19StreamedBinaryWriteILb0EE
l6b:__ZN19CollisionListener2DC2Ev
Hd:_sqrtf
Qoh:_glTexParameteriv__wrapper
lmb:__ZN18IDCollectorFunctor18GenerateInstanceIDEi17TransferMetaFlags
FAc:__ZN29UnityWebRequestAsyncOperation11GetProgressEv
phe:_InternalEnumerator_1__ctor_m2868618147_gshared
dea:__Z33InitializeBuiltinShaderParamNamesv
r6c:_CurrentSystemTimeZone_GetDaylightTimeFromData_m3433378959
TZd:_TlsClientKeyExchange_ProcessAsTls1_m1975962347
pGf:_List_1_AddCollection_m2560149371_gshared
Gsc:_ft_smooth_init
lQg:__ZL50TimeZone_t764070862_CustomAttributesCacheGeneratorP21CustomAttributesCache
F1f:__ZN6il2cpp2vm13MetadataCache25GetMethodGenericContainerEPK10MethodInfo
uLg:__ZL54IPermission_t2562055037_CustomAttributesCacheGeneratorP21CustomAttributesCache
lNe:_DESTransform_BSwap_m93014511
gG:__ZN11UnityEngine15CloudWebService13WWWRestClientD0Ev
vhe:_InternalEnumerator_1__ctor_m923076597_gshared
WVb:__ZN14qsort_internal8_QSortMTIP18RPDataMotionVectoriN22MotionVectorRenderLoop18RenderObjectSorterEE12ThreadedSortEPNS5_9JobHeaderE
d5c:_Convert_ToSByte_m1554304696
PVb:__ZNSt3__111__sift_downIR19ROSorterReplacementP17RODataReplacementEEvT0_S5_T_NS_15iterator_traitsIS5_E15difference_typeES5_
nZf:_EqualityComparer_1_System_Collections_IEqualityComparer_GetHashCode_m2732483936_gshared
QFa:__ZN17PersistentManager4LockEv
avb:__ZN15ResourceManagerD2Ev
UId:_MonoIO_get_ConsoleError_m1713017619
PHg:__ZL101ChannelServices_t456245315_CustomAttributesCacheGenerator_ChannelServices_RegisterChannel_m1343018521P21CustomAttributesCache
f$e:_Event_Internal_MakeMasterEventCurrent_m213199903
KWd:_CipherSuiteCollection_System_Collections_IList_set_Item_m4255989087
sVa:__Z41Register_UnityEngine_Camera_GetAllCamerasv
rQb:__ZN4crnd12crn_unpacker10unpack_dxnEPPhjjjjjj
kXc:_Char_System_IConvertible_ToChar_m3360898809
je:___ctype_tolower_loc
DTa:__Z55ScriptableObject_CUSTOM_Internal_CreateScriptableObjectP15ScriptingObject
z4:__ZN15CacheWriterBase18GetAddressOfMemoryEv
jv:__ZN11AudioSource13RegisterClassEv
Pvg:__ZN6il2cpp2vm22EmbeddedResourceRecordC2ERKS1_
Pmb:__ZNSt3__13mapI8UnityStrS1_NS_4lessIS1_EE13stl_allocatorINS_4pairIKS1_S1_EEL18MemLabelIdentifier1ELi16EEE25__construct_node_with_keyERS6_
q1g:__ZNSt3__16vectorIcNS_9allocatorIcEEEC2Ej
zpa:__ZN9Texture2D13AwakeFromLoadE17AwakeFromLoadMode
Qcf:_AsyncResult_get_EndInvokeCalled_m130757730
Lcd:_Enum_IsDefined_m2781598580
dVe:_UInt32_System_IConvertible_ToDecimal_m1516136036
OTb:__ZN6prcoreL17RemapGenericFloatI15TexFormatRFloat18TexFormatARGBFloatEEvPKNS_9InnerInfoE
mwb:__ZNK21AssetBundleFileSystem4SizeERK13FileEntryData
T5g:__ZNSt13runtime_errorD2Ev
k0:__ZN20ReflectionProbeCacheC2ER13BatchRendererR15RenderLoopStats
G5d:_IPv6Address_Fill_m1034015862
APb:__ZN18StreamedBinaryReadILb1EE21TransferSTLStyleArrayI13dynamic_arrayI31EnlightenSystemAtlasInformationLj8EEEEvRT_17TransferMetaFlags
UKa:__ZNK12HandlerChain6ExistsERK13FileEntryData
Xlg:__ZN16VirtFuncInvoker1IP20ByteU5BU5D_t58506160S1_E6InvokeEjPvS1_
LLc:_SecurityException__ctor_m4184458484
N2:__Z18GetLODGroupManagerv
x$b:__ZN12GUIClipState10BeginOnGUIER10InputEvent
eFd:_IntPtr_get_Size_m2848612188
ejf:_Uri__ctor_m1689224330
Vub:__ZN27GenericSlowGarbageCollectorD2Ev
NYg:__ZL103GUIStyle_t1006925219_CustomAttributesCacheGenerator_GUIStyle_INTERNAL_CALL_GetRectOffsetPtr_m3917515975P21CustomAttributesCache
Okc:_UNITY_FT_Stream_Open
T4b:__ZN9rapidjson6WriterI16TempBufferWriterNS_4UTF8IcEES3_13JSONAllocatorE8WriteIntEi
P1e:_GUIStyle_get_padding_m3072941276
cQ:__ZN16LevelGameManager8TransferI19StreamedBinaryWriteILb0EEEEvRT_
i_b:__ZN13RuntimeStaticI12AdsIdHandlerE13StaticDestroyEPv
zOa:__ZN10MemoryFile4ReadEyyPvPy
V5c:_Convert_ToUInt32_m883469173
F2g:__ZNSt3__112__hash_tableINS_17__hash_value_typeINS_4pairIPK10MethodInfoP11Il2CppClassEEP22Il2CppReflectionMethodEENS_22__unordered_map_hasherIS8_SB_17ReflectionMapHashIS8_ELb1EEENS_21__unordered_map_equalIS8_SB_19ReflectionMapEqualsIS8_ELb1EEEN6il2cpp2gc9AllocatorISB_EEE6rehashEj
alh:_glBlitFramebuffer__wrapper
yFb:__Z19TransferField_ArrayI14SafeBinaryRead19Converter_PrimitiveI11ColorRGBA32EEvRK23StaticTransferFieldInfoR31RuntimeSerializationCommandInfoRT0_
Uyb:__ZNSt3__16vectorI4PPtrI6ShaderENS_9allocatorIS3_EEE6assignINS_11__wrap_iterIPS3_EEEENS_9enable_ifIXaasr21__is_forward_iteratorIT_EE5valuesr16is_constructibleIS3_NS_15iterator_traitsISC_E9referenceEEE5valueEvE4typeESC_SC_
vld:_BitConverterLE_ToDouble_m4182216094
FA:__ZN4FMOD3DSP12setParameterEif
x7:__ZN13MemoryManager16StaticInitializeEv
ric:__ZN20TextRenderingPrivate4Font23VirtualRedirectTransferER17RemapPPtrTransfer
pf:___cxa_free_exception
b8d:_X509BasicConstraintsExtension_get_PathLengthConstraint_m482430355
tx:__ZN4FMOD22FakeModChannelCallbackEPv
xf:_emscripten_glValidateProgram
sRb:__ZN13BoneInfluence8TransferI18StreamedBinaryReadILb1EEEEvRT_
Jba:__ZN4Mesh10CreateMeshEv
Qy:__ZN4FMOD7SystemI11createSoundEPKcjP22FMOD_CREATESOUNDEXINFOPPNS_5SoundE
Gqf:__Z34RuntimeInvoker_Decimal_t1688557254PK10MethodInfoPvPS2_
sNg:__ZL48Buffer_t482356213_CustomAttributesCacheGeneratorP21CustomAttributesCache
vJe:_ObjectReader_ReadObjectGraph_m2201506625
uyf:__Z40RuntimeInvoker_HandshakeType_t1150764700PK10MethodInfoPvPS2_
Yoa:__ZN7Texture13SetAnisoLevelEi
zng:__ZN23InterfaceActionInvoker2IP11Il2CppArrayiE6InvokeEjP11Il2CppClassPvS1_i
Rsb:__ZN9GfxDevice20GetComputeBufferDataE15ComputeBufferIDPvj
u3g:__ZNSt3__114__split_bufferIPK10MethodInfoRNS_9allocatorIS3_EEEC2EjjS6_
yqc:_raccess_guess_vfat
GZb:_get_sof
SUg:__ZL88Display_t564335855_CustomAttributesCacheGenerator_Display_RecreateDisplayList_m581883884P21CustomAttributesCache
Pqd:_AttrListImpl_GetValue_m3442878158
A_b:__ZNSt3__16__treeINS_12__value_typeI18UnityInterfaceGUIDP15IUnityInterfaceEENS_19__map_value_compareIS2_S5_NS_4lessIS2_EELb1EEE13stl_allocatorIS5_L18MemLabelIdentifier6ELi16EEE7destroyEPNS_11__tree_nodeIS5_PvEE
TZb:__ZN13RuntimeStaticI11MessageLoopE13StaticDestroyEPv
pX:__Z21DestroyShadowMapCacheP14ShadowMapCache
jLg:__ZL69IIdentityPermissionFactory_t3534585775_CustomAttributesCacheGeneratorP21CustomAttributesCache
Ffd:_DateTimeFormatInfo__cctor_m770025765
F7f:__ZN6il2cpp2vm13LivenessState5ResetEv
NBd:_NumberFormatInfo_get_RawNumberGroupSizes_m358731277
UKd:_SynchronizedReader_ReadToEnd_m699570487
UZf:_GenericComparer_1_Compare_m1636827343_gshared
Uof:__Z103RuntimeInvoker_Void_t2779279689_Int32_t2847414787_Int32_t2847414787_Int32_t2847414787_SByte_t2855346064PK10MethodInfoPvPS2_
bea:__ZN24BuiltinShaderParamValuesC2Ev
sTb:__ZN6prcoreL12RemapGenericI17TexFormatARGB444417TexFormatABGR8888EEvPKNS_9InnerInfoE
mIa:__ZN6Shader23VirtualRedirectTransferER14SafeBinaryRead
$Te:_Type_GetConstructor_m3502935011
k1:__Z23GetLateBehaviourManagerv
o$b:__ZN5IMGUI9GUIButtonER8GUIStateRK5RectTIfER10GUIContentR8GUIStylei
Gnf:__Z41RuntimeInvoker_IntPtr_t_Int64_t2847414882PK10MethodInfoPvPS2_
YRa:__ZN10MemoryPool10DeallocateEPv
P$b:__ZN8GUIState8SetEventERK10InputEvent
bKd:_TextReader_Dispose_m3273025517
wUf:_RectOffset_set_top_m3043172093
C0d:_SslClientStream_set_ServerCertValidationDelegate_m772375792
kpc:_cff_driver_class_pic_free
Cff:_PatternCompiler_EmitRepeat_m3913724843
H4b:__ZNK9rapidjson12GenericValueINS_4UTF8IcEE13JSONAllocatorE6AcceptINS_6WriterI16TempBufferWriterS2_S2_S3_EEEEbRT_
D1e:_GUIStyle_get_stretchWidth_m38609341
Iih:dynCall_vif
CIf:_List_1_IndexOf_m1705278631_gshared
Saa:__ZN10DynamicVBO9DrawChunkERK21DynamicVBOChunkHandleRK14ChannelAssignsjP17VertexDeclarationPKNS_10DrawParamsEi
qyb:__ZN15dense_hashtableINSt3__14pairIKNS0_12basic_stringIcNS0_11char_traitsIcEE13stl_allocatorIcL18MemLabelIdentifier54ELi16EEEEP20ArchiveStorageReaderEES8_11djb2_hash_tIS8_EN14dense_hash_mapIS8_SB_SE_NS0_8equal_toIS8_EES5_ISC_LS6_54ELi16EEE9SelectKeyESH_SI_E9copy_fromERKSL_j
Kih:dynCall_vii
T9a:__ZN4PPtrI8MaterialE8TransferI18StreamedBinaryReadILb0EEEEvRT_
pwa:__Z25FindConflictingComponentsi
fGf:_List_1_System_Collections_IList_Contains_m1718187133_gshared
q5d:_IPv6Address_get_ScopeId_m2822565682
ypd:_X501_ToString_m3743123940
_tg:__ZNSt3__16vectorIP17Il2CppAsyncResultN6il2cpp2gc9AllocatorIS2_EEE21__push_back_slow_pathIRKS2_EEvOT_
j3f:__ZN6il2cpp6icalls8mscorlib6System8MonoType18GetFields_internalEP20Il2CppReflectionTypeiS5_
bR:__ZN5Unity9Component16CheckConsistencyEv
tjf:_Uri_EnsureAbsoluteUri_m3407571844
RZa:__ZN7ApiGLES11CheckShaderERjb
gMb:__ZL26Transfer_SimpleNativeClassI19StreamedBinaryWriteILb0EE10RectOffsetLb1EEvRK29SerializationCommandArgumentsR31RuntimeSerializationCommandInfo
Gye:_MethodBuilder_get_ReturnType_m1886811394
Q$:__Z28GetNonInterpolatedLightProbeRK17LightProbeContextjR20SphericalHarmonicsL2
Z2a:__ZN13GfxDeviceGLES17SetGpuProgramNameEP10GpuProgramPKc
Ifd:_DateTimeFormatInfo_ReadOnly_m3611650447
j2f:__ZN6il2cpp2vm13MetadataCache28GetMethodDefinitionFromIndexEi
rse:_Assembly_get_Location_m3075406557
euf:__Z72RuntimeInvoker_Il2CppObject_IntPtr_t_Int32_t2847414787_Int32_t2847414787PK10MethodInfoPvPS2_
k_a:__ZN7ApiGLES18CreateRenderbufferEiN2gl9TexFormatEii
pHd:_FileStream_get_Position_m887539078
i1a:__ZN13GfxDeviceGLESC2Ev
LBc:__ZNK12HeaderHelper3GetERKNSt3__112basic_stringIcNS0_11char_traitsIcEENS0_9allocatorIcEEEE
ph:_atexit
OAf:__Z76RuntimeInvoker_Void_t2779279689_IntPtr_t_Il2CppObject_Vector2U26_t2646958564PK10MethodInfoPvPS2_
ood:_ContentInfo_get_ContentType_m633311998
evg:__ZN6il2cpp2vmL31GetObjectForMissingDefaultValueEj
PPg:__ZL64MissingFieldException_t4160530160_CustomAttributesCacheGeneratorP21CustomAttributesCache
bL:_UNITY_png_write_info_before_PLTE
TAc:__ZN16UploadHandlerRawD0Ev
xQf:_DownloadHandler_InternalCreateAssetBundle_m2968064314
T6d:_AsnEncodedData__ctor_m4216053755
T1f:__ZN6il2cpp2vm13MetadataCache7GetGuidEi
E4e:_GUIStyle_Internal_Draw2_m2706374407
Kke:_DefaultComparer_Compare_m341753389_gshared
vCd:_TextInfo_ToLower_m1323104334
i:STACKTOP
Fqc:_cff_get_name_index
Pja:__ZN21EnlightenSceneMapping16BuildRemapTablesEv
LPd:_NumberFormatter_NumberToString_m332247865
w6g:__ZNK10__cxxabiv117__class_type_info16search_above_dstEPNS_19__dynamic_cast_infoEPKvS4_ib
xtg:__ZNSt3__113__vector_baseIPK10Il2CppTypeNS_9allocatorIS3_EEED2Ev
C:tempBigIntD
B:tempBigIntI
A:tempBigIntR
z:tempBigIntS
y:tempBigIntP
On:FUNCTION_TABLE_viffi
Qjc:_open_face_PS_from_sfnt_stream
IFf:_Enumerator_Dispose_m2904289642_gshared
yO:__ZN6Object18RegisterInstanceIDEPS_
Rn:FUNCTION_TABLE_vifff
Jfa:__ZNK9GfxDevice18GetWorldViewMatrixEv
YFg:__ZL53MethodBase_t3461000640_CustomAttributesCacheGeneratorP21CustomAttributesCache
Y_c:_CollectionBase__ctor_m3181013581
hK:_UNITY_png_handle_PLTE
uEg:__ZL64AssemblyBuilderAccess_t4255369254_CustomAttributesCacheGeneratorP21CustomAttributesCache
Xa:invoke_viiiiiiiiii
ape:_ValueCollection_get_Count_m2709231847_gshared
rid:_SimpleCollator_CompareQuick_m2053836602
hne:_Transform_1_BeginInvoke_m987788977_gshared
jah:__ZNSt3__19__num_getIwE17__stage2_int_prepERNS_8ios_baseEPwRw
CGc:_RIPEMD160Managed_HHH_m1603706585
$Pf:_X509Extension_Equals_m131878599
Vgb:__ZN14Texture2DArray8TransferI13ProxyTransferEEvRT_
B7b:__ZN11Rigidbody2D23VirtualRedirectTransferER14SafeBinaryRead
pJg:__ZL60FormatterTypeStyle_t125002241_CustomAttributesCacheGeneratorP21CustomAttributesCache
Nfa:__ZNK9GfxDevice25GetDeviceProjectionMatrixEv
S3d:_NameObjectCollectionBase_BaseAdd_m2649117518
sa:invoke_iidiii
bMc:_SecurityFrame__GetSecurityStack_m4181326791
W1c:_Stack__ctor_m2374718803
R4b:__ZN9rapidjson12PrettyWriterI16TempBufferWriterNS_4UTF8IcEES3_13JSONAllocatorE11WriteIndentEv
Bya:__ZN10systeminfo24GetRuntimePlatformStringEv
c1b:__Z33Event_Set_Custom_PropDisplayIndexP15ScriptingObjecti
sxf:__Z90RuntimeInvoker_Boolean_t211005341_Int32_t2847414787_Int32U26_t2544866037_Int32_t2847414787PK10MethodInfoPvPS2_
NNd:_MonoType_GetMethods_m254951756
SBe:_MonoCMethod_get_CallingConvention_m3412315242
Sre:_Dictionary_2_pick_value_m3477594126_gshared
_Ye:_CameraCallback_Invoke_m3757410555
Mhf:_CharacterClass__ctor_m3672999653
poe:_ValueCollection_get_Count_m2227591228_gshared
GNb:__ZN18StreamedBinaryReadILb0EE21TransferSTLStyleArrayINSt3__16vectorI8UnityStr13stl_allocatorIS4_L18MemLabelIdentifier12ELi16EEEEEEvRT_17TransferMetaFlags
k3c:_Convert_ToChar_m3723111847
OIa:__ZN19ShaderPropertySheet38CopyTextureWithAuxiliaryPropertiesFromERKN9ShaderLab16FastPropertyNameERKS_
jPb:__ZN14SafeBinaryRead21TransferSTLStyleArrayINSt3__16vectorIN15QualitySettings14QualitySettingENS1_9allocatorIS4_EEEEEEvRT_17TransferMetaFlags
bqc:__ZN20TextRenderingPrivate19NativeTextGeneratorD2Ev
Uze:_TypeBuilder_is_nested_in_m2129219235
Ztg:__ZN6il2cpp2vm19SocketPollingThread14DequeueRequestEv
_wg:__ZL10RevealLinkPv
lhh:__ZNSt3__112system_errorD0Ev
oMc:_SerializableAttribute__ctor_m3559493780
$i:___cxa_end_catch
T_e:_Display_RecreateDisplayList_m581883884
kzg:__ZL49Boolean_t211005341_CustomAttributesCacheGeneratorP21CustomAttributesCache
VMg:__ZL48Timer_t3546110984_CustomAttributesCacheGeneratorP21CustomAttributesCache
Cjc:_UNITY_FT_Stream_Free
Oih:dynCall_viffffii
y9d:_X509ChainPolicy_get_VerificationFlags_m1052595485
bdc:__ZZN10Collider2D15InitializeClassEvEN42FunctorImpl_Collider2D_kDidRemoveComponent4CallEPviR11MessageData
zqc:_raccess_guess_linux_cap
GKb:__Z19TransferField_ArrayI18StreamedBinaryReadILb0EE27Converter_UnityEngineObjectEvRK23StaticTransferFieldInfoR31RuntimeSerializationCommandInfoRT0_
HVa:__Z39MonoBehaviour_CUSTOM_StopCoroutine_AutoP15ScriptingObjectS0_
Kvf:__Z59RuntimeInvoker_Int32_t2847414787_DateTimeOffset_t3712260035PK10MethodInfoPvPS2_
_Pd:_NumberFormatter_FormatExponential_m3503259900
flf:__Z40RuntimeInvoker_Il2CppObject_Il2CppObjectPK10MethodInfoPvPS2_
yCb:__ZNSt3__16vectorI5RectTIfE13stl_allocatorIS2_L18MemLabelIdentifier1ELi16EEE6assignINS_11__wrap_iterIPS2_EEEENS_9enable_ifIXaasr21__is_forward_iteratorIT_EE5valuesr16is_constructibleIS2_NS_15iterator_traitsISC_E9referenceEEE5valueEvE4typeESC_SC_
yGa:__ZNK16TypeTreeIterator4TypeEv
EOf:_X509Certificate_set_DSA_m1562150692
Jj:_glGetUniformLocation
e2a:__ZN13GfxDeviceGLES32CreateColorRenderSurfacePlatformEP17RenderSurfaceBase19RenderTextureFormat
Et:__ZN12AudioManager24CreateFMODSoundFromMovieEP9AudioClip
CUc:_Array_int_swapper_m3033759158
vTc:_Array_get_IsReadOnly_m2469891811
Xqe:_Dictionary_2_get_Count_m1783486488_gshared
F1c:_SortedList_Remove_m3031745197
G6c:_DateTime__ctor_m2747883466
lkf:_UriParser__ctor_m3933763184
B1f:__ZN6il2cpp2vm13MetadataCache24GetGenericInstanceMethodEPK10MethodInfoPK20Il2CppGenericContext
lfg:_GC_hblk_fl_from_blocks
jSa:__Z24ConvertSeparatorsToUnityPc
d8f:__ZN6il2cpp2vm6Thread20FreeThreadStaticDataEP12Il2CppThread
Yfb:__ZNSt3__16__treeI4PPtrI13RenderTextureENS_4lessIS3_EE11memory_poolIS3_EE15__insert_uniqueERKS3_
Rmc:_cf2_glyphpath_finalize
Uia:__ZNK11MonoManager25GetClassIDVirtualInternalEv
uua:__Z20LookRotationToMatrixRK8Vector3fS1_P10Matrix3x3f
Hfh:__ZNKSt3__17num_getIwNS_19istreambuf_iteratorIwNS_11char_traitsIwEEEEE15__do_get_signedIxEES4_S4_S4_RNS_8ios_baseERjRT_
Ske:_Comparer_1__cctor_m2446754811_gshared
Dp:__ZN5Unity9Component26SupportedMessagesDidChangeEi
f9d:_X509CertificateEnumerator_System_Collections_IEnumerator_Reset_m623123084
R_g:__ZL119AttributeHelperEngine_t193897593_CustomAttributesCacheGenerator_AttributeHelperEngine_GetRequiredComponents_m2666115467P21CustomAttributesCache
fpd:_PKCS12_GetExistingParameters_m713420615
uGe:_ObjRef__ctor_m1153489184
lxf:__Z116RuntimeInvoker_Void_t2779279689_Int16_t2847414729_Il2CppObject_SByte_t2855346064_SByte_t2855346064_SByte_t2855346064PK10MethodInfoPvPS2_
Bga:__ZN10GpuProgramD0Ev
oGg:__ZL78PropertyInfo_t_CustomAttributesCacheGenerator_PropertyInfo_GetValue_m396207607P21CustomAttributesCache
N$f:_U24__ctor_m3023674330
vpb:__ZL18BindVProgAttrbutesRKNSt3__112basic_stringIcNS_11char_traitsIcEENS_9allocatorIcEEEER14ChannelAssignsj
lQd:_NumberFormatter_AppendOneDigit_m4047621190
RYe:_Camera_get_targetTexture_m1468336738
XG:__ZN11UnityEngine15CloudWebService14DataDispatcher25OnDataBlockConsumedStaticEPv
lbh:__ZNSt3__18time_getIwNS_19istreambuf_iteratorIwNS_11char_traitsIwEEEEED2Ev
dqe:_Dictionary_2_System_Collections_ICollection_CopyTo_m3797777842_gshared
CLe:_RuntimeTypeHandle_get_Value_m3549598952
IGb:__Z16Transfer_BuiltinI8Vector4f13ProxyTransferLb0EEvRK29SerializationCommandArgumentsR31RuntimeSerializationCommandInfo
LQg:__ZL50Stack_1_t2261335230_CustomAttributesCacheGeneratorP21CustomAttributesCache
yZf:_EqualityComparer_1_System_Collections_IEqualityComparer_Equals_m2788844660_gshared
I2:__ZN13CameraLODDataC2EPK6Camerajhf18MemLabelIdentifier
vM:_jsimd_can_ycc_rgb
hH:__ZN11UnityEngine15CloudWebService14JsonBaseObject11AddKeyValueEPKcS3_
hAd:_Array_InternalArray__get_Item_TisKeyValuePair_2_t3312956448_m1021495653_gshared
CTd:_ARC4Managed_set_Key_m1483606703
GXe:_Application_get_absoluteURL_m2509426617
S:Math_pow
qye:_OpCode_get_StackBehaviourPush_m2842535718
Gxg:__ZNSt3__13mapIPvxNS_4lessIS1_EENS_9allocatorINS_4pairIKS1_xEEEEEixERS6_
W_c:_CaseInsensitiveHashCodeProvider_get_DefaultInvariant_m1403540293
sec:__ZN17PhysicsMaterial2DD2Ev
cMa:__ZN17ArchiveFileSystem4CopyER13FileEntryDataS1_
Lib:__ZNSt3__16vectorIN22BuiltinResourceManager8ResourceENS_9allocatorIS2_EEE21__push_back_slow_pathIKS2_EEvRT_
lWe:_UIntPtr_ToPointer_m365084105
pQb:__ZN4crnd12crn_unpacker11unpack_dxt5EPPhjjjjjj
ooc:_UNITY_tt_face_get_location
aaf:_ChannelServices_CreateClientChannelSinkChain_m2763926231
C6g:__ZN12_GLOBAL__N_114__libcpp_nmstrD2Ev
Lrd:_ArgumentException__ctor_m1401467456
N0d:_SslClientStream_SafeReceiveRecord_m4180109699
qXa:__Z52Register_UnityEngine_GameObject_GetComponentInParentv
tud:_Array_InternalArray__IEnumerable_GetEnumerator_TisKeyframe_t2095052507_m966627989_gshared
SZ:__Z37GenerateCombinedDynamicVisibleListJobP11CullResults
hub:__ZNK13ScreenManager21GetCursorInsideWindowEv
$wg:__ZN6il2cpp2vmL22RaiseOverflowExceptionEv
yWb:__ZN14qsort_internal8_QSortMTIP16RenderObjectDatai26RenderDeferredObjectSorterE10CleanupJobEPS4_
brg:__ZN18VirtActionInvoker3IP12Il2CppObjectS1_P22ObjectU5BU5D_t11523773E6InvokeEjPvS1_S1_S3_
g2:__Z20IntersectAABBFrustumRK4AABBPK5Planej
TNe:_DSASignatureFormatter_SetKey_m4110297114
Lmd:_KeyPairPersistence__IsMachineProtected_m4266693987
v$c:_Comparer__ctor_m1283355951
Peh:__ZNSt3__117__widen_from_utf8ILj32EED0Ev
F9d:_X509Chain_get_CertificateAuthorities_m1238271486
PY:__ZN13RenderManager15InitializeClassEv
eTc:_Array_System_Collections_IList_RemoveAt_m969759165
fCg:__ZL85Locale_t2281372282_CustomAttributesCacheGenerator_Locale_GetText_m2218462520____args1P21CustomAttributesCache
m2d:_TlsStream_get_CanWrite_m3459717159
Mca:__ZThn28_N14SpriteRenderer19UpdateTransformInfoEv
mpb:__ZN14DrawBufferGLESI11IndexBuffer26IndexBufferUsageMapperGLESE10BeginWriteEjj
lzg:__ZL39IntPtr_t_CustomAttributesCacheGeneratorP21CustomAttributesCache
Mke:_DefaultComparer_Compare_m4197581621_gshared
QYf:_DefaultComparer__ctor_m3757819988_gshared
DI:__ZN11UnityEngine15CloudWebService17WebFileDownloaderINS0_13WWWRestClientENS0_16WWWRestHeaderMapEED0Ev
q8e:_RuntimeHelpers_InitializeArray_m2058365049
tKa:__ZN12FileAccessor4ReadEyyPvPy
L0a:__ZNK18GfxFramebufferGLES15DiscardContentsER12ObjectHandleI17RenderSurface_TagP17RenderSurfaceBaseE
bjb:__Z33BuildSerializationCommandQueueForI18StreamedBinaryReadILb0EEEvRK34BuildSerializationCommandQueueArgsR32SerializationCommandQueueBuilderRP20AllowNameConversionsbPK18TransferField_Info
ofh:__ZNKSt3__120__time_get_c_storageIwE3__XEv
Omh:_glGetIntegerv__wrapper
BZb:_decode_mcu_DC_first
Ude:_List_1_System_Collections_IList_get_Item_m1825819971_gshared
kBa:__Z21CreateMonoScriptCacheRK8UnityStrP14ScriptingClass22InitScriptingCacheTypeP6Object
B2:__ZNK19RenderEventsContext7CleanupEv
uad:_Decimal_op_Increment_m1999568348
M3g:__ZN6il2cpp2vm21ThreadPoolCompartment12DetachThreadEP12Il2CppThread
B8g:__ZNSt3__18ios_base4initEPv
bBf:__Z101RuntimeInvoker_Void_t2779279689_Il2CppObject_Int32_t2847414787_AnimatorControllerPlayable_t1023709642PK10MethodInfoPvPS2_
PK:_UNITY_png_set_bgr
Jue:_Module_get_Name_m2964298041
HFf:_Enumerator_System_Collections_IEnumerator_get_Current_m3561903705_gshared
fVe:_UInt32_System_IConvertible_ToInt16_m3219521092
npf:__Z117RuntimeInvoker_Int32_t2847414787_Il2CppObject_Il2CppObject_Int32_t2847414787_Int32_t2847414787_BooleanU26_t3343357035PK10MethodInfoPvPS2_
_vc:__ZN20TextRenderingPrivate4Font13CharacterInfo8TransferI13ProxyTransferEEvRT_
Em:_glGenRenderbuffers
s9f:__ZN6il2cpp6icalls8mscorlib6System2IO6MonoIO19GetCurrentDirectoryEPi
o2:__Z21IntersectSegmentPlaneRK8Vector3fS1_RK5PlanePS_
Ime:_ShimEnumerator_get_Entry_m4132595661_gshared
hwa:__ZN14CachingManager7DisposeEv
_t:__ZN12AudioManager31GetCurrentSpatializerDefinitionEv
eWc:_Boolean_Equals_m1178456600
$Fa:__ZN17PersistentManager25GetSerializedFileInternalERKNSt3__112basic_stringIcNS0_11char_traitsIcEENS0_9allocatorIcEEEE
tYe:_PCMSetPositionCallback__ctor_m2986500852
sOd:_MonoType_get_IsGenericParameter_m1374410255
S7g:__ZNSt3__112basic_stringIcNS_11char_traitsIcEENS_9allocatorIcEEE6__initEPKcj
u1g:__ZNSt3__114__split_bufferIN6il2cpp2vm22EmbeddedResourceRecordERNS_9allocatorIS3_EEEC2EjjS6_
I_:__Z34ProcessIndexListIsNodeVisibleStep1RK22SceneCullingParametersPK9SceneNodejjR9IndexList
xJg:__ZL66ISerializationSurrogate_t1735544170_CustomAttributesCacheGeneratorP21CustomAttributesCache
jOc:_String_LastIndexOf_m902083627
BU:__ZN6Camera15SetOrthographicEb
Ipe:_Dictionary_2_OnDeserialization_m3983879210_gshared
Ikc:_UNITY_FT_Stream_GetUShort
ybd:_StackTrace_init_frames_m198588387
U1a:__ZN13GfxDeviceGLES14DisableScissorEv
Tqb:__ZN22MemoryCacherReadBlocks13GetFileLengthEv
Uib:__ZNSt3__16__sortIRN15ResourceManager10Dependency6SorterEPS2_EEvT0_S6_T_
p0d:_SslClientStream__ctor_m3830369294
kc:_glVertexAttrib4f
eCg:__ZL61MarshalByRefObject_t2055500882_CustomAttributesCacheGeneratorP21CustomAttributesCache
LBa:__ZN13LoadOperationC2Ev
o8b:__ZN12b2BroadPhase13QueryCallbackEi
C6a:_error_exit
xce:_Interpreter_PopulateGroup_m2805800912
cXb:__ZN14qsort_internal6_QSortIP21CompactCasterSortDatai28CompactShadowCasterKeySorterEEvR8JobFenceT_S6_T0_T1_RKS4_P19ProfilerInformation
b2e:_GUIUtility_get_pixelsPerPoint_m2351352349
_Of:_X509Certificate_VerifySignature_m1482842161
ifg:_GC_set_hdr_marks
$Y:__Z17SetupObjectMatrixRK10Matrix4x4fi
NNf:_PKCS12_set_IterationCount_m4214894503
nse:_Assembly_get_fullname_m3799996258
svg:__ZNSt3__112__hash_tableINS_17__hash_value_typeINS_4pairIP11Il2CppClassjEES4_EENS_22__unordered_map_hasherIS5_S6_N6il2cpp8metadata14ArrayClassHashELb1EEENS_21__unordered_map_equalIS5_S6_NS9_17ArrayClassCompareELb1EEENS_9allocatorIS6_EEE4findIS5_EENS_15__hash_iteratorIPNS_11__hash_nodeIS6_PvEEEERKT_
SFf:_Enumerator_get_Current_m473447609_gshared
TQg:__ZL64TypeConverterAttribute_t576303231_CustomAttributesCacheGeneratorP21CustomAttributesCache
xWa:__Z43Object_CUSTOM_DoesObjectWithInstanceIDExisti
tEc:__GLOBAL__sub_I_VRGfxHelpers_cpp
MXe:_LogCallback_EndInvoke_m2883514883
nqc:_open_face
Rp:__ZN4PPtrI6ObjectE8TransferI19StreamedBinaryWriteILb0EEEEvRT_
yFd:_BinaryReader__ctor_m3922058197
twg:__ZN6il2cpp2vmL21GetNextImageFromStackENSt3__116reverse_iteratorINS1_11__wrap_iterIPK20Il2CppStackFrameInfoEEEES8_
SA:__ZN4FMOD5Sound11setUserDataEPv
AGg:__ZL54ResourceSet_t3790468310_CustomAttributesCacheGeneratorP21CustomAttributesCache
WOc:_String_InternalSetChar_m3191521125
Fpa:__ZN9Texture2D18UnshareTextureDataEv
lPa:__ZNK25SingleBlockMemoryFileData4SizeEv
DMa:__ZNK23ArchiveStorageConverter26GetUncompressedArchiveSizeEv
ylb:__Z29StdTemplateConversionFunctionItsEbPvR14SafeBinaryRead
LI:_UNITY_png_zfree
Pue:_MethodToken_get_Token_m1317996739
WB:__ZL50UnityAudioEffect_InternalSetFloatParameterCallbackP14FMOD_DSP_STATEif
Zre:_Dictionary_2_GetObjectData_m1544184413_gshared
o8:__ZN17LowLevelAllocator4FreeEPvj
o5d:_IPv6Address_TryParse_m711194034
xM:_jsimd_can_h2v2_upsample
fYf:_AesManaged_get_KeySize_m1856785595
CSg:__ZL90RSASslSignatureFormatter_t491693046_CustomAttributesCacheGenerator_U3CU3Ef__switchU24map16P21CustomAttributesCache
nmf:__Z112RuntimeInvoker_Int32_t2847414787_Il2CppObject_Int32_t2847414787_Il2CppObject_Int32_t2847414787_Int32_t2847414787PK10MethodInfoPvPS2_
wjd:_BigInteger_SetBit_m3438761593
hvf:__Z50RuntimeInvoker_UInt64_t985925421_Double_t534516614PK10MethodInfoPvPS2_
NN:__ZThn104_N39AssetBundleLoadFromStreamAsyncOperation38OnArchiveStorageDirectoryInfoProcessedEP23ArchiveStorageConverterP20ArchiveStorageReader
E_a:__ZN7ApiGLES22BindDrawIndirectBufferEj
Edh:__ZNSt3__16locale2id5__getEv
jTf:_Object_FindSceneObjectsOfType_m2168852346
JKc:_Hash__ctor_m3344615385
$Xf:_AesTransform__ctor_m2781154868
vrf:__Z63RuntimeInvoker_Void_t2779279689_OpCode_t4028977979_Il2CppObjectPK10MethodInfoPvPS2_
g_b:__ZL19StaticCleanupPlayerPv
WPc:_Decoder_get_FallbackBuffer_m1620793422
Qye:_MethodBuilder_IsDefined_m3379756494
eK:_UNITY_png_read_chunk_header
$0:__ZN9Behaviour10DeactivateE19DeactivateOperation
I5d:_IPv6Address_IsLoopback_m3559367027
Csf:__Z41RuntimeInvoker_TypeFilterLevel_t612045862PK10MethodInfoPvPS2_
kkb:__ZN13StreamingInfo8TransferI14SafeBinaryReadEEvRT_
OUe:_UInt16_GetHashCode_m592888001
R7c:_DateTimeFormatInfo_get_TimeSeparator_m3488620600
hhb:__Z23CalculateGlobalRotation23TransformAccessReadOnly
J5:__ZNK9ShaderLab7Program11IsSupportedEPK6Shader
w3a:__ZN13GfxDeviceGLES22CopyComputeBufferCountE15ComputeBufferIDS0_j
tfb:__ZL21LibpngReadFuncWrapperP14png_struct_defPhj
u5g:_wmemset
Rua:__Z18TransformPoints3x4RK10Matrix4x4fPK8Vector3fjPS2_ji
x$c:_Comparer__cctor_m647232606
ZAa:__ZNK10MonoScript25GetClassIDVirtualInternalEv
Gld:_CryptoConvert_FromCapiPrivateKeyBlob_m1079413163
kib:__ZL26DestroyGameObjectRecursiveR10GameObjectR11BatchDelete
kza:__ZN9Coroutine16SetCurrentMethodE21ScriptingMethodIl2Cpp
ufg:_GC_allochblk_nth
Y7a:__ZN12ImmediatePtrIN5Unity9ComponentEE8TransferI19StreamedBinaryWriteILb0EEEEvRT_
K3c:_Decimal_op_Implicit_m4082450700
cQd:_NumberFormatter_FormatHexadecimal_m386310032
cMe:_SByte_Parse_m798902410
U8g:__ZTv0_n12_NSt3__113basic_istreamIcNS_11char_traitsIcEEED0Ev
yyd:_Array_InternalArray__set_Item_TisInt32_t2847414787_m68230430_gshared
Fjh:dynCall_i
ftd:_Array_InternalArray__ICollection_Remove_TisInt32_t2847414787_m3916336991_gshared
Yih:dynCall_f
Sfc:__ZN15Cast2DQueryBase15InitializeQueryEv
Vsa:__ZN12InputManager13RegisterClassEv
HEf:__Z37RuntimeInvoker_Enumerator_t2965352012PK10MethodInfoPvPS2_
oJg:__ZL65FormatterAssemblyStyle_t3852587989_CustomAttributesCacheGeneratorP21CustomAttributesCache
zih:dynCall_v
OTd:_CryptoConvert_ToHex_m1331445157
zKe:_ObjectRecord_get_HasPendingFixups_m2308927162
XHd:_FileStream_Flush_m134843343
f8f:__ZN6il2cpp2vm6Thread8SetStateEP12Il2CppThreadNS0_11ThreadStateE
khf:_Reference_get_CapturingGroup_m2373399431
MU:__ZN6Camera23VirtualRedirectTransferER14SafeBinaryRead
SWb:__ZNSt3__16__treeI4PPtrI10GUIElementENS_4lessIS3_EE11memory_poolIS3_EE5eraseENS_21__tree_const_iteratorIS3_PNS_11__tree_nodeIS3_PvEEiEE
tVc:_BitConverter__cctor_m2046566571
E4d:_WebHeaderCollection__ctor_m40272365
Tsb:__ZN9GfxDevice22CopyComputeBufferCountE15ComputeBufferIDS0_j
upg:__ZN16VirtFuncInvoker2IbibE6InvokeEjPvib
UQa:__ZNK16LzmaDecompressor16DecompressMemoryEPKvPjPvS2_
vmf:__Z63RuntimeInvoker_Il2CppObject_Int16_t2847414729_Int16_t2847414729PK10MethodInfoPvPS2_
Rjg:__ZN6il2cpp2os6Memory11AlignedFreeEPv
QJd:_StreamAsyncResult_get_Exception_m58775747
CBd:_NumberFormatInfo_get_CurrencyPositivePattern_m354581553
oFc:_MD5CryptoServiceProvider_Finalize_m3752913832
x7b:__ZN11Rigidbody2D13RegisterClassEv
nye:_ILGenerator_emit_int_m1452131359
i9g:__ZTv0_n12_NSt3__114basic_iostreamIcNS_11char_traitsIcEEED1Ev
GT:__ZNK6Camera16GetCullingMatrixEv
ugb:__ZN15dense_hashtableINSt3__14pairIKPK17RenderSurfaceBaseP13RenderTextureEES4_N16RenderTextureMap11HashFunctorEN14dense_hash_mapIS4_S7_SA_NS0_8equal_toIS4_EE13stl_allocatorIS8_L18MemLabelIdentifier65ELi16EEE9SelectKeyESD_SG_E14squash_deletedEv
sAg:__ZL81Il2CppArray_CustomAttributesCacheGenerator_Array_SetValue_m2305204221____indices1P21CustomAttributesCache
M9a:__ZL60CombineDirectionalShadowCasterCullignIndexListsAndDestroyJobP20ShadowCullingJobData
EKe:_SerializationCallbacks_GetMethodsByAttribute_m1743114550
Yp:__ZN18StreamedBinaryReadILb0EE21TransferSTLStyleArrayI13dynamic_arrayIiLj4EEEEvRT_17TransferMetaFlags
Vka:__ZN16LightmapSettings5ResetEv
gKa:__ZN12FileAccessor4ReadEyPvPy
sLf:_ReadOnlyCollection_1_System_Collections_Generic_IListU3CTU3E_Insert_m1011322802_gshared
Lhe:_InternalEnumerator_1_MoveNext_m3995645356_gshared
j1b:__Z42Register_UnityEngine_Event_get_commandNamev
Aaf:_Identity__ctor_m4099304260
vSg:__ZL51CertTypes_t588297365_CustomAttributesCacheGeneratorP21CustomAttributesCache
LDa:__ZN9Scripting30CreateScriptableObjectWithTypeEP15ScriptingObjectb
ioe:_ValueCollection_System_Collections_Generic_IEnumerableU3CTValueU3E_GetEnumerator_m4048472420_gshared
FMf:_Predicate_1_Invoke_m4106178309_gshared
lFg:__ZL79Assembly_t1882292308_CustomAttributesCacheGenerator_Assembly_GetName_m186567048P21CustomAttributesCache
Aqd:_SmallXmlParser_ReadUntil_m2981293420
HJa:__ZNK15FileSystemEntry6ExistsEv
Flb:__Z29StdTemplateConversionFunctionIsjEbPvR14SafeBinaryRead
Tra:__ZNK9Transform21GetLocalToWorldMatrixER10Matrix4x4f
CBg:__ZL48_Type_t1563844123_CustomAttributesCacheGeneratorP21CustomAttributesCache
PQg:__ZL57KeysCollection_t3664159698_CustomAttributesCacheGeneratorP21CustomAttributesCache
_Vg:__ZL97Component_t2126946602_CustomAttributesCacheGenerator_Component_GetComponentInChildren_m2548367508P21CustomAttributesCache
Gff:_PatternCompiler_EmitAnchor_m1283354284
bt:__ZN13AudioListener23VirtualRedirectTransferER19StreamedBinaryWriteILb0EE
qBd:_GregorianCalendar_GetMonth_m2408004904
$aa:__ZN17GenericDynamicVBO17DrawChunkInternalERK21DynamicVBOChunkHandleRK14ChannelAssignsjP17VertexDeclarationP16DrawBuffersRangeij
Zlh:_emscripten_glViewport__wrapper
$bd:_Double_Equals_m1597124279
vNd:_ShortComparer_Compare_m2275424446
vJb:__Z16Transfer_BuiltinI5RectTIfE18StreamedBinaryReadILb0EELb0EEvRK29SerializationCommandArgumentsR31RuntimeSerializationCommandInfo
yDc:__Z65Register_UnityEngine_Networking_UnityWebRequest_get_uploadedBytesv
wbf:_DynamicPropertyCollection__ctor_m2891818804
Sle:_Enumerator_get_Current_m2653719203_gshared
ljb:__Z10FindScriptI23MatchScriptByNameFilterEP10MonoScriptRNSt3__13setI4PPtrIS1_ENS3_4lessIS6_EE13stl_allocatorIS6_L18MemLabelIdentifier76ELi16EEEERT_
WXc:_Char_ToUpper_m3343442427
Byb:__ZNSt3__127__insertion_sort_incompleteIRPFbRKNS_4pairIN9ShaderLab16FastPropertyNameEfEES6_EPS4_EEbT0_SB_T_
iAe:_TypeBuilder_IsAssignableFrom_m2834740190
Hja:__ZN8DrawUtil24DrawMeshRawFromNodeQueueERK15RenderNodeQueuejRK14ChannelAssignsi
o6b:__ZN19CollisionListener2D10EndContactEP9b2Contact
TF:__ZN11UnityEngine15CloudWebService17SessionEventQueue15RestoreFromFileER12FileAccessorPvy
N8f:__ZN6il2cpp2vm9Exception25RaiseOutOfMemoryExceptionEv
KMc:_Single_Equals_m2110115959
Hsd:_Array_InternalArray__ICollection_Contains_TisMark_t3725932776_m348452931_gshared
Xub:__ZN14PlayerSettingsD2Ev
c5a:__GLOBAL__sub_I_ShaderVariantCollection_cpp
Vpb:__ZN6Object23VirtualRedirectTransferER13ProxyTransfer
cda:__ZN18VertexChannelsInfoC2ERA8_K11ChannelInfo
pfe:_ArrayReadOnlyList_1_Contains_m2530929859_gshared
Y2f:__ZN6il2cpp2vm10ThreadPool5QueueEP14Il2CppDelegatePPvS3_P12Il2CppObject
LMe:_CryptographicException__ctor_m3585438106
b$g:__ZL107StackTraceUtility_t3762183996_CustomAttributesCacheGenerator_StackTraceUtility_SetProjectFolder_m3541316899P21CustomAttributesCache
p4e:_GUIStyle_set_Internal_clipOffset_m411599389
Ap:__ZNK6Object25GetNeedsPerObjectTypeTreeEv
EXc:_Char_Equals_m158269074
js:__ZN9AudioClip16EnableLegacyModeEv
X6d:_AsnEncodedData__ctor_m299043111
GSc:_UnicodeEncoding_GetChars_m3643772578
cVg:__ZL97MonoBehaviour_t3012272455_CustomAttributesCacheGenerator_MonoBehaviour_StartCoroutine_m2272783641P21CustomAttributesCache
tVa:__Z52Register_UnityEngine_Camera_INTERNAL_CALL_RaycastTryv
ai:_mkdir
gDa:__Z23RegisterClass_TextAssetv
ksg:__ZN23InterfaceActionInvoker5IttbbbE6InvokeEjP11Il2CppClassPvttbbb
Yob:__ZNSt3__13mapI21GLESRenderTargetSetupN2gl17FramebufferHandleENS_4lessIS1_EENS_9allocatorINS_4pairIKS1_S3_EEEEEixERS8_
Blg:__GLOBAL__sub_I_MemoryMappedFile_cpp
_qe:_Dictionary_2_Init_m2034229104_gshared
Cfc:__ZNSt3__17__sort3IR24RayHitsByDepthComparitorP12RaycastHit2DEEjT0_S5_S5_T_
mjh:dynCall_iifi
XGc:_RSA_Create_m1188512233
kTa:__ZN13OpenFileCache10OpenCachedERKNSt3__112basic_stringIcNS0_11char_traitsIcEENS0_9allocatorIcEEEE
xtc:_ps_hints_close
m0:__Z16CreateRenderLoopR6Camera
U1c:_Enumerator_Clone_m1775779288
sZa:_tlsf_create
MCf:__Z58RuntimeInvoker_Void_t2779279689_ContactPoint2D_t3963746319PK10MethodInfoPvPS2_
Aza:__ZN13MonoBehaviour23VirtualRedirectTransferER18StreamedBinaryReadILb0EE
pqh:_emscripten_glCompileShader__wrapper
Rqa:__ZN9Texture3D17UploadToGfxDeviceEv
qW:__ZN12ImageFilters19SetupMainTexForBlitEP8MaterialP7Texture
PG:__ZN11UnityEngine15CloudWebService17WebFileDownloaderINS0_13WWWRestClientENS0_16WWWRestHeaderMapEE24ExtractResponseEtagValueEv
l1c:_SortedList__ctor_m3028782514
K7g:__ZNSt3__127__insertion_sort_incompleteIRNS_6__lessIiiEEPiEEbT0_S5_T_
k3d:_DictionaryNodeEnumerator__ctor_m3548237087
rvc:__Z14resize_trimmedINSt3__16vectorIN20TextRenderingPrivate4Font13CharacterInfoE13stl_allocatorIS4_L18MemLabelIdentifier34ELi16EEEEEvRT_j
zla:__ZN15QualitySettings23VirtualRedirectTransferER19StreamedBinaryWriteILb0EE
KYe:_BoxCollider2D_INTERNAL_set_size_m2665574040
Wna:__ZN16RenderTextureMap5QueryEPK17RenderSurfaceBase
hM:_jpeg_idct_islow
a7e:_Mathf_Abs_m3641135540
Oqb:__ZN14FileCacherRead12GetCacheSizeEv
RGa:__ZN8Material12CleanupClassEv
kHa:__ZN8Material8GetFloatEN9ShaderLab16FastPropertyNameE
LRe:_TimerCallback_EndInvoke_m3350524917
qVc:_AttributeUsageAttribute_set_AllowMultiple_m3296043115
bnc:_psnames_module_class_pic_free
H$b:__Z11GetGUIStatev
tg:_pthread_key_create
$ne:_Enumerator_System_Collections_IEnumerator_Reset_m3702199860_gshared
tFf:_KeyValuePair_2_get_Key_m3256475977_gshared
pkd:_BigInteger_op_GreaterThan_m2626925084
zg:_emscripten_glGetObjectParameterivARB
txd:_Array_InternalArray__Insert_TisClientCertificateType_t2725032177_m2768484685_gshared
rzb:__ZN15SerializeTraitsI10ColorRGBAfE8TransferI14SafeBinaryReadEEvRS0_RT_
k8g:__ZNKSt3__112basic_stringIcNS_11char_traitsIcEENS_9allocatorIcEEE7compareEPKc
iXe:_Version_GetHashCode_m146914892
d2f:__ZN6il2cpp2vm13MetadataCache27GetEventDefinitionFromIndexEi
bya:__ZN22BuiltinResourceManager13StaticDestroyEPv
AQ:__ZN10GameObject17GetComponentIndexEPN5Unity9ComponentE
pbb:__ZNSt3__16__treeIN12ShaderErrors11ShaderErrorENS_4lessIS2_EENS_9allocatorIS2_EEE5eraseENS_21__tree_const_iteratorIS2_PNS_11__tree_nodeIS2_PvEEiEE
RTe:_Type_GetProperty_m3455595366
jua:__Z19InitFloatExceptionsv
sJb:__Z16Transfer_BuiltinI8Vector3f18StreamedBinaryReadILb0EELb0EEvRK29SerializationCommandArgumentsR31RuntimeSerializationCommandInfo
Coc:_UNITY_tt_face_vary_cvt
$yc:__ZN11UnityEngine7Connect16PersistentValues10SaveValuesERNS_15CloudWebService12JsonDocumentE
jGg:__ZL59ParameterModifier_t500203470_CustomAttributesCacheGeneratorP21CustomAttributesCache
Gog:__ZN16VirtFuncInvoker0IP19Decoder_t1611780840E6InvokeEjPv
nSa:__ZN35RegisterRuntimeInitializeAndCleanup22ExecuteInitializationsEv
L8b:__Z14b2TimeOfImpactP11b2TOIOutputPK10b2TOIInput
g6a:_start_input_pass28
rId:_IsolatedStorageException__ctor_m3114538544
hgf:_Regex__ctor_m1618790979
VPe:_WaitHandle__ctor_m4240939554
d4b:__ZNSt3__110__list_impIN10GUIManager12SortedScriptE11memory_poolIS2_EE5clearEv
a2e:_GUILayoutUtility_Begin_m2012081982
hMc:_SecurityManager__cctor_m3992604439
C7c:_DateTime_YearMonthDayFormats_m200860137
bVc:_pinvoke_delegate_wrapper_AsyncCallback_t1363551830
tcb:__ZZN15DirectorManager15InitializeClassEvEN41FixedUpdateDirectorFixedAdvanceTimestruct7ForwardEv
mqa:__ZN9Texture2D10ReadPixelsEiiiiiiibb
Vug:__ZNSt3__112__hash_tableINS_17__hash_value_typeIPK10Il2CppTypeP20Il2CppReflectionTypeEENS_22__unordered_map_hasherIS4_S7_N6il2cpp8metadata14Il2CppTypeHashELb1EEENS_21__unordered_map_equalIS4_S7_NSA_17Il2CppTypeCompareELb1EEENS9_2gc9AllocatorIS7_EEE4findIS4_EENS_15__hash_iteratorIPNS_11__hash_nodeIS7_PvEEEERKT_
B1c:_SortedList_set_Capacity_m1257766347
uva:__ZN14AsyncOperationD0Ev
qPe:_UTF8Encoding_InternalGetBytes_m4145641218
$P:__ZN16LevelGameManager8TransferI14SafeBinaryReadEEvRT_
CAc:__ZN29UnityWebRequestAsyncOperationC2EP15UnityWebRequest
QTe:_Type_GetMethod_m2171093265
Kug:__ZL11decimalLog2P19il2cpp_decimal_repr
aNb:__ZN15ResourceManager10Dependency8TransferI14SafeBinaryReadEEvRT_
jaa:__ZN3WWWD2Ev
uub:__ZN9Texture2DD2Ev
Fhc:__GLOBAL__sub_I_TreeIntermediateRenderer_cpp
bJb:__Z49EmitSerializationCommandsForLinearCollectionFieldI18StreamedBinaryReadILb0EEEvRK18TransferField_InfoR32SerializationCommandQueueBuilderRP20AllowNameConversions
KOf:_X509Certificate_set_KeyAlgorithmParameters_m769560986
ZA:__ZN4FMOD6System9setDriverEi
mKf:_Collection_1_System_Collections_Generic_ICollectionU3CTU3E_get_IsReadOnly_m4216526896_gshared
Nra:__ZNK9Transform11GetRotationEv
bnh:_emscripten_glGetIntegerv__wrapper
st:__ZN12AudioManager15DidReloadDomainEv
Ltc:_pshinter_get_globals_funcs
aTe:_Type_get_Attributes_m1828944147
AJc:_TripleDESCryptoServiceProvider__ctor_m2538905264
RUa:__Z60Register_UnityEngine_AsyncOperation_get_allowSceneActivationv
wue:_AssemblyBuilder_AddPermissionRequests_m831171448
$uc:_tt_cmap12_char_map_binary
aKe:_ObjectReader_RecordFixup_m1141700914
pxe:_FieldBuilder_get_UMarshal_m2685231318
G_d:_TlsServerKeyExchange_Update_m2843595775
Wt:__ZN12AudioManager19RemoveAudioListenerEP13AudioListener
Zxa:__Z25GetBuiltinResourceManagerv
ote:_AssemblyName_get_IsPublicKeyValid_m65110050
tTd:_ASN1Convert_ToInt32_m2275332600
mBc:__ZNK22DownloadHandlerTexture8GetBytesEv
ECe:_MonoField_CheckGeneric_m3068937042
n8a:__ZNSt3__16__treeINS_12__value_typeINS_12basic_stringIcNS_11char_traitsIcEENS_9allocatorIcEEEEjEENS_19__map_value_compareIS7_S8_NS_4lessIS7_EELb1EEE13stl_allocatorIS8_L18MemLabelIdentifier6ELi16EEE15__insert_uniqueERKS8_
T8c:_DateTimeFormatInfo_GetMonthName_m2729105407
ci:_llvm_trap
Bld:_BlockProcessor_Final_m2868771374
d7e:_Mathf_Clamp01_m2272733930
BGe:_ObjRef__cctor_m916330125
h7f:__ZN6il2cpp6icalls8mscorlib6System9Threading6Thread8ClrStateEP12Il2CppThreadNS_2vm11ThreadStateE
a9c:_DBNull_System_IConvertible_ToDateTime_m677875698
kPg:__ZL48DBNull_t491814586_CustomAttributesCacheGeneratorP21CustomAttributesCache
Oxd:_Array_InternalArray__Insert_TisCustomAttributeTypedArgument_t560415562_m3915997462_gshared
pxg:_get_index
V7c:_DateTimeFormatInfo_get_RawAbbreviatedDayNames_m771068001
fOd:_MonoType_GetCustomAttributes_m3219692190
$Wf:_WWWTranscoder_Byte2Hex_m2414999496
rec:__ZN16Physics2DManagerD0Ev
NWg:__ZL82Transform_t284553113_CustomAttributesCacheGenerator_Transform_GetChild_m4040462992P21CustomAttributesCache
Hu:__ZN11AudioSource7SetMuteEb
yjf:_Uri_get_IsFile_m1860057402
vrd:_AppDomainInitializer__ctor_m1326333162
s5f:__ZN6il2cpp2vm10Reflection7IsFieldEP12Il2CppObject
faa:__ZN17CollisionMeshData20VertexDataHasChangedEv
NLc:_SecurityException__ctor_m1779937333
AMc:_Single_System_IConvertible_ToType_m1756485413
h2a:__ZN13GfxDeviceGLES30SetBackBufferColorDepthSurfaceEP17RenderSurfaceBaseS1_
mdd:_Environment_internalGetEnvironmentVariable_m1433380067
pTa:__ZN16StreamedResource8TransferI18StreamedBinaryReadILb0EEEEvRT_
mtd:_Array_InternalArray__ICollection_Remove_TisLabelFixup_t320573180_m2754236032_gshared
Ytd:_Array_InternalArray__IEnumerable_GetEnumerator_TisInt64_t2847414882_m3357256492_gshared
AT:__ZNK6Camera17GetSkyboxMaterialEv
Bqh:_emscripten_glDisableVertexAttribArray__wrapper
ZTf:_Rect_get_width_m2824209432
ura:__ZN9Transform15ThreadedCleanupEv
Bpc:__ZZ29InitializeTextRenderingModulevEN16cleanupAfterLoad7ForwardEv
bW:__ZN11HaloManager11RenderHalosEPK11CullResultsR17ShaderPassContext
kWc:_FormatException__ctor_m27151337
Z3g:__ZNSt3__114__split_bufferI6pollfdRNS_9allocatorIS1_EEED2Ev
bXf:_WWWTranscoder_ByteArrayContains_m3244919989
RXe:_AssetBundleCreateRequest_DisableCompatibilityChecks_m616322731
Y7:__ZN21UnityDefaultAllocatorI17LowLevelAllocatorE8AllocateEji
Gke:_DefaultComparer_Compare_m3133979939_gshared
mUd:_RSASslSignatureDeformatter__ctor_m4240353957
Ohf:_CharacterClass__cctor_m2076983614
W3:__ZN10UnityScene10ClearRootsEv
mFf:_KeyValuePair_2__ctor_m2730552978_gshared
vyc:__ZN11UnityEngine7Connect15DeviceInfoEvent13SetDeviceMakeERK8UnityStr
oRc:_Encoding_InvokeI18N_m2813164284
ZKa:__ZN12HandlerChain10AtomicMoveER13FileEntryDataS1_
PCg:__ZL51Comparer_t1007715807_CustomAttributesCacheGeneratorP21CustomAttributesCache
_9:__ZN20SpeedTreeWindManager6UpdateEf
jvf:__Z50RuntimeInvoker_UInt64_t985925421_Int32_t2847414787PK10MethodInfoPvPS2_
R7d:_X500DistinguishedName_Decode_m1854433232
qsb:__ZN9GfxDevice19CreateSparseTextureE9TextureIDii13TextureFormati17TextureColorSpace
jNg:__ZL61ApplicationIdentity_t271056291_CustomAttributesCacheGeneratorP21CustomAttributesCache
ZTc:_Array_ClearInternal_m1225452710
mdf:_ConstructionCall_get_CallSiteActivationAttributes_m2779293359
RCc:__Z47UnityWebRequest_Get_Custom_PropDownloadProgressP15ScriptingObject
nHe:_RemotingConfiguration_get_ApplicationName_m2748314218
hxe:_FieldBuilder_get_Name_m819487801
Zdg:__ZN6il2cpp6icalls8mscorlib6System15MonoCustomAttrs17IsDefinedInternalEP12Il2CppObjectP20Il2CppReflectionType
_ee:_ArrayReadOnlyList_1_Clear_m2221418008_gshared
iRb:__ZN14CompressedMesh8TransferI19StreamedBinaryWriteILb0EEEEvRT_
P8c:_DateTimeFormatInfo_get_Calendar_m1179014650
Eof:__Z57RuntimeInvoker_Il2CppObject_RuntimeTypeHandle_t1864875887PK10MethodInfoPvPS2_
pyb:__ZN15dense_hashtableINSt3__14pairIKNS0_12basic_stringIcNS0_11char_traitsIcEE13stl_allocatorIcL18MemLabelIdentifier54ELi16EEEEP20ArchiveStorageReaderEES8_11djb2_hash_tIS8_EN14dense_hash_mapIS8_SB_SE_NS0_8equal_toIS8_EES5_ISC_LS6_54ELi16EEE9SelectKeyESH_SI_E4swapERSL_
ywf:__Z52RuntimeInvoker_TimeSpan_t763862892_Double_t534516614PK10MethodInfoPvPS2_
y1d:_SslStreamBase_get_ServerCertificate_m2089787471
ixd:_Array_InternalArray__ICollection_CopyTo_TisSingle_t958209021_m2735008342_gshared
y9a:__ZN14RenderSettings8TransferI13ProxyTransferEEvRT_
gDc:__Z61Register_UnityEngine_Networking_UnityWebRequest_InternalBeginv
gDg:__ZL60IEqualityComparer_t1661793090_CustomAttributesCacheGeneratorP21CustomAttributesCache
pR:__ZN10GameObject13RegisterClassEv
B7c:_DateTimeFormatInfo_GetInstance_m619500550
kAd:_Array_InternalArray__get_Item_TisSlot_t2579999_m2216062440_gshared
EVc:_Boolean_System_IConvertible_ToType_m305773363
Qsf:__Z140RuntimeInvoker_Void_t2779279689_Il2CppObject_Il2CppObject_Int64_t2847414882_Il2CppObject_Il2CppObject_Il2CppObject_Il2CppObject_Il2CppObjectPK10MethodInfoPvPS2_
JFf:_Enumerator_VerifyState_m1522854819_gshared
yBb:__Z16Transfer_BuiltinI8Vector2f18StreamedBinaryReadILb1EELb1EEvRK29SerializationCommandArgumentsR31RuntimeSerializationCommandInfo
lCd:_TextInfo__ctor_m3402153128
VNf:_PKCS12_get_RNG_m944600768
mUf:_Rect_t1525428817_marshal_pinvoke_cleanup
H6e:_Keyframe_get_inTangent_m2236973672
Vj:_getc
Owc:__ZN19UnityConnectService27OnDidReloadMonoDomainStaticEPS_
gv:__ZN11AudioSource15InitializeClassEv
utf:__Z38RuntimeInvoker_PaddingMode_t1724215917PK10MethodInfoPvPS2_
rge:_InternalEnumerator_1_System_Collections_IEnumerator_get_Current_m2828440151_gshared
O_g:__ZL110DownloadHandler_t3818353675_CustomAttributesCacheGenerator_DownloadHandler_InternalCreateAudioClip_m3659398341P21CustomAttributesCache
QQe:_Thread_SetCachedCurrentUICulture_m1939313576
Org:__ZN23InterfaceActionInvoker1IbE6InvokeEjP11Il2CppClassPvb
Sqe:_Dictionary_2_System_Collections_Generic_ICollectionU3CSystem_Collections_Generic_KeyValuePairU3CTKeyU2CTValueU3EU3E_Remove_m827431042_gshared
Nqh:_emscripten_glBlendEquation__wrapper
_I:_UNITY_png_icc_check_length
pPf:_X509CertificateEnumerator_System_Collections_IEnumerator_Reset_m2173605650
HQd:_ObsoleteAttribute__ctor_m4069910548
WSe:_TimeZone_GetLocalTimeDiff_m290923612
cF:__ZN11UnityEngine15CloudWebService14DataDispatcher22ResetNetworkRetryIndexEv
dPd:_NumberFormatter_Init_m1761120638
rk:_emscripten_glDrawArrays
FE:__ZN11UnityEngine15CloudWebService19SessionEventManagerC2Ev
xk:_clock_getres
Cbd:_StackTrace__ctor_m2042930289
$Ne:_HashAlgorithm_get_HashSize_m2207294548
Bdd:_Exception__ctor_m3223090658
cKd:_StreamReader_DoChecks_m2189019393
tKe:_ObjectRecord_ChainFixup_m2539942872
dfh:__ZNKSt3__18numpunctIwE12do_falsenameEv
Opg:__ZN21InterfaceFuncInvoker1IiiE6InvokeEjP11Il2CppClassPvi
Erf:__Z146RuntimeInvoker_Il2CppObject_Int32_t2847414787_Il2CppObject_ObjectU5BU5DU26_t3434429003_Il2CppObject_Il2CppObject_Il2CppObject_ObjectU26_t426379564PK10MethodInfoPvPS2_
lVa:__Z41Register_UnityEngine_Camera_get_eventMaskv
zC:__ZL19CleanupModule_Audiov
ODd:_Int32_System_IConvertible_ToDouble_m3905945841
NUf:_Rigidbody2D_INTERNAL_get_velocity_m715507538
tBc:__ZNK26DownloadHandlerAssetBundle9GetLengthEv
t8d:_X509Certificate2_GetNameInfo_m750863125
i3f:__ZN6il2cpp6icalls8mscorlib6System8MonoType8GetFieldEP20Il2CppReflectionTypeP12Il2CppStringi
Zpa:__ZN9Texture2D15InitializeClassEv
Qqd:_AttrListImpl_GetValue_m4106706213
_zd:_Array_InternalArray__get_Item_TisTableRange_t476453423_m3354422249_gshared
qnh:_emscripten_glVertexAttrib3fv__wrapper
Jqg:__ZN16VirtFuncInvoker0IjE6InvokeEjPv
apg:__ZN16VirtFuncInvoker1IP22BigInteger_t1694088928iE6InvokeEjPvi
aHb:__ZL22Transfer_ManagedObjectI13ProxyTransferLb1EEvRK29SerializationCommandArgumentsR31RuntimeSerializationCommandInfo
pye:_OpCode_get_Size_m2313922819
sSg:__ZL66X509ExtensionCollection_t3528692651_CustomAttributesCacheGeneratorP21CustomAttributesCache
Zje:_InternalEnumerator_1__ctor_m2508174428_gshared
oHa:__ZN8Material10GetTextureEN9ShaderLab16FastPropertyNameE
LYb:__ZNSt3__17__sort5IR17CompareInstanceIDPP6ObjectEEjT0_S6_S6_S6_S6_T_
cAb:__ZNK28MonoBehaviourPropertyBinding13GetFloatValueERKN11UnityEngine9Animation10BoundCurveE
COc:_String_ToString_m1382284457
gnb:__ZN18StreamedBinaryReadILb0EE19TransferSTLStyleMapINSt3__13mapI4PPtrI6ShaderE8UnityStrNS2_4lessIS6_EENS2_9allocatorINS2_4pairIKS6_S7_EEEEEEEEvRT_17TransferMetaFlags
BDb:__Z19TransferField_ArrayI18StreamedBinaryReadILb1EE19Converter_PrimitiveIsEEvRK23StaticTransferFieldInfoR31RuntimeSerializationCommandInfoRT0_
m0d:_SslCipherSuite_prf_m1493836693
f2a:__ZN13GfxDeviceGLES32CreateDepthRenderSurfacePlatformEP17RenderSurfaceBase17DepthBufferFormat
dq:__ZN14SafeBinaryRead21TransferSTLStyleArrayI13dynamic_arrayIiLj4EEEEvRT_17TransferMetaFlags
m0e:_FontTextureRebuildCallback_Invoke_m3507488951
aEg:__ZL64FileNotFoundException_t1061214987_CustomAttributesCacheGeneratorP21CustomAttributesCache
v5c:_Convert_ToSingle_m1734305365
erh:_emscripten_glIsTexture__wrapper
wUc:_Array_Sort_m870898844
xhh:_llvm_bswap_i32
yrf:__Z71RuntimeInvoker_Boolean_t211005341_OpCode_t4028977979_OpCode_t4028977979PK10MethodInfoPvPS2_
ifa:__ZN9GfxDevice25ReleaseAsyncCommandHeaderEPN21GfxDeviceAsyncCommand3ArgE
pNb:__Z14resize_trimmedINSt3__16vectorIN30RuntimeInitializeOnLoadManager15ClassMethodInfoE13stl_allocatorIS3_L18MemLabelIdentifier12ELi16EEEEEvRT_j
KVd:_CertificateValidationCallback_EndInvoke_m2267930199
cub:__ZN13ScreenManager24SetAllowLayeredRenderingEb
lob:__ZNSt3__16__treeI19RepeatingLogMessageNS_4lessIS1_EE13stl_allocatorIS1_L18MemLabelIdentifier70ELi16EEE7destroyEPNS_11__tree_nodeIS1_PvEE
g7b:__ZN17Physics2DSettings15InitializeClassEv
wxb:__ZN21UniformBufferTFMethod20IsBoneCountSupportedEi
Wxe:_GenericTypeParameterBuilder_get_Namespace_m2668458867
Vjb:__ZNSt3__16__treeINS_12__value_typeIiP15MonoScriptCacheEENS_19__map_value_compareIiS4_NS_4lessIiEELb1EEE13stl_allocatorIS4_L18MemLabelIdentifier76ELi16EEE7destroyEPNS_11__tree_nodeIS4_PvEE
P6b:__ZN16Physics2DManager21SetColliderCollisionsEP10Collider2DN11Collision2D11ContactModeE
pec:__ZN17b2ContactListener9PostSolveEP9b2ContactPK16b2ContactImpulse
pxa:__ZN14PlayerSettings10SmartResetEv
sOf:_DeriveBytes__cctor_m405383205
UTa:__Z29RectOffset_Get_Custom_PropTopP15ScriptingObject
u6c:_CurrentSystemTimeZone_GetDaylightChanges_m2350299512
gIa:__ZN6Shader27MarkShaderStateNotSupportedEPKS_
lja:__ZN7Cubemap11InitTextureEii13TextureFormatN9Texture2D10EInitFlagsEiii
c8g:__ZNSt3__112basic_stringIcNS_11char_traitsIcEENS_9allocatorIcEEE6appendEPKcj
EC:__ZN10ObjectPoolIN4FMOD6ReverbENS0_7ReverbIEE7SetSizeEi
EQ:__ZN10GameObject21EnsureUniqueTransformEbb
Qtd:_Array_InternalArray__IEnumerable_GetEnumerator_TisLink_t2496691359_m2650343963_gshared
XIc:_SymmetricAlgorithm_Dispose_m3474384861
zAc:__ZN15UnityWebRequestC2Ev
PL:_jpeg_finish_decompress
rlg:__GLOBAL__sub_I_StackTrace_cpp
Gsf:__Z111RuntimeInvoker_Void_t2779279689_Il2CppObject_SByte_t2855346064_ObjectU26_t426379564_HeaderU5BU5DU26_t1160876434PK10MethodInfoPvPS2_
Cdd:_Exception__ctor_m3602014243
BLb:__Z22TransferField_NonArrayI19StreamedBinaryWriteILb0EE27Converter_SimpleNativeClassI8GUIStyleEEvRK23StaticTransferFieldInfoR31RuntimeSerializationCommandInfoRT0_
$oc:_pshinter_module_class_pic_free
BXb:__ZNSt3__17__sort3IR23CompareReflectionProbesP31RuntimeReflectionProbeBlendInfoEEjT0_S5_S5_T_
pRd:_U24ArrayTypeU2432_t214874549_marshal_pinvoke_cleanup
mUb:__ZN6prcoreL17RemapGenericFloatI18TexFormatARGBFloat16TexFormatRGFloatEEvPKNS_9InnerInfoE
ZD:__ZN23CloudWebServicesManager23VirtualRedirectTransferER18StreamedBinaryReadILb0EE
fWg:__ZL102Component_t2126946602_CustomAttributesCacheGenerator_Component_GetComponentsForListInternal_m814665735P21CustomAttributesCache
AGe:_SerializationInfoEnumerator_MoveNext_m4116766855
jHe:_RemotingProxy_get_TypeName_m4078823342
gyg:__ZL48UInt64_t985925421_CustomAttributesCacheGeneratorP21CustomAttributesCache
aed:_CCMath_mod_m4177458858
szd:_Dictionary_2_Do_CopyTo_TisDictionaryEntry_t130027246_TisDictionaryEntry_t130027246_m2419414812_gshared
_Rd:_Kernel_Compare_m3514403080
VGf:_List_1_System_Collections_Generic_ICollectionU3CTU3E_get_IsReadOnly_m1299706087_gshared
LFf:_Enumerator_get_Current_m4198990746_gshared
u8g:__ZNSt3__112basic_stringIwNS_11char_traitsIwEENS_9allocatorIwEEE9__grow_byEjjjjjj
eq:__ZN4AABB8TransferI14SafeBinaryReadEEvRT_
QI:_UNITY_png_destroy_info_struct
iWc:_Boolean_Parse_m3007515274
WNg:__ZL78Convert_t1097883944_CustomAttributesCacheGenerator_Convert_ToInt16_m1004858229P21CustomAttributesCache
fKd:_StreamReader_Read_m4040489200
HPb:__ZN18StreamedBinaryReadILb0EE21TransferSTLStyleArrayI13dynamic_arrayI12LightmapDataLj4EEEEvRT_17TransferMetaFlags
SVa:__Z49Register_UnityEngine_MonoBehaviour_StartCoroutinev
i1d:_SslStreamBase_InternalBeginRead_m2665365405
mMe:_CodeAccessPermission_ToString_m4186930320
e_f:_GenericEqualityComparer_1_Equals_m1634697878_gshared
$2f:__ZN6il2cpp6icalls8mscorlib6System8MonoType14get_attributesEP20Il2CppReflectionType
mIe:_SoapServices__cctor_m3438713338
XUf:_Scene_t2772977204_marshal_pinvoke_cleanup
dcb:__ZNSt3__16vectorIN9ShaderLab16ParserSubProgram15VectorParameterENS_9allocatorIS3_EEE21__push_back_slow_pathIKS3_EEvRT_
$Ob:__ZNSt3__16vectorIN15QualitySettings14QualitySettingENS_9allocatorIS2_EEE26__swap_out_circular_bufferERNS_14__split_bufferIS2_RS4_EE
DVa:__Z40MonoBehaviour_CUSTOM_StartCoroutine_AutoP15ScriptingObjectS0_
yQ:__ZNK10GameObject28QueryComponentImplementationEi
f1f:__ZN6il2cpp2vm5Class19GetArrayElementSizeEPK11Il2CppClass
Yjd:_ArgumentOutOfRangeException__ctor_m2026296331
oQd:_CustomInfo_Parse_m2971752052
mac:__ZN24b2ChainAndPolygonContact6CreateEP9b2FixtureiS1_iP16b2BlockAllocator
ufe:_ArrayReadOnlyList_1_Remove_m609878398_gshared
vxa:__ZN14PlayerSettings16CheckConsistencyEv
lD:__ZN11AudioModule30GetOrCreateDSPFromCustomFilterEP17AudioCustomFilter
O7:__ZN19AtomicPageAllocatorD2Ev
bJe:_FormatterConverter_ToInt32_m3613732188
Tn:FUNCTION_TABLE_viiiiiiiiiiiiii
NCg:__ZL74CaseInsensitiveHashCodeProvider_t4067405951_CustomAttributesCacheGeneratorP21CustomAttributesCache
o1g:__ZN6il2cpp6icalls8mscorlib6System13GlobalizationL20culture_lcid_locatorEPKvS5_
aTd:_ASN1__ctor_m2727735242
ZWc:_Byte_Parse_m2576952376
MAb:__Z16Transfer_BuiltinI5RectTIfE18StreamedBinaryReadILb1EELb0EEvRK29SerializationCommandArgumentsR31RuntimeSerializationCommandInfo
l9c:_DBNull_System_IConvertible_ToUInt64_m2860308204
k8c:_DateTime_op_GreaterThanOrEqual_m717787228
v1g:__ZNSt3__16vectorIN6il2cpp2vm22EmbeddedResourceRecordENS_9allocatorIS3_EEE26__swap_out_circular_bufferERNS_14__split_bufferIS3_RS5_EE
OVe:_UInt64_System_IConvertible_ToUInt32_m380360417
p3g:__ZNSt3__16vectorIN6il2cpp6icalls8mscorlib6System12PropertyPairENS_9allocatorIS5_EEE21__push_back_slow_pathIS5_EEvOT_
xEg:__ZL56DynamicMethod_t2778460557_CustomAttributesCacheGeneratorP21CustomAttributesCache
bbc:__ZNK15b2FrictionJoint10GetAnchorAEv
Gya:__ZN10systeminfo24GetSystemLanguageCultureEi
KVc:_Boolean_System_IConvertible_ToDateTime_m2146018443
TH:__ZN9rapidjson6WriterINS_19GenericStringBufferINS_4UTF8IcEENS_12CrtAllocatorEEES3_S3_S4_E11StartObjectEv
zFg:__ZL60AssemblyNameFlags_t1390978468_CustomAttributesCacheGeneratorP21CustomAttributesCache
ppf:__Z171RuntimeInvoker_Int32_t2847414787_Il2CppObject_Int32_t2847414787_Int32_t2847414787_Il2CppObject_Int16_t2847414729_Int32_t2847414787_SByte_t2855346064_ContextU26_t2739380041PK10MethodInfoPvPS2_
nkc:_UNITY_FT_Outline_Get_CBox
k9f:__ZN6il2cpp6icalls8mscorlib6System2IO6MonoIO29get_AltDirectorySeparatorCharEv
AGf:_List_1_CheckCollection_m4108920670_gshared
OHe:_BinaryFormatter_set_AssemblyFormat_m2535395303
T7:__ZN22PerThreadPageAllocator14AcquireNewPageEv
bmf:__Z67RuntimeInvoker_Void_t2779279689_Int16_t2847414729_Int32_t2847414787PK10MethodInfoPvPS2_
heg:__ZN6il2cpp2os11Environment22GetEnvironmentVariableERKNSt3__112basic_stringIcNS2_11char_traitsIcEENS2_9allocatorIcEEEE
Ang:__ZN18VirtActionInvoker4IiP11Il2CppArrayiiE6InvokeEjPviS1_ii
Dv:__ZN24AudioScriptBufferManager15DidReloadDomainEv
E4g:__ZTv0_n12_NSt3__118basic_stringstreamIcNS_11char_traitsIcEENS_9allocatorIcEEED1Ev
Ieb:__ZL16DrawMeshInternalRK14ChannelAssignsR4MeshRK10Matrix4x4fi13TransformType
CT:__ZN6Camera13ClearNoSkyboxEb
UDd:_Int32_System_IConvertible_ToType_m3850025817
Oef:_MatchCollection_get_Item_m2495033586
Vof:__Z67RuntimeInvoker_Void_t2779279689_SByte_t2855346064_SByte_t2855346064PK10MethodInfoPvPS2_
uHf:_List_1__ctor_m3182785955_gshared
rGb:__ZN6HelperI13ProxyTransfer18TransferField_InfoLb0EE24SerializationFunctionForERKS1_R23StaticTransferFieldInfoPb
itg:__ZNSt3__112__hash_tableINS_17__hash_value_typeIPK22Il2CppGenericParameterP11Il2CppClassEENS_22__unordered_map_hasherIS4_S7_NS_4hashIS4_EELb1EEENS_21__unordered_map_equalIS4_S7_NS_8equal_toIS4_EELb1EEENS_9allocatorIS7_EEE4findIS4_EENS_15__hash_iteratorIPNS_11__hash_nodeIS7_PvEEEERKT_
qGg:__ZL61ResourceAttributes_t1319414387_CustomAttributesCacheGeneratorP21CustomAttributesCache
M0a:__ZN18GfxFramebufferGLES10InvalidateEv
foc:_UNITY_tt_size_run_prep
q$d:_RecordProtocol_ReadRecordBuffer_m1367596554
VTf:_Rect_get_x_m982385354
seb:__ZN4crnd11crnd_deleteINS_13prefix_coding14decoder_tablesEEEvPT_
Sve:_MonoMethod__ctor_m2200429992
HLf:_ReadOnlyCollection_1_System_Collections_ICollection_get_SyncRoot_m4281934668_gshared
Msb:__ZNK9GfxDevice21GetDefaultHDRRTFormatEv
cyg:__ZL73UInt32_t985925326_CustomAttributesCacheGenerator_UInt32_Parse_m3087278554P21CustomAttributesCache
Htf:__Z153RuntimeInvoker_Int32_t2847414787_Il2CppObject_Int32_t2847414787_Int32_t2847414787_SByte_t2855346064_Int32_t2847414787_SByte_t2855346064_SByte_t2855346064PK10MethodInfoPvPS2_
pse:_Assembly_GetCodeBase_m526881390
CTe:_Type_GetType_m2877589631
efd:_CultureInfo_get_Parent_m451838736
jga:__ZN14GfxDeviceStats19EndClientFrameStatsEv
EWf:_Vector4_GetHashCode_m3402333527
_Qa:_LzmaDec_DecodeToBuf
qd:_lseek
V8d:_X509Certificate2Enumerator_System_Collections_IEnumerator_Reset_m3026796220
Qu:__ZN11AudioSource16UpdatePauseStateEv
q_b:__ZL52StaticUnregisterSceneLoadedCallback_LightmapSettingsPv
kzf:__Z90RuntimeInvoker_Void_t2779279689_Il2CppObject_Vector3U26_t3456035723_Vector3U26_t3456035723PK10MethodInfoPvPS2_
YNe:_HashAlgorithm_ComputeHash_m2755161132
J1:__Z29CollectAndProduceClonedIslandR6ObjectR10vector_mapIiiNSt3__14lessIiEE13stl_allocatorINS2_4pairIiiEEL18MemLabelIdentifier1ELi16EEE
JNb:__ZN14SafeBinaryRead21TransferSTLStyleArrayINSt3__16vectorI8UnityStr13stl_allocatorIS3_L18MemLabelIdentifier12ELi16EEEEEEvRT_17TransferMetaFlags
t4e:_GUIStyle_SetFontInternal_m2859258365
tYb:__ZN14SafeBinaryRead21TransferSTLStyleArrayINSt3__16vectorI17SortingLayerEntryNS1_9allocatorIS3_EEEEEEvRT_17TransferMetaFlags
_qa:__ZN9Texture3D23VirtualRedirectTransferER17RemapPPtrTransfer
Z2:__ZN15LODGroupManager16CalculateLODFadeEjjPKhPKf
aEb:__Z16Transfer_BuiltinIj14SafeBinaryReadLb0EEvRK29SerializationCommandArgumentsR31RuntimeSerializationCommandInfo
a8f:__ZN6il2cpp2vm6Thread16RequestInterruptEP12Il2CppThread
o2c:_Console_OpenStandardError_m1760848776
pGd:_Directory_GetFileSystemEntries_m3873165372
qaa:__ZNK3WWW6IsDoneEv
f:HEAPU32
OKa:__ZN12HandlerChain6ParentERK13FileEntryDataRNSt3__112basic_stringIcNS3_11char_traitsIcEENS3_9allocatorIcEEEE
CQd:_Object_ToString_m2286807767
deh:__ZNKSt3__15ctypeIcE8do_widenEc
Wlg:__ZN18VirtActionInvoker1IP8String_tE6InvokeEjPvS1_
NLb:__Z16Transfer_BuiltinIi19StreamedBinaryWriteILb0EELb1EEvRK29SerializationCommandArgumentsR31RuntimeSerializationCommandInfo
vqa:__ZNK14Texture2DArray16ExtractImageImplEP14ImageReferenceNS0_8BlitModeEbi
O5a:_UNITY_png_text_compress
z8:__ZN12TLSAllocatorI14StackAllocatorED0Ev
Lx:__ZN4FMOD13ChannelGroupI9setVolumeEf
RRg:__ZL71Uri_t2776692961_CustomAttributesCacheGenerator_Uri_Unescape_m4097037232P21CustomAttributesCache
Bta:__ZN11TimeManager16CheckConsistencyEv
SHf:_List_1_IndexOf_m33596728_gshared
KVb:__ZN21GfxDeviceAsyncCommand10ArgScratch15ThreadedCleanupEv
qba:__ZN4Mesh16SetChannelsDirtyEjb
$Vb:__ZN14qsort_internal18_MedianOfThreeSwapIP18RPDataMotionVectorN22MotionVectorRenderLoop18RenderObjectSorterEEEvT_S5_S5_T0_
S$f:_GameManager__cctor_m1997684498
KYb:__ZN6Object17IsDerivedFromImpl7Builder18TraverseDepthFirstEijR13dynamic_arrayIN4RTTI15DerivedFromInfoELj4EE
eTf:_Object_DontDestroyOnLoad_m4064482788
wpg:__ZN23InterfaceActionInvoker1IP12Il2CppObjectE6InvokeEjP11Il2CppClassPvS1_
_Zc:_SynchronizedArrayListWrapper_Add_m1801020901
u$a:__ZNK13TranslateGLES13BlendEquationE7BlendOp
se:_JS_SystemInfo_GetCurrentCanvasWidth
bpb:__ZNSt3__16__treeINS_12__value_typeIPvPN14GfxContextGLES8InstanceEEENS_19__map_value_compareIS2_S6_NS_4lessIS2_EELb1EEENS_9allocatorIS6_EEE7destroyEPNS_11__tree_nodeIS6_S2_EE
tPd:_NumberFormatter_get_IsZero_m1430003665
t6a:_start_pass_upsample
VF:__ZN11UnityEngine15CloudWebService17SessionEventQueue19GetEventsAsJsonDataEjR8UnityStrPj
bVg:__ZL107MonoBehaviour_t3012272455_CustomAttributesCacheGenerator_MonoBehaviour_StartCoroutine_m2964903975____value1P21CustomAttributesCache
$Lc:_SecurityFrame__ctor_m1972945906
cdb:__Z18SkinGenericMathLibILi4ELb1ELb0EEvR12SkinMeshInfo
Rch:__ZNSt3__19money_getIwNS_19istreambuf_iteratorIwNS_11char_traitsIwEEEEED2Ev
NCf:__Z52RuntimeInvoker_Void_t2779279689_Keyframe_t2095052507PK10MethodInfoPvPS2_
sYc:_ArrayList_get_IsSynchronized_m3702851162
n8f:__ZN6il2cpp2vm14PlatformInvoke30MarshalCSharpStringToCppStringEP12Il2CppString
iHe:_RemotingProxy__cctor_m4243178796
hzg:__ZL82Decimal_t1688557254_CustomAttributesCacheGenerator_Decimal_op_Implicit_m3967123276P21CustomAttributesCache
IXe:_LogCallback_Invoke_m1886455446
Gvb:__ZN22LocalFileSystemHandler4NameEv
uDa:__ZN9TextAsset8TransferI17RemapPPtrTransferEEvRT_
agd:_U24ArrayTypeU24128_t2366141826_marshal_pinvoke_back
YUf:_SceneManager_Internal_SceneLoaded_m1398790415
HPc:_ASCIIEncoding_GetBytes_m4012262872
ewe:_EnumBuilder_get_Assembly_m953263493
Jcc:__ZNK12b2WheelJoint16GetReactionForceEf
c3e:_GUISkin_set_horizontalScrollbarRightButton_m75365919
hZd:_Context_StartSwitchingSecurityParameters_m271202242
ZKg:__ZL60ToBase64Transform_t1303874555_CustomAttributesCacheGeneratorP21CustomAttributesCache
Bha:__Z30scripting_class_is_subclass_ofP14ScriptingClassS0_
GRb:__ZN7SubMesh8TransferI18StreamedBinaryReadILb0EEEEvRT_
nwb:__ZN21AssetBundleFileSystem4NameEv
DIg:__ZL83MethodDictionary_t1854958641_CustomAttributesCacheGenerator_U3CU3Ef__switchU24map22P21CustomAttributesCache
ZCb:__ZNSt3__16vectorI8GUIStyle13stl_allocatorIS1_L18MemLabelIdentifier1ELi16EEE7reserveEj
$4c:_Convert_ToSByte_m827320437
Ckb:__ZNSt3__16__treeINS_12__value_typeI26SerializedObjectIdentifieriEENS_19__map_value_compareIS2_S3_NS_4lessIS2_EELb1EEENS_9allocatorIS3_EEE7destroyEPNS_11__tree_nodeIS3_PvEE
cf:_emscripten_glIsEnabled
aWg:__ZL98Component_t2126946602_CustomAttributesCacheGenerator_Component_GetComponentsInChildren_m1419556996P21CustomAttributesCache
sXa:__Z45Register_UnityEngine_GameObject_get_transformv
_Jb:__Z16Transfer_BuiltinIy18StreamedBinaryReadILb0EELb1EEvRK29SerializationCommandArgumentsR31RuntimeSerializationCommandInfo
mzd:_Array_Sort_TisIl2CppObject_m425538513_gshared
bac:__ZN7b2World12DestroyJointEP7b2Joint
xPd:_NumberFormatter_RoundDecimal_m3262983754
vEc:__ZL22FindVRDeviceDefinitionRKNSt3__112basic_stringIcNS_11char_traitsIcEENS_9allocatorIcEEEE
PE:__ZN11UnityEngine15CloudWebService19SessionEventManager26ProcessEventQueueJobStaticEPv
mlh:_glFramebufferRenderbuffer__wrapper
SJg:__ZL92X509Certificate_t3432067208_CustomAttributesCacheGenerator_X509Certificate_Reset_m4169919017P21CustomAttributesCache
Nhf:_CharacterClass_AddCategory_m385157186
hma:__ZN8Renderer13RegisterClassEv
tsg:__Z30il2cpp_codegen_class_from_typePK10Il2CppType
sWe:_UIntPtr_op_Explicit_m376973280
Sca:__ZN14SpriteRenderer17RenderGeometryJobEP25SpriteRendererGeometryJob
SE:__ZN11UnityEngine15CloudWebService19SessionEventManager37OnTimerExpiredPerformArchiveJobStaticEPv
XSg:__ZL138U3CGetExtensionMethodsU3Ec__IteratorC_t1663269283_CustomAttributesCacheGenerator_U3CGetExtensionMethodsU3Ec__IteratorC_Dispose_m1952673188P21CustomAttributesCache
d8d:_X509Extension_get_Critical_m1925069548
W3b:__ZL26RegisterModuleICalls_IMGUIv
Yja:__ZN10builtintex15GetWhiteTextureEv
MWf:_WaitForFixedUpdate__ctor_m2916734308
Epb:__ZNSt3__16__treeINS_12__value_typeIj25DeferredSkinningOperationEENS_19__map_value_compareIjS3_NS_4lessIjEELb1EEENS_9allocatorIS3_EEE7destroyEPNS_11__tree_nodeIS3_PvEE
_0d:_SslStreamBase_RaiseLocalPrivateKeySelection_m2365509687
g_c:_SynchronizedArrayListWrapper_Remove_m3298552256
Seb:__Z5WhiteP9Texture2DPhiiii
oZd:_HandshakeMessage_Update_m566705900
hgb:__ZN4PPtrI10GameObjectE8TransferI18StreamedBinaryReadILb0EEEEvRT_
$Ag:__ZL67Il2CppArray_CustomAttributesCacheGenerator_Array_Resize_m2347367271P21CustomAttributesCache
Fug:__ZL10rescale128PyS_Piiiii
DE:__ZN11UnityEngine15CloudWebService17CloudJobScheduler5CloseEv
DRe:_Scheduler_SchedulerThread_m2007715993
Hkf:__Z47RuntimeInvoker_DateTime_t339033936_Il2CppObjectPK10MethodInfoPvPS2_
D1c:_SortedList_Contains_m2222218676
j$e:_Event_get_type_m2209939250
Tid:_Context_t2616184207_marshal_pinvoke
y_b:__ZL32StaticInitializeIUnityInterfacesPv
WU:__Z13CameraProjectRK8Vector3fRK10Matrix4x4fS4_RK5RectTIiERS_b
OOb:__ZN15dense_hashtableINSt3__14pairIKPK17RenderSurfaceBaseP13RenderTextureEES4_N16RenderTextureMap11HashFunctorEN14dense_hash_mapIS4_S7_SA_NS0_8equal_toIS4_EE13stl_allocatorIS8_L18MemLabelIdentifier65ELi16EEE9SelectKeyESD_SG_E9copy_fromERKSJ_j
sJa:__Z22CreateMutexLockedStackv
nYf:_AesTransform_Encrypt128_m3651261907
Y5:__ZN9ShaderLab11ShaderStateD2Ev
utc:_Ins_DELTAP
rP:__ZN15EditorExtension15ThreadedCleanupEv
Gpb:__ZN11AssetBundleD2Ev
Wj:_pthread_create
zmh:_emscripten_longjmp__wrapper
AL:_UNITY_png_write_iTXt
cGd:_Directory_CreateDirectoriesInternal_m1545778887
dxb:__ZNSt3__16__treeINS_12__value_typeI8UnityStr4PPtrI6ObjectEEENS_19__map_value_compareIS2_S6_NS_4lessIS2_EELb1EEENS_9allocatorIS6_EEE7destroyEPNS_11__tree_nodeIS6_PvEE
a2c:_Stack_Clone_m2500471496
_Rg:__ZL85BigInteger_t1694088928_CustomAttributesCacheGenerator_BigInteger_ToString_m3209284166P21CustomAttributesCache
qCa:__ZN19ScriptingInvocationC2E21ScriptingMethodIl2Cpp
cPd:_NumberFormatter_InitHex_m673436066
vlf:__Z68RuntimeInvoker_Boolean_t211005341_Il2CppObject_UInt32U26_t1633857122PK10MethodInfoPvPS2_
Rff:_PatternLinkStack_set_OffsetAddress_m2022131826
VKa:__ZNK12HandlerChain6TargetERK13FileEntryDataR15FileSystemEntry
rcd:_Enum_System_IConvertible_ToByte_m1060234888
jnc:_UNITY_FT_Init_Class_tt_service_get_cmap_info
o3:__Z19ScheduleJobInternalR8JobFencePFvPvES1_11JobPriority
gJe:_BinaryCommon_GetTypeFromCode_m4044019293
h9b:__ZN16b2BlockAllocator4FreeEPvi
YJa:__ZN13FileEntryDataaSERKS_
ztf:__Z94RuntimeInvoker_Int32_t2847414787_Il2CppObject_Int32_t2847414787_Il2CppObject_Int32_t2847414787PK10MethodInfoPvPS2_
jxd:_Array_InternalArray__ICollection_CopyTo_TisMark_t3725932776_m2988078787_gshared
IUb:__ZN6prcoreL17RemapGenericFloatI17TexFormatRGBAHalf17TexFormatRGBFloatEEvPKNS_9InnerInfoE
keh:__ZNKSt3__17codecvtIcc11__mbstate_tE10do_unshiftERS1_PcS4_RS4_
Zuf:__Z50RuntimeInvoker_UInt16_t985925268_Single_t958209021PK10MethodInfoPvPS2_
Nsg:__ZN16VirtFuncInvoker1I39CustomAttributeTypedArgument_t560415562iE6InvokeEjPvi
$Kc:_WindowsIdentity__cctor_m309158987
F9g:__ZNSt3__17num_getIcNS_19istreambuf_iteratorIcNS_11char_traitsIcEEEEED2Ev
S4b:__ZN9rapidjson12PrettyWriterI16TempBufferWriterNS_4UTF8IcEES3_13JSONAllocatorE10StartArrayEv
mvb:__ZN11PreloadDataD2Ev
Gue:_AssemblyBuilder_GetManifestModule_m3329157928
Kac:__ZN25b2PolygonAndCircleContact6CreateEP9b2FixtureiS1_iP16b2BlockAllocator
Owg:__ZNSt3__112basic_stringItNS_11char_traitsItEENS_9allocatorItEEE7reserveEj
Kha:__Z20scripting_object_newP14ScriptingClass
Qbc:__ZNK16b2PrismaticJoint16GetReactionForceEf
nzc:__ZN18CrashReportHandler10SendReportER16CrashReportEvent
Qtf:__Z157RuntimeInvoker_Int32_t2847414787_Il2CppObject_DecoderFallbackBufferU26_t1882349766_ByteU5BU5DU26_t3506413520_Il2CppObject_Int64_t2847414882_Int32_t2847414787PK10MethodInfoPvPS2_
y0g:__ZNSt3__112basic_stringItNS_11char_traitsItEENS_9allocatorItEEE9push_backEt
qAf:__Z63RuntimeInvoker_Int32_t2847414787_Il2CppObject_Single_t958209021PK10MethodInfoPvPS2_
Cph:_emscripten_glGetObjectParameterivARB__wrapper
sCe:_MonoField_get_FieldType_m3878403556
eHg:__ZL95SafeHandle_t2089155095_CustomAttributesCacheGenerator_SafeHandle_DangerousGetHandle_m4113584652P21CustomAttributesCache
uXe:_AnimationCurve__ctor_m2436282331
uAc:__ZN13RuntimeStaticI20HardwareInfoReporterE7DestroyEv
Ymc:_UNITY_FT_Init_Class_pscmaps_interface
rAg:__ZL69Il2CppArray_CustomAttributesCacheGenerator_Array_SetValue_m2305204221P21CustomAttributesCache
Tca:__ZN14SpriteRenderer15SetupPropertiesER19ShaderPropertySheetRK16SpriteRenderData
kUa:__Z44Register_UnityEngine_RectOffset_get_verticalv
yOe:_UTF32Encoding_GetCharCount_m2854590747
AR:__ZN5Unity9Component8TransferI14SafeBinaryReadEEvRT_
ame:_Enumerator_System_Collections_IDictionaryEnumerator_get_Entry_m2279524093_gshared
ynf:__Z52RuntimeInvoker_Decimal_t1688557254_Single_t958209021PK10MethodInfoPvPS2_
nzf:__Z79RuntimeInvoker_Il2CppObject_Ray_t1522967639_Single_t958209021_Int32_t2847414787PK10MethodInfoPvPS2_
pIf:_List_1_System_Collections_Generic_ICollectionU3CTU3E_get_IsReadOnly_m1976723363_gshared
uh:_JS_SystemInfo_GetCurrentCanvasHeight
JHe:_RemotingException__ctor_m1465301855
dwe:_DynamicMethodTokenGenerator_GetToken_m4110543368
C$e:_PersistentCallGroup__ctor_m3119615256
SPg:__ZL73MulticastNotSupportedException_t2660113937_CustomAttributesCacheGeneratorP21CustomAttributesCache
u$e:_Event_t1590224583_marshal_pinvoke_cleanup
tJ:_UNITY_png_app_error
Hma:__ZN8Renderer17UpdateSceneHandleEv
CYa:__ZN13EmscriptenWWW23HasDownloadedOrMayBlockEv
jtb:__ZN9GfxDevice16DrawNullGeometryE16GfxPrimitiveTypeii
c1d:_SslHandshakeHash_HashCore_m1118046919
eNc:_String_System_IConvertible_ToSingle_m3461669016
yUb:__ZN6prcoreL17RemapGenericFloatI14TexFormatRHalf17TexFormatRGBAHalfEEvPKNS_9InnerInfoE
H2f:__ZN6il2cpp2vm7Runtime11InvokeArrayEPK10MethodInfoPvP11Il2CppArrayPP15Il2CppException
xQ:__ZNK10GameObject23QueryComponentTransformEv
tlb:__Z29StdTemplateConversionFunctionItyEbPvR14SafeBinaryRead
mGb:__Z19TransferField_ArrayI14SafeBinaryRead19Converter_PrimitiveItEEvRK23StaticTransferFieldInfoR31RuntimeSerializationCommandInfoRT0_
Cdc:__ZL26InitializeModule_Physics2Dv
fkd:_BigInteger_op_Division_m1880509270
yfa:__ZN9GfxDevice15BeginFrameStatsEv
x2c:_Convert_FromBase64String_m901846280
HIb:__Z16Transfer_BuiltinI8Vector2f17RemapPPtrTransferLb1EEvRK29SerializationCommandArgumentsR31RuntimeSerializationCommandInfo
_ad:_Delegate_CombineImpl_m3377741042
bif:_ExpressionCollection_OnValidate_m67467971
l4a:__ZN4gles20EnsureTextureCreatedEP7ApiGLESP17RenderSurfaceGLES
wZg:__ZL102GUIStyle_t1006925219_CustomAttributesCacheGenerator_GUIStyle_Internal_DrawWithTextSelection_m538670273P21CustomAttributesCache
ot:__Z32AudioMeasurement_GetTimeConstantff
Isb:__ZN9GfxDevice13SetBufferNameEP9GfxBufferPKc
oL:_UNITY_png_compress_IDAT
$Xd:_ClientSessionCache_FromContext_m1274339950
K8a:__ZL27PrepareSceneNodesJobCombineP25ScheduleSceneNodesJobData
FEb:__Z22TransferField_NonArrayI14SafeBinaryRead27Converter_SimpleNativeClassI8GUIStyleEEvRK23StaticTransferFieldInfoR31RuntimeSerializationCommandInfoRT0_
j1a:__ZN13GfxDeviceGLESD2Ev
Hda:__ZN18AsyncUploadManager13StaticDestroyEPv
QHe:_RemotingServices_GetVirtualMethod_m2492796715
J6b:__ZN16Physics2DManager26GetGameObjectForRaycastHitERK12RaycastHit2D
Ngd:_U24ArrayTypeU24640_t2366146685_marshal_pinvoke_back
nsd:_Array_InternalArray__ICollection_Contains_TisDecimal_t1688557254_m3865786983_gshared
kVd:_ContentInfo_GetASN1_m147164789
ZFe:_SoapAttribute_get_XmlNamespace_m1118853738
vFe:_MonoMethodMessage_get_ReturnValue_m2245026524
fcc:__ZNK15b2RevoluteJoint10GetAnchorAEv
q2f:__ZN6il2cpp2vm13MetadataCache32GenerateCustomAttributeTypeCacheEi
tpf:__Z201RuntimeInvoker_Boolean_t211005341_Il2CppObject_Int32U26_t2544866037_Int32_t2847414787_Int32_t2847414787_Il2CppObject_SByte_t2855346064_Int32_t2847414787_ContractionU26_t661941515_ContextU26_t2739380041PK10MethodInfoPvPS2_
rwa:__Z21AddComponentUncheckedR10GameObjectiP14ScriptingClassPNSt3__112basic_stringIcNS3_11char_traitsIcEENS3_9allocatorIcEEEE
smg:__ZN16VirtFuncInvoker0IP23CompareInfo_t4023832425E6InvokeEjPv
ZQg:__ZL89HttpWebRequest_t171953869_CustomAttributesCacheGenerator_HttpWebRequest__ctor_m1235446968P21CustomAttributesCache
M$d:_SendRecordAsyncResult_get_Message_m2765274544
n7a:__ZNSt3__16__treeINS_12__value_typeINS_12basic_stringIcNS_11char_traitsIcEE13stl_allocatorIcL18MemLabelIdentifier54ELi16EEEEP11AssetBundleEENS_19__map_value_compareIS8_SB_NS_4lessIS8_EELb1EEES5_ISB_LS6_54ELi16EEE4findIS8_EENS_15__tree_iteratorISB_PNS_11__tree_nodeISB_PvEEiEERKT_
rvf:__Z72RuntimeInvoker_Int32_t2847414787_DateTime_t339033936_DateTime_t339033936PK10MethodInfoPvPS2_
M7d:_PublicKey_DecodeDSA_m2700844317
kPe:_UTF8Encoding__ctor_m508869187
Cah:__ZNSt3__17num_putIwNS_19ostreambuf_iteratorIwNS_11char_traitsIwEEEEED0Ev
Nsd:_Array_InternalArray__ICollection_Contains_TisContactPoint2D_t3963746319_m975247342_gshared
epf:__Z98RuntimeInvoker_Void_t2779279689_Int32_t2847414787_Int32_t2847414787_Il2CppObject_Int32_t2847414787PK10MethodInfoPvPS2_
NEc:_HMACSHA512_set_ProduceLegacyHmacValues_m667703674
Cbb:__ZNSt3__16__treeINS_12__value_typeINS_12basic_stringIcNS_11char_traitsIcEENS_9allocatorIcEEEEiEENS_19__map_value_compareIS7_S8_26compare_string_insensitiveLb1EEENS5_IS8_EEE15__insert_uniqueERKS8_
LR:__Z24GetManagerPtrFromContexti
lGc:_RijndaelTransform_Decrypt256_m4237016300
Duc:_Direct_Move_X
bEg:__ZL52FileOptions_t49336841_CustomAttributesCacheGeneratorP21CustomAttributesCache
Nvf:__Z104RuntimeInvoker_Il2CppObject_Int16_t2847414729_Il2CppObject_BooleanU26_t3343357035_BooleanU26_t3343357035PK10MethodInfoPvPS2_
Xi:_glClearDepthf
P9a:__ZNSt3__16vectorI16ShadowCasterData13stl_allocatorIS1_L18MemLabelIdentifier2ELi16EEE6assignINS_11__wrap_iterIPS1_EEEENS_9enable_ifIXaasr21__is_forward_iteratorIT_EE5valuesr16is_constructibleIS1_NS_15iterator_traitsISB_E9referenceEEE5valueEvE4typeESB_SB_
M3:__ZN19RuntimeSceneManager14GetActiveSceneEv
k3g:__ZN6il2cpp6icalls8mscorlib6SystemL8IsStaticEPK9EventInfo
e6:__ZN9shadertag16GetShaderTagNameEi
Yrd:_ArithmeticException__ctor_m2817528301
NV:__ZN16GraphicsSettings10SmartResetEv
KEa:__ZN19StreamedBinaryWriteILb0EE4InitE24TransferInstructionFlags20BuildTargetSelection
pvc:__ZN20TextRenderingPrivate4Font13CharacterInfo8TransferI19StreamedBinaryWriteILb0EEEEvRT_
oia:__Z27scripting_class_is_abstractP14ScriptingClass
iZf:_EqualityComparer_1_System_Collections_IEqualityComparer_GetHashCode_m3747748197_gshared
Blf:__Z50RuntimeInvoker_Int32_t2847414787_SByte_t2855346064PK10MethodInfoPvPS2_
uAd:_Array_InternalArray__get_Item_TisCustomAttributeTypedArgument_t560415562_m193823746_gshared
nXb:__ZN20SphericalHarmonicsL28TransferI19StreamedBinaryWriteILb0EEEEvRT_
skf:_UriParser_InternalRegister_m1447570189
VRe:_WaitHandle_WaitOne_m1178289523
XXf:_AesManaged__ctor_m1572578968
hha:__ZN9Scripting27BackingArrayFieldForListOfTEP14ScriptingClass
rW:__ZN12ImageFilters4BlitER17ShaderPassContextP7TextureP13RenderTexturePK18SharedMaterialDataP6Shaderib11CubemapFaceRK8Vector2fSE_
_Xe:_AsyncOperation_get_isDone_m2747591837
ZXf:_AesManaged_GenerateKey_m1003425312
fjg:__ZN6il2cpp5utils6Memory6MallocEj
UP:__ZN17GlobalGameManager23VirtualRedirectTransferER13ProxyTransfer
j6a:_next_marker
q5a:__GLOBAL__sub_I_GlobalConstantBuffers_cpp
c_:__Z20SendCullingCallbacksRK13CullingOutputRK14ShadowCullData
iad:_Decimal_CompareTo_m2260095952
wTf:_Object_FindObjectOfType_m3820159265
tZ:__ZN14RenderSettings12CleanupClassEv
Sfa:__ZN9GfxDevice15ImmediateNormalEfff
azd:_Array_Resize_TisIl2CppObject_m4097160425_gshared
xLe:_RuntimeMethodHandle_GetHashCode_m1771691683
e6f:__ZN6il2cpp2vm14TypeNameParser13ParseAssemblyEv
DTc:_Array_GetValue_m2095831338
kff:_PatternCompiler_EmitCategory_m2446864524
ZPe:_WaitHandle_CheckDisposed_m3718910029
UDb:__ZN6HelperI14SafeBinaryRead18TransferField_InfoLb0EE24SerializationFunctionForERKS1_R23StaticTransferFieldInfoPb
XGb:__ZN8GUIStyle8TransferI13ProxyTransferEEvRT_
x7c:_DateTime_GetHashCode_m2255586565
tqe:_Dictionary_2_ContainsKey_m2707901159_gshared
Wpe:_Dictionary_2_System_Collections_IDictionary_set_Item_m2394837659_gshared
tVe:_UInt32_Parse_m178847972
p1e:_GUILayoutOption__ctor_m573459815
Lpa:__ZN9Texture2D13UploadTextureEb
JWe:_UnitySerializationHolder_GetModuleData_m3074840415
Mqc:_cff_get_cid_from_glyph_index
$A:__ZN4FMOD6System19setSoftwareChannelsEi
mtb:__ZN9GfxDevice19SetSinglePassStereoE16SinglePassStereo
nce:_RepeatContext_get_IsMinimum_m1600048397
pEe:_PropertyInfo_get_MemberType_m3698268270
vhh:_bitshift64Lshr
iK:_UNITY_png_handle_IEND
wde:_GenericGeneratorEnumerator_1_System_Collections_IEnumerator_get_Current_m3754429760_gshared
Ubh:__ZNKSt3__110moneypunctIcLb0EE16do_decimal_pointEv
OJc:_X509Certificate_tostr_m1883898870
vTf:_Object_Instantiate_m3040600263
Jbe:_Group_get_Success_m3627958764
yPd:_NumberFormatter_AddOneToDecHex_m3773408269
MFf:_Enumerator__ctor_m256124610_gshared
Nod:_PKCS12_Finalize_m510753919
Gu:__ZN11AudioSource7SetLoopEb
Hih:dynCall_viiiii
k2b:__Z31GUIStyle_CUSTOM_GetFontInternalP15ScriptingObject
sMb:__Z19TransferField_ArrayI19StreamedBinaryWriteILb0EE19Converter_PrimitiveI8Vector4fEEvRK23StaticTransferFieldInfoR31RuntimeSerializationCommandInfoRT0_
dsf:__Z77RuntimeInvoker_Void_t2779279689_Int64_t2847414882_ResourceInfoU26_t4218728292PK10MethodInfoPvPS2_
ouc:_Cubic_To
tM:_jcopy_sample_rows
Nqf:__Z152RuntimeInvoker_Void_t2779279689_Il2CppObject_Int32_t2847414787_Int32_t2847414787_Int32_t2847414787_Int32_t2847414787_SByte_t2855346064_SByte_t2855346064PK10MethodInfoPvPS2_
VUa:__Z37Register_UnityEngine_Application_Quitv
xub:__ZN14Texture2DArrayD2Ev
qpf:__Z130RuntimeInvoker_Int32_t2847414787_Il2CppObject_Il2CppObject_Int32_t2847414787_Int32_t2847414787_Il2CppObject_ContextU26_t2739380041PK10MethodInfoPvPS2_
dvb:__ZNK17IAnimationBinding30CurveAttributeToSerializedPathERKN11UnityEngine9Animation10BoundCurveE
Trf:__Z49RuntimeInvoker_MonoMethodInfo_t106042080_IntPtr_tPK10MethodInfoPvPS2_
T9f:__ZN6il2cpp2vm5Image21FromTypeNameParseInfoEPK11Il2CppImageRKNS0_17TypeNameParseInfoEb
beg:__ZN6il2cpp2gc16GarbageCollector19InitializeFinalizerEv
okd:_BigInteger_op_Inequality_m1216595348
V4g:_isdigit_l
MYf:_DefaultComparer_Equals_m4152684784_gshared
tEe:_PropertyInfo_GetRequiredCustomModifiers_m3981387111
XTc:_Array_BinarySearch_m2035084453
X7a:__ZN18StreamedBinaryReadILb1EE21TransferSTLStyleArrayINSt3__112basic_stringIcNS2_11char_traitsIcEE13stl_allocatorIcL18MemLabelIdentifier1ELi16EEEEEEvRT_17TransferMetaFlags
p6g:__ZNK10__cxxabiv121__vmi_class_type_info16search_below_dstEPNS_19__dynamic_cast_infoEPKvib
$We:_Version_get_Minor_m722627079
H_e:_Debug__cctor_m37515655
Sid:_SimpleCollator_MatchesBackwardCore_m1571229341
lXc:_Char_System_IConvertible_ToDateTime_m1177409155
Yac:__ZN15b2DistanceJoint4DumpEv
k4f:_il2cpp_class_has_attribute
vSb:__ZN12IFileAdapter5WriteER13FileEntryDatayyPvPy
A6b:__Z23CleanupPhysicsManager2Dv
m$f:_RuntimeServices_EqualityOperator_m1206578319
Aff:_PatternCompiler_EmitBranch_m2313940051
Aih:dynCall_viiiiiiiiii
NBb:__ZNSt3__16vectorI10RectOffset13stl_allocatorIS1_L18MemLabelIdentifier1ELi16EEE6assignINS_11__wrap_iterIPS1_EEEENS_9enable_ifIXaasr21__is_forward_iteratorIT_EE5valuesr16is_constructibleIS1_NS_15iterator_traitsISB_E9referenceEEE5valueEvE4typeESB_SB_
iud:_Array_InternalArray__IEnumerable_GetEnumerator_TisTypeTag_t1738289281_m2594172501_gshared
lLb:__Z16Transfer_BuiltinI8Vector4f19StreamedBinaryWriteILb0EELb0EEvRK29SerializationCommandArgumentsR31RuntimeSerializationCommandInfo
nx:_FMOD_Memory_Initialize
SMa:__ZN21ArchiveStorageCreator11StoreStreamEb
T3b:__Z48Register_UnityEngine_GUIUtility_Internal_ExitGUIv
E9a:__ZL21CullDynamicObjectsJobP14CullingJobDataj
Lub:__ZN9TransformD2Ev
fGc:_RijndaelTransform_ECB_m759186162
gAb:__ZNK28MonoBehaviourPropertyBinding15GenerateBindingERK8UnityStrbRN11UnityEngine9Animation14GenericBindingE
Lsd:_Array_InternalArray__ICollection_Contains_TisUInt64_t985925421_m3218177024_gshared
X7c:_DateTimeFormatInfo_get_RawAbbreviatedMonthNames_m3687851005
Rgd:_U24ArrayTypeU2472_t214874672_marshal_pinvoke_cleanup
XTe:_Type_IsContextfulImpl_m509765663
HR:__ZN14ManagerContext17InitializeClassesEv
FBf:__Z62RuntimeInvoker_Boolean_t211005341_ParameterModifier_t500203470PK10MethodInfoPvPS2_
ZNb:__Z14resize_trimmedINSt3__16vectorI8UnityStrNS0_9allocatorIS2_EEEEEvRT_j
m3a:__ZN13GfxDeviceGLES11DrawBuffersEP9GfxBufferPK18VertexStreamSourceiPK16DrawBuffersRangeiP17VertexDeclarationRK14ChannelAssigns
Awa:__Z21SendMessageToEveryone17MessageIdentifier11MessageData
jBb:__ZN18StreamedBinaryReadILb1EE21TransferSTLStyleArrayI31ArrayOfManagedObjectsTransfererEEvRT_17TransferMetaFlags
nkb:__ZNSt3__16__treeINS_12__value_typeINS_4pairIPcS3_EENS_3setIS3_15smaller_cstringNS_9allocatorIS3_EEEEEENS_19__map_value_compareIS4_SA_20smaller_cstring_pairLb1EEENS7_ISA_EEE7destroyEPNS_11__tree_nodeISA_PvEE
Xlf:__Z64RuntimeInvoker_Boolean_t211005341_Il2CppObject_Int32_t2847414787PK10MethodInfoPvPS2_
wtc:_t1_hints_open
$Ng:__ZL78Convert_t1097883944_CustomAttributesCacheGenerator_Convert_ToInt64_m3277419125P21CustomAttributesCache
WMg:__ZL52WaitHandle_t361062656_CustomAttributesCacheGeneratorP21CustomAttributesCache
vhf:_CaptureAssertion_set_CapturingGroup_m1020834945
fle:_Comparer_1__ctor_m972351899_gshared
Zya:__Z23TransferScriptingObjectI13ProxyTransferEvRT_P15ScriptingObjectP14ScriptingClassPK15MonoScriptCache
bna:__Z43InitializeRendererAnimationBindingInterfacev
LAc:__ZN22UnityWebRequestManager21CreateUnityWebRequestEv
GXc:_Char_Equals_m2979193691
lvd:_Array_InternalArray__IndexOf_TisIl2CppObject_m2736324117_gshared
fA:__ZN4FMOD7Channel11getUserDataEPPv
Lnc:_UNITY_tt_face_load_gasp
fCf:__Z56RuntimeInvoker_Int32_t2847414787_ILTokenInfo_t3723275281PK10MethodInfoPvPS2_
r0a:__ZN4gles14UseGLSLProgramER15DeviceStateGLESjbi
Dqc:_ft_ansi_stream_close
Km:_JS_Sound_SetPitch
urf:__Z50RuntimeInvoker_Void_t2779279689_OpCode_t4028977979PK10MethodInfoPvPS2_
Ked:_CompareInfo_internal_index_managed_m3605761693
U4f:_il2cpp_runtime_invoke_convert_args
O1d:_SslStreamBase_EndWrite_m2816354780
iDb:__ZNSt3__16vectorIf13stl_allocatorIfL18MemLabelIdentifier1ELi16EEE6assignINS_11__wrap_iterIPfEEEENS_9enable_ifIXaasr21__is_forward_iteratorIT_EE5valuesr16is_constructibleIfNS_15iterator_traitsISA_E9referenceEEE5valueEvE4typeESA_SA_
u9f:__ZN6il2cpp6icalls8mscorlib6System2IO6MonoIO11GetFileStatEP12Il2CppStringPNS3_8FileStatEPi
pzg:__ZL67IntPtr_t_CustomAttributesCacheGenerator_IntPtr_get_Size_m2848612188P21CustomAttributesCache
Dxc:__ZN11UnityEngine15PlatformWrapper16GenerateRandomIdEv
KZ:__Z25CalculateShadowCasterCullbPK5PlaneRK10Matrix4x4fRK8Vector3fff9LightTypeS7_R16ShadowCasterCullPKb
Uca:__Z22SpriteRenderer_CleanupR15RenderNodeQueuej
Urh:___ctype_b_loc__wrapper
Tgh:__ZNSt3__127__num_get_unsigned_integralIyEET_PKcS3_Rji
bnf:__Z52RuntimeInvoker_Int32_t2847414787_Decimal_t1688557254PK10MethodInfoPvPS2_
Ice:_InterpreterFactory_get_NamesMapping_m2841689669
_nd:_SymmetricTransform_TransformBlock_m2213503636
HKf:_Collection_1_RemoveAt_m3322753061_gshared
lLe:_RuntimeFieldHandle_get_Value_m2124751302
eZg:__ZL88GUIStyle_t1006925219_CustomAttributesCacheGenerator_GUIStyle_set_stretchWidth_m829487234P21CustomAttributesCache
cfg:_GC_freehblk
rFb:__ZN14SafeBinaryRead21TransferSTLStyleArrayINSt3__16vectorI10RectOffset13stl_allocatorIS3_L18MemLabelIdentifier1ELi16EEEEEEvRT_17TransferMetaFlags
r1d:_SslStreamBase_get_CipherAlgorithm_m4086753563
i3e:_GUISkin_set_verticalScrollbarUpButton_m3911333362
JDa:__ZN9Scripting35DestroyObjectFromScriptingImmediateEP6Objectb
Z6c:_DateTime_IsLeapYear_m3404721384
_Qd:_U24ArrayTypeU2412_t214874488_marshal_pinvoke
FHg:__ZL57_ParameterInfo_t1109275578_CustomAttributesCacheGeneratorP21CustomAttributesCache
qAg:__ZL81Il2CppArray_CustomAttributesCacheGenerator_Array_GetValue_m2759746956____indices0P21CustomAttributesCache
Zb:invoke_iiiiiiiiiiiiiii
NQf:_DownloadHandlerAudioClip__ctor_m2530782554
grh:_emscripten_glIsRenderbuffer__wrapper
Adf:_MethodDictionary_SetMethodProperty_m3901784959
ZW:__ZN28LightProbeProxyVolumeManager16BlendLightProbesEP21LightProbeProxyVolume
Bpe:_Dictionary_2_CopyTo_m2503627344_gshared
Ise:_Assembly_LoadWithPartialName_m3055769661
gMe:_SByte_ToString_m3084859627
Zsd:_Array_InternalArray__ICollection_Remove_TisKeyValuePair_2_t3312956448_m3027593517_gshared
Ifb:__ZN15QualitySettings8TransferI14SafeBinaryReadEEvRT_
njd:_BigInteger_GenerateRandom_m2802147052
qGf:_List_1_AddEnumerable_m1821121595_gshared
mLb:__Z16Transfer_BuiltinI5RectTIfE19StreamedBinaryWriteILb0EELb0EEvRK29SerializationCommandArgumentsR31RuntimeSerializationCommandInfo
t9c:_Decimal_Parse_m2075137301
Rqg:__ZL24il2cpp_codegen_no_returnv713
BKb:__Z19TransferField_ArrayI18StreamedBinaryReadILb0EE19Converter_PrimitiveI8Vector4fEEvRK23StaticTransferFieldInfoR31RuntimeSerializationCommandInfoRT0_
fkb:__ZN29SerializeTraitsForStringTypesI8UnityStrE8TransferI13ProxyTransferEEvRS0_RT_
Uqd:_AccessViolationException__ctor_m1694290248
jAf:__Z79RuntimeInvoker_Void_t2779279689_Rect_t1525428817_Il2CppObject_Int32_t2847414787PK10MethodInfoPvPS2_
qGa:__ZN14SerializedFile10ReadObjectEx18ObjectCreationModebPPK8TypeTreePbR6Object
Eba:__ZN4Mesh12SetIndexDataEiiPKv16GfxPrimitiveTypei
Bfd:_CultureInfo_construct_internal_locale_from_name_m3409722447
O4e:_GUIStyle_Internal_GetCursorPixelPosition_m336331745
Rrb:__ZN9GfxDevice34SetStencilRefWhenStencilWasSkippedEi
xxe:_GenericTypeParameterBuilder_GetEvent_m2196072623
Yb:invoke_fi
Hig:__ZN6il2cpp6icalls8mscorlib6System10Reflection4Emit11TypeBuilder20create_runtime_classEP27Il2CppReflectionTypeBuilderS7_
E9b:__ZN6b2Body12SetTransformERK6b2Vec2f
o1d:_SslStreamBase_BeginNegotiateHandshake_m2998761743
Wb:invoke_ff
_Rc:_StringBuilder__ctor_m3542181846
S9d:_X509Chain_GetAuthorityKeyIdentifier_m3460155146
Sxg:__ZL51Attribute_t498693649_CustomAttributesCacheGeneratorP21CustomAttributesCache
NJd:_StreamAsyncResult_get_NBytes_m3491482122
gd:_emscripten_glVertexAttrib3f
npe:_Dictionary_2_System_Collections_Generic_ICollectionU3CSystem_Collections_Generic_KeyValuePairU3CTKeyU2CTValueU3EU3E_CopyTo_m4220340169_gshared
oMf:_ReadOnlyCollection_1_get_Item_m2806679117_gshared
end:_PKCS1_Verify_v15_m2792585377
Oic:__ZN20TextRenderingPrivate8TextMesh11ApplyToMeshEv
$_f:_RuntimeServices_GetDispatcher_m1240650646
Jkh:_emscripten_glDrawRangeElements__wrapper
gOb:__ZN14SafeBinaryRead21TransferSTLStyleArrayI10vector_mapIi7Hash128NSt3__14lessIiEENS3_9allocatorINS3_4pairIiS2_EEEEEEEvRT_17TransferMetaFlags
Sgf:_AnchorInfo_get_Substring_m1320966366
mxd:_Array_InternalArray__ICollection_CopyTo_TisUInt32_t985925326_m212976613_gshared
CVa:__Z31MonoBehaviour_CUSTOM_IsInvokingP15ScriptingObjectP15ScriptingString
_wb:__ZL18ProgramUniform3uivPK7ApiGLESjiihPKv
_Mf:_UnityAction_2_BeginInvoke_m1411513831_gshared
WNa:__ZN16MemoryFileSystem4SeekER13FileEntryDatax10FileOrigin
eve:_ConstructorBuilder_get_ReflectedType_m1081966177
vka:__ZN5Image8SetImageEii13TextureFormatb
$R:__ZN17MessageIdentifier21GetRegisteredMessagesEv
Xie:_InternalEnumerator_1_MoveNext_m4160471130_gshared
qZd:_TlsClientSettings_get_Certificates_m3576351313
lCb:__Z14resize_trimmedINSt3__16vectorI4AABB13stl_allocatorIS2_L18MemLabelIdentifier1ELi16EEEEEvRT_j
fwa:__ZN14CachingManager15GetCurrentCacheEv
$be:_Interpreter_GetLastDefined_m965034067
Dcg:__ZN6il2cpp2vm5Array3NewEP11Il2CppClassi
olg:__GLOBAL__sub_I_Image_cpp
L4c:_Decimal_op_Explicit_m3678935617
Ovb:__ZN17FileSystemHandler8SetFlagsER13FileEntryDatajj
j4a:__ZN4gles21InitRenderSurfaceGLESEP7ApiGLESR17RenderSurfaceGLESN2gl17TextureSrgbDecodeE
Due:_AssemblyBuilder_get_IsCompilerContext_m332025933
Occ:__Z41Rigidbody2D_CUSTOM_INTERNAL_CALL_AddForceP15ScriptingObjectRK13Vector2fIcall11ForceMode2D
KBf:__Z50RuntimeInvoker_Boolean_t211005341_Mark_t3725932776PK10MethodInfoPvPS2_
FUc:_Array_double_swapper_m1951199390
Zjb:__ZN13sorted_vectorINSt3__14pairIP14ScriptingClassiEEN10vector_mapIS3_iNS0_4lessIS3_EENS0_9allocatorIS4_EEE13value_compareES9_E21sort_clear_duplicatesEv
jUa:__Z46Register_UnityEngine_RectOffset_get_horizontalv
z1:__ZN18DelayedCallManager8ClearAllEv
Yxf:__Z85RuntimeInvoker_Char_t2778706699_Il2CppObject_Int32U26_t2544866037_CharU26_t1869721389PK10MethodInfoPvPS2_
tMd:_MemberAccessException__ctor_m2631492449
gI:__ZN11UnityEngine15CloudWebService10RestClientINS0_16WWWRestHeaderMapEE17PlayerLoopHandlerEv
Bxe:_GenericTypeParameterBuilder_GetMethods_m1386969194
Z4d:_HttpWebRequest__cctor_m2196070038
wOg:__ZL79Convert_t1097883944_CustomAttributesCacheGenerator_Convert_ToUInt16_m3839993974P21CustomAttributesCache
aBb:__Z22TransferField_NonArrayI18StreamedBinaryReadILb1EE27Converter_SimpleNativeClassI8GUIStyleEEvRK23StaticTransferFieldInfoR31RuntimeSerializationCommandInfoRT0_
Y7d:_X509BasicConstraintsExtension_Decode_m587114879
ee:_Mix_LoadWAV_RW
qgf:_Regex_GetGroupNamesArray_m3739926801
hJf:_Collection_1_System_Collections_IList_Add_m1708617267_gshared
Jx:__ZN4FMOD13ChannelGroupI7setMuteEb
i1e:_GUIContent__ctor_m923375087
fSd:_SequentialSearchPrimeGeneratorBase__ctor_m3197013479
IRd:_BigInteger_GenerateRandom_m2595866790
sDc:__Z64Register_UnityEngine_Networking_UnityWebRequest_get_responseCodev
xpf:__Z132RuntimeInvoker_Void_t2779279689_Int32_t2847414787_Il2CppObject_Il2CppObject_Il2CppObject_Il2CppObject_Il2CppObject_SByte_t2855346064PK10MethodInfoPvPS2_
Zbg:__ZN6il2cpp2vm6Method12HasAttributeEPK10MethodInfoP11Il2CppClass
Cwg:__ZN6il2cpp2gcL12alloc_handleEPNS0_10HandleDataEP12Il2CppObjectb
k9g:__ZThn8_NSt3__114basic_iostreamIcNS_11char_traitsIcEEED0Ev
C0c:_Enumerator__cctor_m3324675076
mV:__Z13InitIndexListR9IndexListj
gL:_UNITY_png_write_flush
mXd:_TlsClientSettings_set_TargetHost_m2074298781
DJe:_ObjectReader_RegisterObject_m190056615
Jrh:b96
ye:_glBlendEquationSeparate
Eoh:_glBindAttribLocation__wrapper
_5d:_ServicePoint_set_Expect100Continue_m285998358
Um:_emscripten_glDeleteVertexArrays
I3a:__ZN13GfxDeviceGLES17SetComputeUniformE12ObjectHandleI18ComputeProgram_TagPvER18ComputeShaderParamjPKv
l9f:__ZN6il2cpp6icalls8mscorlib6System2IO6MonoIO5CloseE12Il2CppIntPtrPi
fNc:_String_System_IConvertible_ToType_m1615588078
jWe:_UIntPtr_ToUInt32_m3683901238
eXd:_CipherSuiteCollection_add_m2351410469
iqe:_Dictionary_2_get_Item_m3848440021_gshared
tqh:_emscripten_glValidateProgram__wrapper
eFa:__ZN25PathNamePersistentManager22InsertPathNameInternalERKNSt3__112basic_stringIcNS0_11char_traitsIcEENS0_9allocatorIcEEEEb
t8e:_CriticalFinalizerObject__ctor_m358100503
He:_emscripten_glUniform3fv
imd:_KeyGeneratedEventHandler_EndInvoke_m1157390179
Vhc:__ZN20TextRenderingPrivate4Font18GetCharacterBitmapERjS1_S1_R5RectTIfERfjifj
ZMa:__ZN20ArchiveStorageHeader41GetSizeRequiredToParseHeaderAndBlocksInfoERKNS_6HeaderE
cTa:__Z39GetDefaultApplicationIdentifierForCachev
Y$e:_AnimatorControllerPlayable_t1023709642_marshal_pinvoke_cleanup
qOd:_MonoType_GetGenericArguments_m3677840611
I5:__ZN9ShaderLab7Program14RemoveVariantsERK13dynamic_arrayI16ShaderKeywordSetLj4EE
YGe:_ProxyAttribute_GetPropertiesForNewContext_m3270579674
W8f:__ZN6il2cpp2vm9Exception20GetArgumentExceptionEPKcS3_
Foh:_glDrawArrays__wrapper
VXb:__Z32TransferEnumWithNameForceIntSizeI14SafeBinaryReadN21BuiltinShaderSettings17BuiltinShaderModeEEvRT_RT0_PKc17TransferMetaFlags
qJd:_Path_IsPathRooted_m3347626992
RCe:_MonoMethodInfo_GetReturnType_m2167465812
wvf:__Z82RuntimeInvoker_Il2CppObject_Il2CppObject_SByte_t2855346064_ExceptionU26_t147620060PK10MethodInfoPvPS2_
Tjc:_UNITY_FT_Match_Size
X8c:_DBNull__ctor_m200724049
pcd:_Enum_System_IConvertible_ToBoolean_m2146376156
C7g:_free
gW:__ZN12ImageFilters17RemoveImageFilterERK11ImageFilter
ZRc:_StringBuilder__ctor_m4031300257
umb:__ZNSt3__16vectorINS_4pairIiiEENS_9allocatorIS2_EEE6insertENS_11__wrap_iterIPKS2_EERS7_
a8b:__ZNK11Rigidbody2D12GetSimulatedEv
oSa:__ZN10SpookyHash5ShortEPKvjPyS2_
dcd:_Double_Parse_m3110783306
ycb:__ZZN15DirectorManager15InitializeClassEvEN39PostLateUpdateDirectorRenderImagestruct7ForwardEv
Gpf:__Z67RuntimeInvoker_Void_t2779279689_Int32_t2847414787_SByte_t2855346064PK10MethodInfoPvPS2_
X5d:_ServicePoint_get_CurrentConnections_m1954016890
jde:_Enumerator__ctor_m218362154
MEc:_HMACSHA512__ctor_m700228953
xHe:_RemotingConfiguration_RegisterWellKnownServiceType_m826541254
Gef:_Match_get_Empty_m170222943
Vm:_glDeleteTransformFeedbacks
A7a:__ZN6Object17IsDerivedFromImpl7Builder3AddERKNSt3__13mapIiP4RTTINS2_4lessIiEE13stl_allocatorINS2_4pairIKiS5_EEL18MemLabelIdentifier6ELi16EEEEj
Ihg:__ZN6il2cpp2os4Time31GetTicks100NanosecondsMonotonicEv
Hbb:__ZN13RuntimeStaticI13ModuleManagerE10InitializeEv
Jdc:__ZN17Physics2DSettings8TransferI18StreamedBinaryReadILb1EEEEvRT_
i6g:__ZNK10__cxxabiv117__class_type_info24process_found_base_classEPNS_19__dynamic_cast_infoEPvi
f7e:_Mathf_t1597001355_marshal_pinvoke
s2f:__ZN6il2cpp2vm13MetadataCache21GetFieldInfoFromIndexEj
$je:_InternalEnumerator_1_System_Collections_IEnumerator_get_Current_m3318240378_gshared
N4a:__GLOBAL__sub_I_ImageFilters_cpp
_Xd:_ClientSessionInfo_get_Id_m277031725
nRf:_UnityWebRequest_GetAudioClip_m1644470838
oGb:__ZL12InvokeMethodI13ProxyTransferEvRK29SerializationCommandArgumentsR31RuntimeSerializationCommandInfo
nL:_UNITY_png_write_PLTE
EJc:_TripleDESCryptoServiceProvider_CreateDecryptor_m3177241196
b3e:_GUISkin_get_horizontalScrollbarRightButton_m3218269270
cQe:_ExecutionContext__ctor_m881535614
Ita:__ZN11TimeManager23VirtualRedirectTransferER13ProxyTransfer
XCb:__Z14resize_trimmedINSt3__16vectorI8GUIStyle13stl_allocatorIS2_L18MemLabelIdentifier1ELi16EEEEEvRT_j
ugc:__ZN5physx14PxLightCpuTaskD2Ev
Ghe:_InternalEnumerator_1_get_Current_m296300717_gshared
r4g:__ZNSt3__112__hash_tableIPK17Il2CppGenericInstN6il2cpp8metadata21Il2CppGenericInstHashENS5_24Il2CppGenericInstCompareENS_9allocatorIS3_EEE8__rehashEj
D3f:_il2cpp_init
gdc:__ZN4PPtrI17PhysicsMaterial2DE8TransferI19StreamedBinaryWriteILb0EEEEvRT_
lOf:_PKCS12_GetBytes_m1971373682
kXb:__ZNSt3__16vectorI20ShadowCasterPartData13stl_allocatorIS1_L18MemLabelIdentifier2ELi16EEE21__push_back_slow_pathIKS1_EEvRT_
Cjg:__ZN6il2cpp6icalls8mscorlib6System9Activator22CreateInstanceInternalEP20Il2CppReflectionType
M0c:_HashKeys_CopyTo_m1861978568
zLg:__ZL58SecurityElement_t2475331585_CustomAttributesCacheGeneratorP21CustomAttributesCache
BId:_MemoryStream_get_Length_m588315720
V9:__ZN13SpeedTreeWind7AdvanceEbd
d0e:_GenericMixerPlayable_t895358297_marshal_pinvoke
D0c:_Enumerator_FailFast_m625309813
HUe:_UInt16_System_IConvertible_ToSingle_m1113917670
$3a:__ZN18GlslGpuProgramGLES19ApplyGpuProgramGLESERK20GpuProgramParametersPKh
LCc:__Z37UnityWebRequest_CUSTOM_InternalSetUrlP15ScriptingObjectP15ScriptingString
lPb:__ZN13ProxyTransfer21TransferSTLStyleArrayINSt3__16vectorIN15QualitySettings14QualitySettingENS1_9allocatorIS4_EEEEEEvRT_17TransferMetaFlags
XZc:_SynchronizedArrayListWrapper_get_IsReadOnly_m2563021443
rJb:__Z15Transfer_StringI18StreamedBinaryReadILb0EELb0EEvRK29SerializationCommandArgumentsR31RuntimeSerializationCommandInfo
Ibb:__ZNSt3__16vectorIN9ShaderLab14ParserPropertyENS_9allocatorIS2_EEE6assignIPS2_EENS_9enable_ifIXaasr21__is_forward_iteratorIT_EE5valuesr16is_constructibleIS2_NS_15iterator_traitsIS9_E9referenceEEE5valueEvE4typeES9_S9_
Uw:__ZN12SoundManagerC2Ev
Gnc:_UNITY_tt_face_free_name
t0:__Z23AddRenderLoopTempBufferP10RenderLoop24BuiltinRenderTextureTypeP13RenderTexture
Po:FUNCTION_TABLE_fidi
Gca:__ZN14SpriteRenderer23VirtualRedirectTransferER19StreamedBinaryWriteILb0EE
zph:_emscripten_glGetShaderiv__wrapper
rUa:__Z23Gradient_CUSTOM_CleanupP15ScriptingObject
wG:__ZNK11UnityEngine15CloudWebService14JsonBaseObject7IsEmptyEv
Yyb:__ZN18UnityPropertySheet11UnityTexEnv8TransferI19StreamedBinaryWriteILb0EEEEvRT_
l2c:_Console__cctor_m3994882451
Xgg:_GC_make_descriptor
iH:__ZN11UnityEngine15CloudWebService14JsonBaseObject11AddKeyValueIyEEbPKcT_
Eg:_ceil
nod:_ContentInfo_set_Content_m3455581589
M3f:_il2cpp_array_new
IB:__ZN14AudioBehaviour7PRODUCEE18MemLabelIdentifier18ObjectCreationMode
oLd:_TextWriter__cctor_m2298057604
vVd:_Alert__ctor_m2712587944
kvg:__ZN6il2cpp2vmL11IsParameterEP12Il2CppObject
zA:__ZN4FMOD3DSP8getInputEiPPS0_PPNS_13DSPConnectionE
Nkb:__ZN20dynamic_block_vectorI14FileIdentifierE5clearEv
NC:__ZN13AudioListenerD2Ev
gkc:_UNITY_FT_Done_Library
sQb:__ZN18StreamedBinaryReadILb1EE19TransferSTLStyleMapINSt3__13setI4PPtrI10MonoScriptENS2_4lessIS6_EE13stl_allocatorIS6_L18MemLabelIdentifier76ELi16EEEEEEvRT_17TransferMetaFlags
jwd:_Array_InternalArray__ICollection_Add_TisLabelData_t1395746974_m3262815275_gshared
T$d:_RecordProtocol_encryptRecordFragment_m3671059907
Xsd:_Array_InternalArray__ICollection_Remove_TisKeyValuePair_2_t2686855369_m230398758_gshared
Vnf:__Z35RuntimeInvoker_TypeCode_t2164429820PK10MethodInfoPvPS2_
p8b:__Z16b2CollideCirclesP10b2ManifoldPK13b2CircleShapeRK11b2TransformS3_S6_
bC:__ZN12AudioManager8TransferI13ProxyTransferEEvRT_
sRf:_UnityWebRequest_Put_m2257537347
yWe:_UnhandledExceptionEventArgs__ctor_m764060079
Eob:__ZL8MainLoopv
gne:_Transform_1_Invoke_m2434466950_gshared
QXd:_TlsServerHelloDone__ctor_m911934774
jeg:__ZN6il2cpp2os11Environment16GetHomeDirectoryEv
gh:__scanString
HCc:__Z36UnityWebRequest_Get_Custom_PropErrorP15ScriptingObject
Khc:__Z26CleanupTextRenderingModulev
Zve:_DynamicMethod_get_CallingConvention_m3873003882
ODf:__Z52RuntimeInvoker_TypeTag_t1738289281_Int32_t2847414787PK10MethodInfoPvPS2_
Rna:__ZN13RenderTexture23VirtualRedirectTransferER19StreamedBinaryWriteILb0EE
d7:__ZN9ShaderLab16ParserProperties16AddRangePropertyEPKcS2_RKNSt3__16vectorINS3_12basic_stringIcNS3_11char_traitsIcEENS3_9allocatorIcEEEENS8_ISA_EEEEfff
I3d:_NameObjectCollectionBase__ctor_m355604501
MGd:_FileStream__ctor_m3657053030
Ah:___cxa_guard_acquire
sra:__ZN9TransformC2E18MemLabelIdentifier18ObjectCreationMode
Eh:_truncate
$ff:_QuickSearch_Search_m3059452826
xma:__ZN8Renderer21RendererBecameVisibleEv
dye:_GenericTypeParameterBuilder_get_IsGenericParameter_m633698693
hjg:__ZN6il2cpp5utils6Memory4FreeEPv
QRa:__ZN10MemoryPool16StaticInitializeEPv
yah:__ZNSt3__19__num_putIcE23__widen_and_group_floatEPcS2_S2_S2_RS2_S3_RKNS_6localeE
Y:Math_atan
gbg:__ZN6il2cpp5utils11StringUtils11Utf16ToUtf8EPKti
Yr:__ZNK10SampleClip11GetResourceEv
Bcf:_Identity_get_ObjectUri_m2443444253
pJb:__ZL26Transfer_SimpleNativeClassI18StreamedBinaryReadILb0EE8GUIStyleLb0EEvRK29SerializationCommandArgumentsR31RuntimeSerializationCommandInfo
yLd:_TextWriter_Write_m212256533
oLb:__Z16Transfer_BuiltinI10Matrix4x4f19StreamedBinaryWriteILb0EELb0EEvRK29SerializationCommandArgumentsR31RuntimeSerializationCommandInfo
cwc:__ZNSt3__16__treeINS_12__value_typeIN20TextRenderingPrivate7FontRefEP11FT_FaceRec_EENS_19__map_value_compareIS3_S6_NS_4lessIS3_EELb1EEENS_9allocatorIS6_EEE13__lower_boundIS3_EENS_15__tree_iteratorIS6_PNS_11__tree_nodeIS6_PvEEiEERKT_SJ_SJ_
vMc:_Single_System_IConvertible_ToInt16_m2476492917
pgc:__GLOBAL__sub_I_CmEventProfiler_cpp
lHg:__ZL70TypeLibImportClassAttribute_t3475535446_CustomAttributesCacheGeneratorP21CustomAttributesCache
cIf:_List_1_get_Item_m3808740495_gshared
z8d:_X509Certificate2_ToString_m2515669489
Jwc:__ZN19UnityConnectServiceD0Ev
SLa:__ZNK17ArchiveFileSystem8IsHiddenERK13FileEntryData
ti:_JS_Cursor_SetCursorString
RIf:_Enumerator_System_Collections_IEnumerator_Reset_m3054975473_gshared
MRe:_WaitCallback_Invoke_m3979426365
fDc:__Z63Register_UnityEngine_Networking_UnityWebRequest_InternalDestroyv
ing:__ZN21InterfaceFuncInvoker1IaP12Il2CppObjectE6InvokeEjP11Il2CppClassPvS1_
FSc:_UnicodeEncoding_GetCharCount_m515156452
UXb:__ZN4PPtrI23ShaderVariantCollectionE8TransferI14SafeBinaryReadEEvRT_
IDb:__ZNSt3__16vectorIh13stl_allocatorIhL18MemLabelIdentifier1ELi16EEE6assignINS_11__wrap_iterIPhEEEENS_9enable_ifIXaasr21__is_forward_iteratorIT_EE5valuesr16is_constructibleIhNS_15iterator_traitsISA_E9referenceEEE5valueEvE4typeESA_SA_
kD:__ZN11AudioModule27IsFormatSupportedByPlatformEPKc
Jjc:_UNITY_FT_Render_Glyph
Qxd:_Array_InternalArray__Insert_TisLabelFixup_t320573180_m2727721320_gshared
GNc:_String_Trim_m1469603388
IKf:_Collection_1_RemoveItem_m609648389_gshared
eob:__ZNSt3__16__treeINS_12basic_stringIcNS_11char_traitsIcEENS_9allocatorIcEEEENS_4lessIS6_EENS4_IS6_EEE12__find_equalIS6_EERPNS_16__tree_node_baseIPvEESG_RKT_
kic:__ZN20TextRenderingPrivate4Font13RegisterClassEv
hfc:__Z14b2PairLessThanRK6b2PairS1_
nib:__ZN15dense_hashtableINSt3__14pairIKiiEEi21InstanceIDHashFunctorN14dense_hash_mapIiiS4_NS0_8equal_toIiEE13stl_allocatorIS3_L18MemLabelIdentifier1ELi16EEE9SelectKeyES7_SA_E14squash_deletedEv
QUa:__Z48Register_UnityEngine_AsyncOperation_set_priorityv
vpa:__ZN9Texture2D5ResetEv
rea:__ZN13DrawImmediateC2ER9GfxDevice
$Md:_MonoCustomAttrs_GetCustomAttributesData_m954311775
Ccc:__ZN15b2WheelJointDef10InitializeEP6b2BodyS1_RK6b2Vec2S4_
O2g:__ZNSt3__112__hash_tableINS_17__hash_value_typeINS_4pairIPK9FieldInfoP11Il2CppClassEEP21Il2CppReflectionFieldEENS_22__unordered_map_hasherIS8_SB_17ReflectionMapHashIS8_ELb1EEENS_21__unordered_map_equalIS8_SB_19ReflectionMapEqualsIS8_ELb1EEEN6il2cpp2gc9AllocatorISB_EEE16__construct_nodeIJNS2_IKS8_SA_EEEEENS_10unique_ptrINS_11__hash_nodeISB_PvEENS_22__hash_node_destructorINSM_ISV_EEEEEEDpOT_
W8:__ZNK25ThreadsafeLinearAllocator22GetAllocatedMemorySizeEv
I2a:__ZN13GfxDeviceGLES11CopyTextureE9TextureIDS0_
w9:__ZN15DirectorManager14ConnectionPool12SwitchBucketEP14ConnectionList
vee:_List_1_NormalizeIndex_m2637680786_gshared
qrd:_AppDomain_InternalGetDefaultContext_m3839071361
tkf:__Z31RuntimeInvoker_Void_t2779279689PK10MethodInfoPvPS2_
vdd:_EventArgs__cctor_m2731205203
Gve:_DynamicMethod_Finalize_m2361736761
_z:__ZN4FMOD7Channel11set3DSpreadEf
Qjg:__ZN6il2cpp2os6Memory14AlignedReAllocEPvjj
ea:Math_fround
Mtc:_pshinter_get_t1_funcs
HGe:_ObjRef_set_TypeInfo_m752870763
oLg:__ZL61WindowsAccountType_t1400432841_CustomAttributesCacheGeneratorP21CustomAttributesCache
zTa:__Z72Register_UnityEngine_AssetBundleCreateRequest_DisableCompatibilityChecksv
$wb:__ZL18ProgramUniform4uivPK7ApiGLESjiihPKv
O8a:__ZNSt3__16vectorIfNS_9allocatorIfEEE21__push_back_slow_pathIKfEEvRT_
O5e:_GUIStyleState_Cleanup_m3584086848
Zrf:__Z77RuntimeInvoker_Il2CppObject_Il2CppObject_Il2CppObject_ExceptionU26_t147620060PK10MethodInfoPvPS2_
M6c:_DateTime_System_IConvertible_ToDateTime_m1478929736
v_d:_HandshakeMessage_Compare_m1246403066
seh:__ZNKSt3__17codecvtIwc11__mbstate_tE5do_inERS1_PKcS5_RS5_PwS7_RS7_
_ja:__ZN10builtintex21GetAttenuationTextureEv
no:FUNCTION_TABLE_viiiiiiiiiiiiiii
hOb:__ZN14SafeBinaryRead21TransferSTLStyleArrayI10vector_mapI7Hash128S2_NSt3__14lessIS2_EENS3_9allocatorINS3_4pairIS2_S2_EEEEEEEvRT_17TransferMetaFlags
fOe:_HMAC_set_BlockSizeValue_m2390739579
pjg:__ZN6il2cpp6icalls8mscorlib6System9Threading5Mutex21ReleaseMutex_internalE12Il2CppIntPtr
ktf:__Z80RuntimeInvoker_Void_t2779279689_Int64_t2847414882_Il2CppObject_Int32_t2847414787PK10MethodInfoPvPS2_
LZe:_Component_GetComponentInChildren_m1899663946
Bjd:_ArgumentException__ctor_m732321503
zHd:_FileStream_BeginRead_m4009855887
QMd:_MonoCustomAttrs_GetPseudoCustomAttributes_m3877754150
Dx:__ZN4FMOD13ChannelGroupI8getGroupEiPPNS_12ChannelGroupE
d2:__Z20IntersectionAABBAABBRK10MinMaxAABBS1_PS_
s7c:_DateTime_Equals_m1479384337
sAc:__ZN13RuntimeStaticI20HardwareInfoReporterE16StaticInitializeEPv
CGg:__ZL76SatelliteContractVersionAttribute_t1109503379_CustomAttributesCacheGeneratorP21CustomAttributesCache
Jzg:__ZL72Enum_t2778772662_CustomAttributesCacheGenerator_Enum_GetName_m3333121265P21CustomAttributesCache
FFc:_RC2_set_KeySize_m3085280342
DHc:_RSAPKCS1SignatureDeformatter__ctor_m3465174692
u3e:_GUIStyle_get_normal_m42729964
CP:__Z22GetGameManagerIfExistsi
Ob:invoke_viifff
Ewa:__Z22DestroyObjectHighLevelP6Objectb
s4f:_il2cpp_field_get_name
Gbc:__ZNK12b2MouseJoint10GetAnchorBEv
T8b:__ZNK11b2EdgeShape5CloneEP16b2BlockAllocator
u$c:_CollectionBase_OnValidate_m2432491880
QH:__ZN9rapidjson6WriterINS_19GenericStringBufferINS_4UTF8IcEENS_12CrtAllocatorEEES3_S3_S4_E6PrefixENS_4TypeE
DMg:__ZL48Mutex_t3540010562_CustomAttributesCacheGeneratorP21CustomAttributesCache
l7f:__ZN6il2cpp6icalls8mscorlib6System9Threading6Thread16SetName_internalEP12Il2CppThreadP12Il2CppString
Mj:_glBeginTransformFeedback
g3:__ZN18JobBatchDispatcherC2E11JobPriorityi
p0b:__ZN8GUIStyle14GetBuiltinFontEv
VUe:_UInt16_TryParse_m3401065021
hNe:_DESTransform_SetKey_m2023182447
AQc:_EncoderExceptionFallbackBuffer__ctor_m2397415515
vMg:__ZL57EventResetMode_t1147836187_CustomAttributesCacheGeneratorP21CustomAttributesCache
pje:_InternalEnumerator_1__ctor_m3415441081_gshared
uzd:_Dictionary_2_Do_CopyTo_TisKeyValuePair_2_t816448501_TisIl2CppObject_m2677832_gshared
mkf:_UriParser__cctor_m1205478205
uQg:__ZL56WeakReference_t2193916456_CustomAttributesCacheGeneratorP21CustomAttributesCache
ovg:__ZN6il2cpp2osL19StatToFileAttributeERKNSt3__112basic_stringIcNS1_11char_traitsIcEENS1_9allocatorIcEEEER4statPSA_
Ibf:_Context_GetServerContextSinkChain_m2728947955
OV:__Z30RegisterClass_GraphicsSettingsv
nZa:__ZN10systeminfo21GetTemporaryCachePathEv
wy:__ZN4FMOD4DSPI9setActiveEb
fDg:__ZL64IDictionaryEnumerator_t1541724277_CustomAttributesCacheGeneratorP21CustomAttributesCache
Bsf:__Z42RuntimeInvoker_StreamingContext_t986364934PK10MethodInfoPvPS2_
dqd:_X509ExtensionCollection__ctor_m2030423328
_dc:__ZNK20b2SeparationFunction17FindMinSeparationEPiS0_f
M4b:__ZN9rapidjson12PrettyWriterI16TempBufferWriterNS_4UTF8IcEES3_13JSONAllocatorE12PrettyPrefixENS_4TypeE
K4g:__ZNSt3__112__hash_tableINS_17__hash_value_typeIPK22Il2CppGenericParameterP11Il2CppClassEENS_22__unordered_map_hasherIS4_S7_NS_4hashIS4_EELb1EEENS_21__unordered_map_equalIS4_S7_NS_8equal_toIS4_EELb1EEENS_9allocatorIS7_EEE6rehashEj
N6a:_realize_virt_arrays
Nlf:__Z109RuntimeInvoker_Boolean_t211005341_Il2CppObject_SByte_t2855346064_Int16U26_t2863031071_ExceptionU26_t147620060PK10MethodInfoPvPS2_
fnb:__ZN12ScriptMapper8TransferI14SafeBinaryReadEEvRT_
gvc:_cf2_hintmap_map
NZd:_TlsClientHello_ProcessAsSsl3_m4013369932
JLf:_ReadOnlyCollection_1_System_Collections_IList_set_Item_m3941286560_gshared
Qsc:_tt_size_select
rSb:__ZN12IFileAdapterD0Ev
tpe:_Dictionary_2_get_Count_m655926012_gshared
CZd:_SslHandshakeHash__ctor_m1720849178
CEb:__ZN15SerializeTraitsI5RectTIfEE8TransferI14SafeBinaryReadEEvRS1_RT_
Dnd:_RSAManaged_GetPaddedValue_m213320097
Zph:_glDeleteShader__wrapper
skc:_UNITY_FT_Raccess_Get_DataOffsets
ssg:__ZN18VirtActionInvoker2IP15Uri_t2776692961PP30UriFormatException_t1145000641E6InvokeEjPvS1_S4_
ocd:_Enum__cctor_m4092380953
bca:__Z15SkinMeshMathLibR12SkinMeshInfo
QIe:_ObjectRecord_get_IsRegistered_m3870447238
tLc:_SecurityElement_IsValidText_m2889048252
Bhg:__ZN6il2cpp6icalls8mscorlib6System7Runtime15InteropServices8GCHandle15GetTargetHandleEP12Il2CppObjectii
Tk:_unsetenv
kdd:_Environment_GetOSVersionString_m2885926456
xQe:_Mutex_CreateMutex_internal_m62389004
SZb:__ZN13RuntimeStaticI11MessageLoopE16StaticInitializeEPv
NFa:__ZN17PersistentManager18LoadFileCompletelyERKNSt3__112basic_stringIcNS0_11char_traitsIcEENS0_9allocatorIcEEEE
_y:__ZN4FMOD7SystemI4initEijPv
kmd:_KeyBuilder_Key_m180785233
Oaa:__ZN10DynamicVBOC2Ev
T4d:_HttpRequestCreator__ctor_m2335588533
SY:__ZN15RenderNodeQueueC2E18MemLabelIdentifier
l3g:__ZN6il2cpp6icalls8mscorlib6SystemL8IsPublicEPK12PropertyInfo
weg:_GC_is_black_listed
kE:__ZN19CloudServiceHandler17StartEventHandlerERK8UnityStrii
Efd:_DateTimeFormatInfo__ctor_m594580360
EZ:__Z17GetRenderSettingsv
x$f:_U3CGetExtensionMethodsU3Ec__IteratorC_System_Collections_Generic_IEnumerableU3CSystem_Reflection_MethodInfoU3E_GetEnumerator_m3662757521
OHb:__Z16Transfer_BuiltinIj17RemapPPtrTransferLb0EEvRK29SerializationCommandArgumentsR31RuntimeSerializationCommandInfo
zKc:_Evidence_get_HostEvidenceList_m4094307694
udg:__ZN6il2cpp6icalls8mscorlib6System11Environment12get_PlatformEv
Kkd:_SequentialSearchPrimeGeneratorBase_IsPrimeAcceptable_m465227145
Y2b:__Z42Register_UnityEngine_GUIStyle_set_wordWrapv
$nc:_UNITY_FT_Destroy_Class_tt_driver_class
Fp:__ZN9Behaviour6UpdateEv
wJf:_Collection_1_Insert_m1208073509_gshared
Wjg:__ZN6il2cpp6icalls8mscorlib6System7Runtime8Remoting16RemotingServices16GetVirtualMethodEP20Il2CppReflectionTypeP22Il2CppReflectionMethod
Foe:_ValueCollection_System_Collections_Generic_ICollectionU3CTValueU3E_Clear_m3578445832_gshared
swf:__Z121RuntimeInvoker_Void_t2779279689_Int32_t2847414787_Int32_t2847414787_Int32_t2847414787_Int32_t2847414787_Int32_t2847414787PK10MethodInfoPvPS2_
hde:_IntervalCollection_CopyTo_m1005574359
TDc:__ZNSt3__16__treeINS_12__value_typeINS_12basic_stringIcNS_11char_traitsIcEENS_9allocatorIcEEEES7_EENS_19__map_value_compareIS7_S8_N6detail7ci_lessELb1EEENS5_IS8_EEE4findIS7_EENS_15__tree_iteratorIS8_PNS_11__tree_nodeIS8_PvEEiEERKT_
Fvf:__Z74RuntimeInvoker_DateTime_t339033936_DateTime_t339033936_TimeSpan_t763862892PK10MethodInfoPvPS2_
Hhe:_InternalEnumerator_1__ctor_m767389920_gshared
gKf:_Collection_1_set_Item_m2524125767_gshared
rMc:_Single_System_IConvertible_ToChar_m1479685867
wgb:__ZN15dense_hashtableINSt3__14pairIKPK17RenderSurfaceBaseP13RenderTextureEES4_N16RenderTextureMap11HashFunctorEN14dense_hash_mapIS4_S7_SA_NS0_8equal_toIS4_EE13stl_allocatorIS8_L18MemLabelIdentifier65ELi16EEE9SelectKeyESD_SG_E15insert_noresizeERKS8_
Cbh:__ZNKSt3__18time_getIwNS_19istreambuf_iteratorIwNS_11char_traitsIwEEEEE12__get_minuteERiRS4_S4_RjRKNS_5ctypeIwEE
Fed:_CompareInfo_Equals_m3684038010
X3d:_NameObjectCollectionBase_FindFirstMatchedItem_m3932570092
ONb:__ZN30RuntimeInitializeOnLoadManager9ClassInfo8TransferI14SafeBinaryReadEEvRT_
Rl:_emscripten_glGetShaderInfoLog
wkf:__Z32RuntimeInvoker_Int32_t2847414787PK10MethodInfoPvPS2_
Djc:_UNITY_ft_glyphslot_set_bitmap
$8b:__ZN14b2PolygonShape3SetEPK6b2Vec2i
rVf:_HitInfo_Compare_m4083757090
ryd:_Array_InternalArray__set_Item_TisLink_t2496691359_m1779557242_gshared
Xhd:_SimpleCollator_GetTailContraction_m31293987
Img:__ZN21InterfaceFuncInvoker1IiP12Il2CppObjectE6InvokeEjP11Il2CppClassPvS1_
$l:_glUniform1i
mFc:_MD5CryptoServiceProvider_Initialize_m4227557466
zXd:_HandshakeMessage_Process_m1242505358
Ija:__ZN8DrawUtil15DrawTextMeshRawERK14ChannelAssignsR4MeshR23DefaultMeshVertexFormat
PKc:_SecurityElement__ctor_m2591154807
DBd:_NumberFormatInfo_get_CurrencySymbol_m4206521017
GF:__ZN11UnityEngine15CloudWebService16SessionContainer21GetJsonArrayDataBlockEjRK8UnityStrS4_RS2_Pj
ZX:__Z29FindReflectionProbeFromAnchorP9TransformRK4AABBRS1_RsS5_
ATc:_Array_GetValue_m612327306
zhf:_Expression_GetFixedWidth_m3994281404
SRb:__ZN14SafeBinaryRead21TransferSTLStyleArrayI13dynamic_arrayI13BoneInfluenceLj16EEEEvRT_17TransferMetaFlags
dtc:_Read_CVT_Stretched
N2a:__ZN13GfxDeviceGLES20UpdateSkinPoseBufferEP17GPUSkinPoseBufferPK10Matrix4x4fi
Zwa:__Z14SetPlayerPause11PlayerPauseb
Bid:_SimpleCollator_IsSuffix_m74058015
E0e:_GUI_set_nextScrollStepTime_m3820512796
Oqh:_freelocale__wrapper
Qjh:_glCompressedTexSubImage3D__wrapper
ljd:_BigInteger__cctor_m2648738004
ckf:_UriParser_get_DefaultPort_m3728184791
a_:__ZN18ShadowMapJobHeaderD0Ev
m_:__ZN15SkyboxGenerator18GetSixFaceSkyboxVBEv
hDg:__ZL60IHashCodeProvider_t2093096743_CustomAttributesCacheGeneratorP21CustomAttributesCache
ou:__ZN15AudioReverbZone7CleanupEv
$Kd:_SynchronizedWriter_Write_m1449099100
FYf:_DefaultComparer_GetHashCode_m2684887512_gshared
yYc:_ArrayList_Contains_m3069487426
Kra:__ZN9Transform19BroadcastMessageAnyERK17MessageIdentifierR11MessageData
a9b:__ZNK14b2PolygonShape9TestPointERK11b2TransformRK6b2Vec2
Mbb:__ZNSt3__16vectorIPN9ShaderLab14ParserBasePassENS_9allocatorIS3_EEE6assignIPS3_EENS_9enable_ifIXaasr21__is_forward_iteratorIT_EE5valuesr16is_constructibleIS3_NS_15iterator_traitsISA_E9referenceEEE5valueEvE4typeESA_SA_
nDf:__Z76RuntimeInvoker_Void_t2779279689_Int32_t2847414787_ContactPoint2D_t3963746319PK10MethodInfoPvPS2_
Ild:_CryptoConvert_ToCapiPrivateKeyBlob_m1139689325
ufc:__ZN15b2QueryCallbackD2Ev
xL:_UNITY_png_write_bKGD
O3e:_GUIStyleState_ProduceGUIStyleStateFromDeserialization_m243465942
ZUb:__ZN6prcoreL26RemapGenericIntegerToFloatI17TexFormatARGB888818TexFormatARGBFloatEEvPKNS_9InnerInfoE
nra:__ZN15TextureSettings14GetAnisoLimitsERiS0_
hoh:_emscripten_glCompressedTexSubImage2D__wrapper
Tag:__ZN6il2cpp2vm5Field8SetValueEP12Il2CppObjectP9FieldInfoPv
XJ:_UNITY_png_set_crc_action
lPc:_String_CharCopyReverse_m2265296522
$vd:_Array_InternalArray__ICollection_Add_TisDateTime_t339033936_m2533807477_gshared
cng:__ZN21InterfaceFuncInvoker2IiP12Il2CppObjectS1_E6InvokeEjP11Il2CppClassPvS1_S1_
XNe:_HashAlgorithm_ComputeHash_m1325366732
I9b:__ZN16b2ContactManager7CollideEv
rhb:__ZN12ImmediatePtrI9TransformE8TransferI18StreamedBinaryReadILb0EEEEvRT_
iug:__ZN6il2cpp2vmL29SocketPollingThreadEntryPointEPv
fFf:_KeyValuePair_2_ToString_m491888647_gshared
Had:_Delegate_return_type_match_m2221559117
IJb:__ZN10Matrix4x4f8TransferI18StreamedBinaryReadILb0EEEEvRT_
Lwg:__ZN6il2cpp2os5posix13PosixAutoLockD2Ev
eHd:_FileStream_GetSecureFileName_m1473113911
Tz:__ZN4FMOD7Channel19getReverbPropertiesEP29FMOD_REVERB_CHANNELPROPERTIES
Fyb:__ZNSt3__127__insertion_sort_incompleteIRPFbRKNS_4pairIN9ShaderLab16FastPropertyNameEN18UnityPropertySheet11UnityTexEnvEEES8_EPS6_EEbT0_SD_T_
JXe:_LogCallback__ctor_m286543475
RQd:_OrdinalComparer_GetHashCode_m545733148
ylf:__Z141RuntimeInvoker_Boolean_t211005341_Il2CppObject_Int32_t2847414787_Il2CppObject_SByte_t2855346064_UInt64U26_t1186775899_ExceptionU26_t147620060PK10MethodInfoPvPS2_
rJd:_Path_CleanPath_m233704309
mZg:__ZL85GUIStyle_t1006925219_CustomAttributesCacheGenerator_GUIStyle_set_fontSize_m3621764235P21CustomAttributesCache
XCa:__Z12CancelInvokeR13MonoBehaviourR11ICallString
m3f:__ZN6il2cpp6icalls8mscorlib6System8MonoType13GetInterfacesEP20Il2CppReflectionType
esg:__ZN23InterfaceActionInvoker3IibbE6InvokeEjP11Il2CppClassPvibb
y3e:_SkinChangedDelegate_Invoke_m3141787208
qXe:_WeakReference_get_Target_m2183973397
kdg:__ZN6il2cpp2os6Thread22SetNativeThreadCleanupEPFvPvE
aJb:__Z33EmitSerializationCommandsForFieldI18StreamedBinaryReadILb0EEEvR18TransferField_InfoR32SerializationCommandQueueBuilderRP20AllowNameConversions
R3f:_il2cpp_class_from_system_type
jG:__ZN11UnityEngine15CloudWebService13WWWRestClient6IsDoneEv
vYe:_PCMSetPositionCallback_BeginInvoke_m3959339032
cCe:_MonoEvent__ctor_m1732756001
gYd:_ClientSessionInfo__cctor_m1522715144
KM:_unity_z_crc32
fUb:__ZN6prcoreL17RemapGenericFloatI18TexFormatRGBAFloat16TexFormatRGFloatEEvPKNS_9InnerInfoE
jla:__ZNK16LightmapSettings25GetClassIDVirtualInternalEv
pwg:__ZN6il2cpp2vm9Exception17RaiseCOMExceptionEi
foe:_ValueCollection_System_Collections_Generic_ICollectionU3CTValueU3E_Clear_m3824389796_gshared
d3f:__ZN6il2cpp6icalls8mscorlib6System8MonoType8get_NameEP20Il2CppReflectionType
Nbb:__ZNSt3__16vectorINS_4pairINS_12basic_stringIcNS_11char_traitsIcEENS_9allocatorIcEEEES7_EENS5_IS8_EEE21__push_back_slow_pathIKS8_EEvRT_
sea:__ZN13DrawImmediate6CreateEv
T4f:_il2cpp_monitor_exit
KJc:_X509Certificate__ctor_m2228518780
Xdf:_MethodCall_get_MethodSignature_m3505289450
RDb:__ZL12InvokeMethodI14SafeBinaryReadEvRK29SerializationCommandArgumentsR31RuntimeSerializationCommandInfo
eFc:_SymmetricAlgorithm_Clear_m421176084
kZc:_ArrayListWrapper_Remove_m2062487284
cqd:_X509Extension_ToString_m633627125
Yo:FUNCTION_TABLE_ff
qwe:_EnumBuilder_get_Namespace_m467255932
i4g:__ZNSt3__16__treeINS_12__value_typeIPFvvEPK10MethodInfoEENS_19__map_value_compareIS3_S7_NS_4lessIS3_EELb1EEENS_9allocatorIS7_EEE12__find_equalIS7_EERPNS_16__tree_node_baseIPvEESK_RKT_
_o:FUNCTION_TABLE_fi
dHc:_RSACryptoServiceProvider_Common_m3809083019
_Lg:__ZL103StringBuilder_t3822575854_CustomAttributesCacheGenerator_StringBuilder_AppendFormat_m259793396____args2P21CustomAttributesCache
kkg:__ZN6il2cpp2vm16GenericContainer19GetGenericParameterEPK22Il2CppGenericContainert
o_c:_SynchronizedArrayListWrapper_Sort_m3679045294
YAb:__Z13TransferFieldI18StreamedBinaryReadILb1EELb0E27Converter_SimpleNativeClassI17AnimationCurveTplIfEEEvRK23StaticTransferFieldInfoR31RuntimeSerializationCommandInfoRT1_
$c:_emscripten_glGetAttribLocation
rSd:_BigInteger_op_Division_m1824126044
oA:__ZN4FMOD12ChannelGroup14getParentGroupEPPS0_
c0f:_GameSetup_Update_m1299675138
dd:_emscripten_set_blur_callback
Dlb:__Z29StdTemplateConversionFunctionIsxEbPvR14SafeBinaryRead
cJa:__ZN19ShaderPropertySheet24SetTextureScaleAndOffsetERKN9ShaderLab16FastPropertyNameE8Vector2fS4_
wsf:__Z47RuntimeInvoker_TimeSpan_t763862892_Il2CppObjectPK10MethodInfoPvPS2_
bmd:_DSAManaged_ImportParameters_m3610982722
gha:__ZN9Scripting35ErrorMessageForUnsupportedEnumFieldEP14ScriptingField
tka:__ZNK14ImageReference9ClipImageEiiii
X0b:__Z25Event_Get_Custom_PropTypeP15ScriptingObject
Hof:__Z115RuntimeInvoker_Il2CppObject_Il2CppObject_Int32_t2847414787_Il2CppObject_Int32_t2847414787_Il2CppObject_Il2CppObjectPK10MethodInfoPvPS2_
Cua:__ZN10Matrix4x4f30SetPositionAndOrthoNormalBasisERK8Vector3fS2_S2_S2_
lpg:__ZN16VirtFuncInvoker1IP17Match_t3797657504iE6InvokeEjPvi
nUa:__Z36CullingGroup_CUSTOM_FinalizerFailureP15ScriptingObject
xV:__ZN12FlareManager6UpdateEv
klh:_glColorMask__wrapper
i4d:_NameValueCollection_Get_m2840953239
iBc:__ZN22DownloadHandlerTextureD0Ev
qbe:_CaptureCollection_get_SyncRoot_m277260698
v8f:__ZN6il2cpp6icalls8mscorlib6System4Type29GetGenericTypeDefinition_implEP20Il2CppReflectionType
Ldd:_Exception_GetObjectData_m1945031808
gTd:_ASN1_get_Value_m390067040
vKc:_ApplicationTrust__ctor_m3384937791
Tp:__ZN18StreamedBinaryReadILb1EE8TransferI8Vector3fEEvRT_PKc17TransferMetaFlags
Y8c:_DBNull__cctor_m2492573853
H5b:__ZN10Collider2D8TransferI18StreamedBinaryReadILb1EEEEvRT_
rEd:_Int32_ToString_m4261017954
jmd:_KeyBuilder_get_Rng_m4045185360
jYc:_ArrayList_ThrowNewArgumentOutOfRangeException_m2507388507
lgd:_U24ArrayTypeU242048_t335980375_marshal_pinvoke
Erg:__ZN18VirtActionInvoker2IffE6InvokeEjPvff
s7g:_strtoul
Qd:_fopen
_re:_Dictionary_2_OnDeserialization_m1638301735_gshared
zAd:_Array_InternalArray__get_Item_TisParameterModifier_t500203470_m2808893410_gshared
fmh:_glFramebufferTexture2D__wrapper
mkg:__ZN6il2cpp6icalls8mscorlib6System7Runtime8Remoting7Proxies9RealProxy27InternalGetTransparentProxyEP12Il2CppObjectP12Il2CppString
Lme:_ShimEnumerator_get_Current_m2040833922_gshared
Ubg:__ZN6il2cpp2vm6Method10IsInflatedEPK10MethodInfo
DYe:_AudioConfigurationChangeHandler_EndInvoke_m218260925
Keg:_GC_remove_header
LYe:_Camera_get_nearClipPlane_m4074655061
Kje:_InternalEnumerator_1_Dispose_m774844594_gshared
TRf:_UnityWebRequest_InternalAbort_m2162080680
P4d:_FtpWebRequest__cctor_m2914795070
fag:__ZN6il2cpp2vm6Object6IsInstEP12Il2CppObjectP11Il2CppClass
mKg:__ZL50HMACMD5_t3299785072_CustomAttributesCacheGeneratorP21CustomAttributesCache
nkd:_Kernel_RightShift_m2481442105
D4g:__ZThn8_NSt3__118basic_stringstreamIcNS_11char_traitsIcEENS_9allocatorIcEEED0Ev
$_g:__ZL100SendMouseEvents_t2490149283_CustomAttributesCacheGenerator_SendMouseEvents_SetMouseMoved_m2590456785P21CustomAttributesCache
xMb:__Z19TransferField_ArrayI19StreamedBinaryWriteILb0EE27Converter_UnityEngineObjectEvRK23StaticTransferFieldInfoR31RuntimeSerializationCommandInfoRT0_
_Ie:_FormatterConverter_Convert_m3073452726
wqg:__ZN21InterfaceFuncInvoker1IiP12MemberInfo_tE6InvokeEjP11Il2CppClassPvS1_
YYe:_Camera_GetAllCameras_m3771867787
E_b:__ZN13RuntimeStaticI23MeshVertexFormatManagerE16StaticInitializeEPv
oxd:_Array_InternalArray__ICollection_CopyTo_TisUriScheme_t3266528785_m630562344_gshared
Mya:__ZNK22GenericPropertyBinding15GenerateBindingERK8UnityStrbRN11UnityEngine9Animation14GenericBindingE
Hze:_ParameterBuilder_get_Position_m388196207
omc:_cf2_hintmask_getMaskPtr
lOa:__ZN16MemoryFileSystem11MoveToTrashER13FileEntryData
Fqh:_emscripten_glFrontFace__wrapper
TTf:_Vector3_t3525329789_marshal_pinvoke_cleanup
cPf:_X509Certificate_GetObjectData_m2959679786
Ja:invoke_fiffi
jjg:__ZN6il2cpp5utils6Memory6CallocEjj
jwe:_TypeBuilder_get_BaseType_m1785398826
O4c:_Convert_ToInt64_m3031549538
wyg:__ZL53IEnumerable_t287189635_CustomAttributesCacheGeneratorP21CustomAttributesCache
LMd:_MonoAsyncCall__ctor_m2841366746
CXc:_Convert_ToUInt64_m67700168
yRc:_Encoding_GetEncoding_m4050696948
M9:__ZN8Playable7SetTimeEd
Nrc:_tt_cmap2_validate
drc:_cff_cmap_unicode_done
ZSc:_Array_System_Collections_IList_Clear_m412725562
kJ:_UNITY_png_gamma_correct
Aja:__Z26IsSplashScreenFadeCompletev
VQ:__Z17SendMessageDirectR6ObjectRK17MessageIdentifierR11MessageData
C8e:_COMException_ToString_m3547469967
ERe:_WaitCallback__ctor_m880874013
zab:__ZN14qsort_internal6_QSortIP17RODataReplacementi19ROSorterReplacementEEvR8JobFenceT_S6_T0_T1_RKS4_P19ProfilerInformation
Bc:_glGenSamplers
oVa:__Z42Register_UnityEngine_Camera_get_clearFlagsv
z5g:__ZNKSt3__121__basic_string_commonILb1EE20__throw_length_errorEv
uNd:_ShortComparer_Compare_m2284602042
m6g:__ZNK10__cxxabiv121__vmi_class_type_info27has_unambiguous_public_baseEPNS_19__dynamic_cast_infoEPvi
U0c:_SyncHashtable__ctor_m330612341
ePe:_UTF7Encoding_GetBytes_m3752707352
Qrg:__ZN21InterfaceFuncInvoker0IP24StringU5BU5D_t2956870243E6InvokeEjP11Il2CppClassPv
ZH:__ZN9rapidjson6WriterINS_19GenericStringBufferINS_4UTF8IcEENS_12CrtAllocatorEEES3_S3_S4_E6Uint64Ey
y5c:_Convert_ToUInt16_m3241087619
xud:_Array_AsReadOnly_TisCustomAttributeTypedArgument_t560415562_m3973834640_gshared
Pzc:__ZL33OnPlayerSessionStateChangedStaticjyy
_Na:__ZN16MemoryFileSystem6ParentERK13FileEntryDataRNSt3__112basic_stringIcNS3_11char_traitsIcEENS3_9allocatorIcEEEE
JT:__ZN6Camera10CustomCullERK23CameraCullingParametersR11CullResults
EH:__ZN9rapidjson13GenericReaderINS_4UTF8IcEES2_NS_19MemoryPoolAllocatorINS_12CrtAllocatorEEEE10ParseFalseILj0ENS_19GenericStringStreamIS2_EENS_15GenericDocumentIS2_S5_S4_EEEEvRT0_RT1_
t5b:__ZN10Collider2D7CleanupEb
MR:__Z22SetManagerPtrInContextiP6Object
nfh:__ZNKSt3__120__time_get_c_storageIcE3__XEv
Jwe:_EnumBuilder_GetField_m1074091398
lTg:__ZL119ScriptableObject_t184905905_CustomAttributesCacheGenerator_ScriptableObject_Internal_CreateScriptableObject_m2334361070P21CustomAttributesCache
Bib:__ZN14PlayerSettings8TransferI19StreamedBinaryWriteILb0EEEEvRT_
d9a:__ZL21SetupActiveLocalLightRK27LocalLightCullingParametersRK13ShadowJobDataRK5Light10Matrix4x4fRK8Vector4fPK5RectTIfEbbfiR11ActiveLight
vNb:__ZNSt3__16vectorIN30RuntimeInitializeOnLoadManager15ClassMethodInfoE13stl_allocatorIS2_L18MemLabelIdentifier12ELi16EEE6assignINS_11__wrap_iterIPS2_EEEENS_9enable_ifIXaasr21__is_forward_iteratorIT_EE5valuesr16is_constructibleIS2_NS_15iterator_traitsISC_E9referenceEEE5valueEvE4typeESC_SC_
$Og:__ZL79Convert_t1097883944_CustomAttributesCacheGenerator_Convert_ToUInt64_m1741321069P21CustomAttributesCache
Jvc:__ZN20TextRenderingPrivate4Font13CharacterInfo8TransferI18StreamedBinaryReadILb0EEEEvRT_
Upe:_Dictionary_2__ctor_m2638584339_gshared
Kzb:__ZNSt3__16vectorINS_4pairINS_12basic_stringIcNS_11char_traitsIcEENS_9allocatorIcEEEES7_EE13stl_allocatorIS8_L18MemLabelIdentifier37ELi16EEE6insertENS_11__wrap_iterIPKS8_EERSE_
bK:_UNITY_png_read_transform_info
e9:__ZN15DirectorManagerD2Ev
b6a:_start_pass
NRb:__ZN18StreamedBinaryReadILb0EE21TransferSTLStyleArrayI13dynamic_arrayIfLj4EEEEvRT_17TransferMetaFlags
hyc:__ZN11UnityEngine15PlatformWrapper12GetInfoFlagsEv
VTe:_Type_IsArrayImpl_m813148751
NKd:_StringReader_Read_m2361407425
gsb:__ZN9GfxDevice23IgnoreNextUnresolveOnRSE12ObjectHandleI17RenderSurface_TagP17RenderSurfaceBaseE
y7f:__ZN6il2cpp6icalls8mscorlib6System13Globalization11CultureInfo45construct_internal_locale_from_current_localeEP17Il2CppCultureInfo
_8:__ZN18PlayableController4TickEf
mxb:__ZN15TextureTFMethod16BindForRenderingEj
Lma:__ZN8Renderer14UpdateRendererEv
Aoa:__ZN6Sprite23VirtualRedirectTransferER18StreamedBinaryReadILb1EE
uJe:_ObjectReader__ctor_m1992894345
cdg:__ZN6il2cpp2os6Thread12SetStackSizeEj
PMc:_Single_ToString_m1436803918
sR:__ZNK5Unity9Component25GetClassIDVirtualInternalEv
_3g:__ZN6il2cpp2os19SocketHandleWrapper7ReleaseEv
KAa:__ZN17MonoScriptManager17FindRuntimeScriptERKNSt3__112basic_stringIcNS0_11char_traitsIcEENS0_9allocatorIcEEEE
b4:__ZN10UnityScene18UnloadSceneObjectsEv
cmd:_DSAManaged_CreateSignature_m2835018685
FTe:_Type_GetTypeCodeInternal_m3432813657
L1g:__ZNSt3__16vectorIN6il2cpp2vm17TypeNameParseInfoENS_9allocatorIS3_EEE8allocateEj
rUd:_PKCS1_RSASP1_m3485035079
Qof:__Z121RuntimeInvoker_Void_t2779279689_SByte_t2855346064_SByte_t2855346064_Int32_t2847414787_Int32_t2847414787_Int32_t2847414787PK10MethodInfoPvPS2_
y2d:_AuthorityKeyIdentifierExtension__ctor_m273322001
rGc:_RIPEMD160Managed_HashFinal_m3898709370
Rhh:dynCall_fff
QMb:__ZNSt3__16vectorIN15ResourceManager10DependencyENS_9allocatorIS2_EEE8__appendEj
Dva:__ZNK13BuildSettings25GetClassIDVirtualInternalEv
yqb:__ZN10FlareLayerD2Ev
ncg:__ZN6il2cpp2gc16GarbageCollector16UnregisterThreadEv
nea:__Z30GetBuiltinMatrixParamArraySize24BuiltinShaderMatrixParam
Slf:__Z76RuntimeInvoker_UInt16_t985925268_Il2CppObject_Int32_t2847414787_Il2CppObjectPK10MethodInfoPvPS2_
iMa:__ZN15ArchiveReadFileC2EP20ArchiveStorageReaderPKN20ArchiveStorageHeader4NodeE
d4e:_GUIStyle_set_onFocused_m811032862
pJf:_Collection_1_Add_m321765054_gshared
INe:_DSAParameters_t2524359253_marshal_pinvoke_back
Tug:__ZNSt3__112__hash_tableINS_17__hash_value_typeINS_4pairIPK9FieldInfoP11Il2CppClassEEP21Il2CppReflectionFieldEENS_22__unordered_map_hasherIS8_SB_17ReflectionMapHashIS8_ELb1EEENS_21__unordered_map_equalIS8_SB_19ReflectionMapEqualsIS8_ELb1EEEN6il2cpp2gc9AllocatorISB_EEE4findIS8_EENS_15__hash_iteratorIPNS_11__hash_nodeISB_PvEEEERKT_
IPd:_NumberFormatter_NumberToString_m575932624
ys:__ZN9AudioClip13RegisterClassEv
Wp:__ZN18StreamedBinaryReadILb1EE21TransferSTLStyleArrayI13dynamic_arrayIhLj1EEEEvRT_17TransferMetaFlags
ORf:_UnityWebRequest_InternalDestroy_m2409049138
uFc:_MD5CryptoServiceProvider_AddLength_m3224905112
j4c:_Decimal_op_Explicit_m1899223848
lpf:__Z113RuntimeInvoker_Boolean_t211005341_Il2CppObject_Il2CppObject_Int32_t2847414787_Int32_t2847414787_Int32_t2847414787PK10MethodInfoPvPS2_
Zwg:__ZL14on_heap_resizem
Vhh:dynCall_vidd
Bcg:__ZN6il2cpp2vm5Array9GetLengthEP11Il2CppArray
Thh:dynCall_vidi
Mxc:__ZN11UnityEngine15PlatformWrapper14GetCloudUserIdEv
KGb:__Z16Transfer_BuiltinI11Quaternionf13ProxyTransferLb0EEvRK29SerializationCommandArgumentsR31RuntimeSerializationCommandInfo
Jnd:_RSAManaged_get_IsCrtPossible_m2743607449
Aje:_InternalEnumerator_1_get_Current_m1563251989_gshared
Hkh:_glVertexAttribPointer__wrapper
Yyg:__ZL59Decimal_t1688557254_CustomAttributesCacheGenerator_MaxValueP21CustomAttributesCache
yBe:_Module_GetObjectData_m8314144
Jhh:___udivdi3
V0c:_SyncHashtable_System_Collections_IEnumerable_GetEnumerator_m4026891787
eLc:_WindowsIdentity_GetCurrentToken_m3719460523
Qig:__ZN6il2cpp6icalls8mscorlib6System8Delegate18SetMulticastInvokeEP14Il2CppDelegate
oBf:__Z37RuntimeInvoker_Enumerator_t4014815677PK10MethodInfoPvPS2_
KWg:__ZL95Transform_t284553113_CustomAttributesCacheGenerator_Transform_INTERNAL_get_position_m1705230066P21CustomAttributesCache
x1a:__ZN4gles16CreateBlendStateER15DeviceStateGLESRK13GfxBlendState
C$c:_KeyNotFoundException__ctor_m3542895460
Svd:_Array_InternalArray__ICollection_Add_TisChar_t2778706699_m1833044272_gshared
Wqb:__ZN13BaseAllocatorD0Ev
QNf:_SafeBag_get_ASN1_m3365953951
sMg:__ZL94UnicodeEncoding_t909387252_CustomAttributesCacheGenerator_UnicodeEncoding_GetString_m254667515P21CustomAttributesCache
hIb:__Z22TransferField_NonArrayI17RemapPPtrTransfer27Converter_SimpleNativeClassI10RectOffsetEEvRK23StaticTransferFieldInfoR31RuntimeSerializationCommandInfoRT0_
mw:__ZN20SoundChannelInstance11set3DSpreadEf
Fka:__ZN12ImageDecoder14MemoryReadFuncEPvPhj
cid:_SimpleCollator_IsSafe_m575256339
uVc:_BitConverter_DoubleWordsAreSwapped_m4219885442
zKg:__ZL54PaddingMode_t1724215917_CustomAttributesCacheGeneratorP21CustomAttributesCache
fvf:__Z50RuntimeInvoker_UInt64_t985925421_SByte_t2855346064PK10MethodInfoPvPS2_
O7f:__ZN6il2cpp2vm13LivenessState16AddProcessObjectEP12Il2CppObjectPS1_
seg:_GC_log_printf
Xnd:_SymmetricTransform_CTS_m921181836
Xse:_AssemblyDefaultAliasAttribute__ctor_m3432347153
jag:__ZN6il2cpp2vm6Object5UnboxEP12Il2CppObject
ITa:__Z52Register_UnityEngine_ScriptableObject_CreateInstancev
sse:_Assembly_IsDefined_m3899547079
_sg:__ZN16VirtFuncInvoker1IibE6InvokeEjPvb
xPa:__Z18IsDirectoryCreatedRKNSt3__112basic_stringIcNS_11char_traitsIcEENS_9allocatorIcEEEE
cn:_glGetActiveUniform
Vog:__ZN16VirtFuncInvoker3IP14PropertyInfo_tP8String_tP6Type_tP22TypeU5BU5D_t3431720054E6InvokeEjPvS3_S5_S7_
Hh:_glBlendEquation
sDb:__ZNSt3__16vectorIx13stl_allocatorIxL18MemLabelIdentifier1ELi16EEE6assignINS_11__wrap_iterIPxEEEENS_9enable_ifIXaasr21__is_forward_iteratorIT_EE5valuesr16is_constructibleIxNS_15iterator_traitsISA_E9referenceEEE5valueEvE4typeESA_SA_
Fzd:_Dictionary_2_Do_CopyTo_TisDictionaryEntry_t130027246_TisDictionaryEntry_t130027246_m896136576_gshared
hOc:_String_LastIndexOfUnchecked_m4042746910
QNd:_MonoType_GetPropertyImpl_m2349541479
Ync:_UNITY_FT_Init_Class_tt_service_truetype_glyf
C$d:_RecordProtocol_ReadStandardRecordBuffer_m1386517462
ode:_Enumerator_get_Current_m2134947410
BLg:__ZL113SecurityException_t128786772_CustomAttributesCacheGenerator_SecurityException_t128786772____Demanded_PropertyInfoP21CustomAttributesCache
$kg:__ZN6il2cpp2vm11Environment11GetMainArgsEv
Jjg:__ZN6il2cpp2os5Mutex7TryLockEjb
KZc:_ReadOnlyArrayListWrapper_set_Item_m1186907789
$Nb:__ZN18StreamedBinaryReadILb1EE21TransferSTLStyleArrayI10vector_mapI7Hash128S3_NSt3__14lessIS3_EENS4_9allocatorINS4_4pairIS3_S3_EEEEEEEvRT_17TransferMetaFlags
jea:__Z20IsVectorBuiltinParamPKcPi
LEe:_ResolveEventHandler_EndInvoke_m3051650750
Jdg:__ZN6il2cpp2vm6String3NewEPKc
r2b:__Z29GUIStyle_CUSTOM_Internal_DrawP15ScriptingObjectR26MonoInternal_DrawArguments
AUd:_EncryptedPrivateKeyInfo_get_Algorithm_m1903026028
Qvg:__ZN6il2cpp6icalls8mscorlib6System10ReflectionL16LoadResourceFileEP24Il2CppReflectionAssembly
oXe:_WeakReference_AllocateHandle_m3300556457
gO:__ZN18BackgroundJobQueue21ScheduleMainThreadJobEPFvPvES0_
xBd:_NumberFormatInfo_get_CurrencyDecimalDigits_m3362896561
d1g:__ZNK26NamespaceAndNamePairEqualsclERKNSt3__14pairIPKcS3_EES6_
P_e:_DebugLogHandler_LogFormat_m1190453926
Uma:__ZN8Renderer11SetMaterialE4PPtrI8MaterialEi
$h:_glGetVertexAttribfv
WGf:_List_1_System_Collections_ICollection_get_SyncRoot_m4244374434_gshared
cqc:__ZNSt3__16vectorIPN20TextRenderingPrivate17TextMeshGeneratorENS_9allocatorIS3_EEE21__push_back_slow_pathIKS3_EEvRT_
hlf:__Z33RuntimeInvoker_Boolean_t211005341PK10MethodInfoPvPS2_
mhd:_Level2Map__ctor_m1114927875
ZTe:_Type_GetConstructor_m2586438681
zYc:_ArrayList_IndexOf_m3912283158
vV:__ZN12FlareManager9AddCameraER6Camera
WOe:_UTF7Encoding_InternalGetCharCount_m2327269409
jT:__ZNK6Camera27GetUsesScreenForCompositingEb
lC:__ZN11AudioSource8TransferI14SafeBinaryReadEEvRT_
Dba:__ZN4Mesh17SetIndicesComplexEPKvjj16GfxPrimitiveTypei
N_b:__ZN13RuntimeStaticI15DirectorManagerE13StaticDestroyEPv
Vle:_Enumerator_Reset_m4006931262_gshared
tnd:_PrivateKeyInfo_DecodeDSA_m1419148139
gle:_Comparer_1__cctor_m3891008882_gshared
dNg:__ZL81AppDomain_t1551247802_CustomAttributesCacheGenerator_assembly_resolve_in_progressP21CustomAttributesCache
QAe:_MemberFilter_BeginInvoke_m1668252761
aPc:_String_CreateString_m197914714
Pvf:__Z73RuntimeInvoker_Il2CppObject_DateTime_t339033936_Il2CppObject_Il2CppObjectPK10MethodInfoPvPS2_
Ghh:___divdi3
wlf:__Z99RuntimeInvoker_Boolean_t211005341_Il2CppObject_Int32_t2847414787_Il2CppObject_UInt32U26_t1633857122PK10MethodInfoPvPS2_
SFc:_Rijndael_Create_m3578856229
oGf:_List_1_GrowIfNeeded_m2296489085_gshared
Nag:__ZN6il2cpp2vm5Field8GetValueEP12Il2CppObjectP9FieldInfoPv
jZd:_SecurityParameters_Clear_m2412174537
XYc:_ArrayListWrapper_set_Item_m602076299
qSe:_TimeSpan_Equals_m3271948249
pqd:_SmallXmlParser_Error_m26295006
LDf:__Z61RuntimeInvoker_ParameterModifier_t500203470_Int32_t2847414787PK10MethodInfoPvPS2_
DR:__ZN5Unity9Component8TransferI19StreamedBinaryWriteILb0EEEEvRT_
X9a:__ZL12CullGroupJobP20CullingGroupsJobDataj
vxg:_GC_remove_dangling_disappearing_links
mH:__ZN11UnityEngine15CloudWebService14RestDownloader9IsAbortedEv
f8a:__ZNSt3__16__treeINS_12__value_typeINS_12basic_stringIcNS_11char_traitsIcEENS_9allocatorIcEEEEiEENS_19__map_value_compareIS7_S8_NS_4lessIS7_EELb1EEENS5_IS8_EEE4findIS7_EENS_15__tree_iteratorIS8_PNS_11__tree_nodeIS8_PvEEiEERKT_
TPc:_Decoder__ctor_m1448672242
KDg:__ZL144TextInfo_t1829318641_CustomAttributesCacheGenerator_TextInfo_System_Runtime_Serialization_IDeserializationCallback_OnDeserialization_m3742228713P21CustomAttributesCache
DUc:_Array_obj_swapper_m2255293358
vo:FUNCTION_TABLE_f
eFg:__ZL111TypeBuilder_t4287691406_CustomAttributesCacheGenerator_TypeBuilder_MakeGenericType_m740236136____typeArguments0P21CustomAttributesCache
cp:FUNCTION_TABLE_i
Aye:_LabelFixup_t320573180_marshal_pinvoke
Hwe:_EnumBuilder_GetEvent_m1271024006
o7e:_MonoBehaviour_CancelInvoke_m2461959659
Xn:FUNCTION_TABLE_v
c3c:_Convert_ToByte_m566504038
Vgf:_AnchorInfo_get_IsSubstring_m506285889
V_e:_DisplaysUpdatedDelegate_Invoke_m3958989829
V3a:__ZN18GlslGpuProgramGLES6CreateE20ShaderGpuProgramTypeRK13dynamic_arrayIhLj1EER14ChannelAssigns
Iqb:__ZN9BehaviourD2Ev
cdc:__ZZN10Collider2D15InitializeClassEvEN36FunctorImpl_Collider2D_kSetPolygon2D4CallEPviR11MessageData
Cmb:__ZN14SafeBinaryRead19TransferSTLStyleMapINSt3__13mapI8UnityStrS3_NS1_4lessIS3_EE13stl_allocatorINS1_4pairIKS3_S3_EEL18MemLabelIdentifier1ELi16EEEEEEvRT_17TransferMetaFlags
vog:__ZN16VirtFuncInvoker1IP33ConstructorInfoU5BU5D_t3572023667iE6InvokeEjPvi
D0e:_GUI__cctor_m1345698031
zDc:__Z67Register_UnityEngine_Networking_UnityWebRequest_get_downloadedBytesv
UW:__ZN21LightProbeProxyVolume13GetRenderDataER27LightProbeProxyVolumeSample
vPa:__ZN21AssetBundleFileSystem18IsAbsoluteFilePathEPKc
N2f:__ZN6il2cpp2vm7Runtime30CallUnhandledExceptionDelegateEP12Il2CppDomainP14Il2CppDelegateP15Il2CppException
Fwf:__Z106RuntimeInvoker_Boolean_t211005341_Int32_t2847414787_Int64U5BU5DU26_t1244450369_StringU5BU5DU26_t2721008021PK10MethodInfoPvPS2_
ROg:__ZL79Convert_t1097883944_CustomAttributesCacheGenerator_Convert_ToUInt32_m3922716409P21CustomAttributesCache
Qxe:_GenericTypeParameterBuilder_get_AssemblyQualifiedName_m1986145049
i7c:_DateTime_get_Today_m3010825801
H6g:_isxdigit
Bvg:__ZN6il2cpp2vm17TypeNameParseInfoC2ERKS1_
yxc:__ZN18UnityConnectClient17InitConnectClientEv
v7g:_memcmp
vzc:__ZN22UnityAnalyticsSettings5ResetEv
LBd:_NumberFormatInfo_get_NumberDecimalSeparator_m2024629677
Mv:__ZN5audio5mixer22CreateAudioMixerMemoryERKNS0_18AudioMixerConstantEPN4FMOD6SystemERN7mecanim6memory9AllocatorEib
fYg:__ZL59GUISkin_t2614611333_CustomAttributesCacheGenerator_m_toggleP21CustomAttributesCache
hid:_SimpleCollator_GetSortKey_m315817675
Ez:__ZN10ObjectPoolIN4FMOD6ReverbENS0_7ReverbIEE7GetFreeEi
_cb:__Z18SkinGenericMathLibILi2ELb1ELb1EEvR12SkinMeshInfo
xUg:__ZL86Camera_t3533968274_CustomAttributesCacheGenerator_Camera_get_nearClipPlane_m4074655061P21CustomAttributesCache
VBf:__Z59RuntimeInvoker_Int32_t2847414787_DictionaryEntry_t130027246PK10MethodInfoPvPS2_
vzg:__ZL70IntPtr_t_CustomAttributesCacheGenerator_IntPtr_op_Explicit_m2174170701P21CustomAttributesCache
Vxg:__ZL55IFormattable_t2460033475_CustomAttributesCacheGeneratorP21CustomAttributesCache
ibb:__ZL20ShaderWarmupFuncImplP6ShaderiPN9ShaderLab4PassERK16ShaderKeywordSetP10DynamicVBOPvR17ShaderPassContext
fac:__ZN7b2World4StepEfii
A7g:_sn_write
hfh:__ZNKSt3__120__time_get_c_storageIcE8__monthsEv
H4d:_FileWebRequest_GetObjectData_m1166847137
Xjf:_Uri_ParseAsWindowsUNC_m3032435497
Heh:__ZNKSt3__17codecvtIDic11__mbstate_tE6do_outERS1_PKDiS5_RS5_PcS7_RS7_
Q1a:__ZN13GfxDeviceGLES13SetViewMatrixERK10Matrix4x4f
gtg:__ZN21InterfaceFuncInvoker0IP12MethodInfo_tE6InvokeEjP11Il2CppClassPv
c0a:__ZN14DataBufferGLES12RecordUpdateEv
qBb:__Z16Transfer_BuiltinIx18StreamedBinaryReadILb1EELb1EEvRK29SerializationCommandArgumentsR31RuntimeSerializationCommandInfo
zxg:__ZNSt3__16vectorIPK14Il2CppAssemblyNS_9allocatorIS3_EEE21__push_back_slow_pathIRKS3_EEvOT_
KPf:_X509Crl_get_IssuerName_m3020541034
Rhc:__ZN20TextRenderingPrivate15DynamicFontData28GetFaceForFontRefFromOSFontsERKNS_7FontRefE
oWb:__ZN14qsort_internal31_FindAndMovePivotToLastPositionIP14RenderPassDataiN23ForwardShaderRenderLoop18RenderObjectSorterILb1EEEEEvT_S6_T0_T1_
Wq:__ZN19StreamedBinaryWriteILb0EE8TransferI11QuaternionfEEvRT_PKc17TransferMetaFlags
_P:__ZN16LevelGameManager8TransferI13ProxyTransferEEvRT_
Aya:__ZN10systeminfo19IsPlatformWebPlayerE15RuntimePlatform
qag:__ZN6il2cpp2vm12GenericClass12SetupMethodsEP11Il2CppClass
xEe:_StrongNameKeyPair_GetRSA_m987209039
tQa:__ZNK20LocalFileSystemPosix18GetApplicationPathEv
q8d:_X509Certificate2_get_SubjectName_m4019514164
GQ:__ZN10GameObject16CheckConsistencyEv
rZ:__ZN14RenderSettings15InitializeClassEv
RHe:_RemotingServices_GetServerTypeForUri_m2370855021
yFc:_RC2__ctor_m3351287492
rCf:__Z53RuntimeInvoker_Void_t2779279689_TableRange_t476453423PK10MethodInfoPvPS2_
zXc:_Char_System_IConvertible_ToUInt32_m207646975
SKe:_SerializationInfoEnumerator__ctor_m1782497732
QFc:_Rijndael__ctor_m3342826786
hNa:__ZN20ArchiveStorageHeader11WriteHeaderER12FileAccessorRKNS_6HeaderE
Usc:_TT_Load_Simple_Glyph
fwd:_Array_InternalArray__ICollection_Add_TisIntPtr_t_m1737013017_gshared
vC:__ZL16FMOD_ErrorString11FMOD_RESULT1279
lBg:__ZL125U3CGetEnumeratorU3Ec__Iterator0_t490656863_CustomAttributesCacheGenerator_U3CGetEnumeratorU3Ec__Iterator0_Dispose_m1773407530P21CustomAttributesCache
uYe:_pinvoke_delegate_wrapper_PCMSetPositionCallback_t2977871350
aah:__ZNKSt3__17num_getIwNS_19istreambuf_iteratorIwNS_11char_traitsIwEEEEE6do_getES4_S4_RNS_8ios_baseERjRy
Y9g:__ZNKSt3__17num_getIwNS_19istreambuf_iteratorIwNS_11char_traitsIwEEEEE6do_getES4_S4_RNS_8ios_baseERjRx
Uve:_DynamicMethod_IsDefined_m1520191624
Akf:__Z73RuntimeInvoker_Int32_t2847414787_Il2CppObject_ObjectU5BU5DU26_t3434429003PK10MethodInfoPvPS2_
Pgc:__ZN5physx15PxCpuDispatcherD2Ev
Z9g:__ZNKSt3__17num_getIwNS_19istreambuf_iteratorIwNS_11char_traitsIwEEEEE6do_getES4_S4_RNS_8ios_baseERjRt
U7g:__ZNSt3__112basic_stringIcNS_11char_traitsIcEENS_9allocatorIcEEEC2ERKS5_jjRKS4_
rAd:_Array_InternalArray__get_Item_TisIntPtr_t_m1819425504_gshared
X9g:__ZNKSt3__17num_getIwNS_19istreambuf_iteratorIwNS_11char_traitsIwEEEEE6do_getES4_S4_RNS_8ios_baseERjRl
o0b:__ZNK8GUIStyle20GetCursorStringIndexERK5RectTIfER10GUIContentRK8Vector2f
W9g:__ZNKSt3__17num_getIwNS_19istreambuf_iteratorIwNS_11char_traitsIwEEEEE6do_getES4_S4_RNS_8ios_baseERjRb
dah:__ZNKSt3__17num_getIwNS_19istreambuf_iteratorIwNS_11char_traitsIwEEEEE6do_getES4_S4_RNS_8ios_baseERjRe
cah:__ZNKSt3__17num_getIwNS_19istreambuf_iteratorIwNS_11char_traitsIwEEEEE6do_getES4_S4_RNS_8ios_baseERjRd
bah:__ZNKSt3__17num_getIwNS_19istreambuf_iteratorIwNS_11char_traitsIwEEEEE6do_getES4_S4_RNS_8ios_baseERjRf
yJf:_Collection_1_Remove_m2181520885_gshared
BCf:__Z71RuntimeInvoker_Void_t2779279689_CustomAttributeTypedArgument_t560415562PK10MethodInfoPvPS2_
qxb:__ZN21UniformBufferTFMethodD2Ev
qle:_Enumerator_get_Current_m1399860359_gshared
UEd:_Int64_ToString_m3478011791
W4f:_il2cpp_runtime_object_init_exception
xBc:__ZN26DownloadHandlerAssetBundle17OnCompleteContentEv
gTb:__ZN6prcoreL12RemapGenericI15TexFormatRGB56515TexFormatRGB888EEvPKNS_9InnerInfoE
_hg:__ZN6il2cpp5utils10MemoryPool9AddRegionEj
A4:__ZN14FileCacherReadC2ERKNSt3__112basic_stringIcNS0_11char_traitsIcEENS0_9allocatorIcEEEEjj
tmf:__Z86RuntimeInvoker_Int32_t2847414787_Int16_t2847414729_Int32_t2847414787_Int32_t2847414787PK10MethodInfoPvPS2_
SEc:_KeyedHashAlgorithm_set_Key_m1327774667
cAa:__ZN13MonoBehaviour15CreateCoroutineEP15ScriptingObject21ScriptingMethodIl2Cpp
F5a:_UNITY_png_inflate_claim
WJg:__ZL73AsymmetricSignatureDeformatter_t3229527040_CustomAttributesCacheGeneratorP21CustomAttributesCache
uTc:_Array_get_IsFixedSize_m2362830166
Dfd:_CultureInfo_CreateCulture_m4255235762
_Lc:_StringBuilder_AppendFormat_m3723191730
H$d:_RecordProtocol_SendRecord_m1964683252
PUc:_SimpleEnumerator_Clone_m3819340217
Q2c:_Decimal_op_GreaterThan_m2234430307
X6:__ZN9ShaderLab16ParserSubProgram14SetConstBufferEPKci
x8:__ZN12TLSAllocatorI14StackAllocatorEC2EPKc
pYe:_PCMReaderCallback__ctor_m2350128290
zPd:_NumberFormatter_RemoveTrailingZeros_m3741390329
Ps:__ZN13AudioListener12ApplyFiltersEv
d5:__ZN12ShaderErrors21ClearNonProgramErrorsEv
hah:__ZNSt3__19__num_getIcE19__stage2_float_prepERNS_8ios_baseEPcRcS5_
QGb:__ZL26Transfer_SimpleNativeClassI13ProxyTransfer17AnimationCurveTplIfELb0EEvRK29SerializationCommandArgumentsR31RuntimeSerializationCommandInfo
sjg:__ZN6il2cpp8metadata27Il2CppGenericContextCompare7CompareEPK20Il2CppGenericContextS4_
Xkb:__Z29StdTemplateConversionFunctionIyjEbPvR14SafeBinaryRead
Gih:dynCall_viiii
cYe:_AsyncOperation_get_allowSceneActivation_m4131883466
sSf:_UnityWebRequest_GetRequestHeader_m3609839564
qec:__ZN16Physics2DManagerD2Ev
Xjg:__ZN6il2cpp6icalls8mscorlib6System7Runtime8Remoting16RemotingServices18IsTransparentProxyEP12Il2CppObject
x8a:__ZZN6Camera15InitializeClassEvEN36FunctorImpl_Camera_kTransformChanged4CallEPviR11MessageData
Ctg:__ZNSt3__112__hash_tableINS_17__hash_value_typeIPK19Il2CppGenericMethodPK26Il2CppGenericMethodIndicesEENS_22__unordered_map_hasherIS4_S8_N6il2cpp8metadata23Il2CppGenericMethodHashELb1EEENS_21__unordered_map_equalIS4_S8_NSB_26Il2CppGenericMethodCompareELb1EEENS_9allocatorIS8_EEE15__insert_uniqueINS_4pairIS4_S7_EEEENSL_INS_15__hash_iteratorIPNS_11__hash_nodeIS8_PvEEEEbEEOT_
mAb:__ZNSt3__1plIcNS_11char_traitsIcEE13stl_allocatorIcL18MemLabelIdentifier66ELi16EEEENS_12basic_stringIT_T0_T1_EEPKS7_RKSA_
Vhb:__ZN13BuildSettings8TransferI18StreamedBinaryReadILb0EEEEvRT_
JPd:_NumberFormatter_NumberToString_m356875018
Bhf:_ExpressionAssertion_set_TestExpression_m828897591
oSc:_StringBuilder_Append_m4120200429
D7c:_DateTime__DoParse_m760672305
dlf:__Z67RuntimeInvoker_Boolean_t211005341_Il2CppObject_Int32U26_t2544866037PK10MethodInfoPvPS2_
j9:__ZN15DirectorManager14ConnectionPool16GrowEmptyBucketsEv
AFa:__ZN17PersistentManager32CopyToAwakeFromLoadQueueInternalER18AwakeFromLoadQueue
RQ:__ZN10GameObject15InitializeClassEv
Jyg:__ZL82String_t_CustomAttributesCacheGenerator_String_TrimStart_m3483716918____trimChars0P21CustomAttributesCache
tJd:_Path_GetExtension_m2722066454
L7g:__ZNSt3__17__sort3IRNS_6__lessIiiEEPiEEjT0_S5_S5_T_
H8g:__ZNSt3__115basic_streambufIcNS_11char_traitsIcEEE7seekoffExNS_8ios_base7seekdirEj
CNf:_PKCS12_set_Password_m255122339
Wl:_open
y9b:__ZN6b2Body7SetTypeE10b2BodyType
iwb:__ZN21AssetBundleFileSystem5CloseER13FileEntryData
Cpd:_X509Certificate_Parse_m750702354
Y6f:__ZN6il2cpp6icalls8mscorlib6System5Array5CloneEP11Il2CppArray
U4c:_Convert_ToInt64_m485982729
zcb:__ZZN15DirectorManager15InitializeClassEvEN47PreLateUpdateDirectorUpdateAnimationBeginstruct7ForwardEv
ESf:_UploadHandler__ctor_m4145774046
aTb:__ZN6prcoreL12RemapGenericI11TexFormatI815TexFormatRGB565EEvPKNS_9InnerInfoE
TO:__ZN6Object15GetSuperClassIDEi
z$a:__ZNK13TranslateGLES17FramebufferTargetEN2gl17FramebufferTargetE
Ywg:__ZL11on_gc_event11GCEventType
VYc:_ArrayListWrapper__ctor_m2531120873
God:_PKCS12_Decode_m1208795610
oRf:_UnityWebRequest_GetAssetBundle_m3001500023
ebc:__ZNK15b2FrictionJoint17GetReactionTorqueEf
gZa:__ZN10systeminfo24GetProcessorFrequencyMHzEv
doh:b62
Ynh:b61
Rnh:b60
yoh:b67
xoh:b66
woh:b65
iff:_PatternCompiler_MakeFlags_m1692978267
Iph:b69
FXg:__ZL78Event_t1590224583_CustomAttributesCacheGenerator_Event_get_keyCode_m1820698462P21CustomAttributesCache
dhh:__ZNSt3__118__libcpp_refstringC2EPKc
dwb:__ZN21AssetBundleFileSystem4OpenER13FileEntryData14FilePermission16FileAutoBehavior
OMa:__ZN21ArchiveStorageCreator10BeginBlockEb15CompressionType16CompressionLevelj
LIc:_SHA512Managed_processBlock_m4228260946
m5e:_GUIStyle_get_contentOffset_m2092220605
Tta:__Z9SetIIMGUIP6IIMGUI
UU:__Z28SetupPixelCorrectCoordinatesv
dsc:_tt_cmap10_get_info
mtg:__ZN6il2cpp2vmL10InitLockedEP11Il2CppClassRKNS_2os12FastAutoLockE
Zcb:__Z18SkinGenericMathLibILi1ELb1ELb1EEvR12SkinMeshInfo
T2:__ZN15LODGroupManager26CollectAllLODGroupManagersEPK6CameraR13dynamic_arrayIPS_Lj4EEb
ytd:_Array_InternalArray__ICollection_Remove_TisUInt16_t985925268_m1191340236_gshared
QC:__ZN12AudioManagerD0Ev
g7g:___fwritex
hBg:__ZL107ArrayReadOnlyList_1_t2546651274_CustomAttributesCacheGenerator_ArrayReadOnlyList_1_GetEnumerator_m330713273P21CustomAttributesCache
dEb:__Z16Transfer_BuiltinIf14SafeBinaryReadLb0EEvRK29SerializationCommandArgumentsR31RuntimeSerializationCommandInfo
Ejg:__ZN6il2cpp5utils35RegisterRuntimeInitializeAndCleanupC2EPFvvES3_i
O_f:__EqualityComparer_GetHashCode_m125800277
ucg:__ZN6il2cpp2gc16GarbageCollector22MakeDescriptorForArrayEv
tvf:__Z72RuntimeInvoker_DateTime_t339033936_DateTime_t339033936_Int32_t2847414787PK10MethodInfoPvPS2_
$na:__Z29DecompressNativeTextureFormat13TextureFormatiiPKjiiPj
mCa:__ZN18ScriptingArguments8GetCountEv
xLa:__ZN17ArchiveFileSystem14UnmountArchiveEP20ArchiveStorageReader
FDd:_Int16_ToString_m3882509540
hHa:__ZN8Material12GetPassCountEv
FCa:__Z50ScriptingGetComponentsOfTypeFromGameObjectFastPathP10GameObjectP15ScriptingObject
EX:__ZN16ReflectionProbes22ForceProbeToUseTextureER15ReflectionProbeP7Texture
nic:__ZN20TextRenderingPrivate4Font23VirtualRedirectTransferER14SafeBinaryRead
IYc:_ArrayList_CopyTo_m3681134010
DRd:_BigInteger__ctor_m2747162922
vqc:_raccess_guess_darwin_ufs_export
$qd:_Activator_CreateInstance_m2161363287
A5g:__ZNKSt3__120__vector_base_commonILb1EE20__throw_length_errorEv
Tbc:__ZN13b2PulleyJointC2EPK16b2PulleyJointDef
Nhg:__ZN6il2cpp8metadata17Il2CppTypeCompare7CompareEPK10Il2CppTypeS4_
UCc:__Z44UnityWebRequest_Get_Custom_PropRedirectLimitP15ScriptingObject
MC:__ZN9AudioClipD0Ev
E5d:_IPv6Address__cctor_m84116622
VWe:_Version__ctor_m48000169
nAc:__ZN22CrashReportingSettings8TransferI18StreamedBinaryReadILb0EEEEvRT_
aXe:_Version_get_Revision_m3477882347
O8:__ZN25ThreadsafeLinearAllocatorC2EiiPKc
a_f:_GenericEqualityComparer_1_GetHashCode_m2603087186_gshared
boc:_UNITY_tt_glyphzone_new
Eef:_Regex_get_Gap_m2153899613
Z2d:_HybridDictionary_System_Collections_IEnumerable_GetEnumerator_m633511108
$Nc:_String_IndexOfOrdinalUnchecked_m3747812990
iQ:__ZN17GlobalGameManager8TransferI19StreamedBinaryWriteILb0EEEEvRT_
rKc:_PermissionSet__ctor_m3410884176
Caa:__ZN19SkinnedMeshRenderer17PrepareSkinCommonEiP18JobBatchDispatcher
wye:_ILGenerator_Emit_m1194208066
cJ:_UNITY_png_check_IHDR
iOg:__ZL78Convert_t1097883944_CustomAttributesCacheGenerator_Convert_ToSByte_m1076883166P21CustomAttributesCache
uOg:__ZL79Convert_t1097883944_CustomAttributesCacheGenerator_Convert_ToSingle_m1897502751P21CustomAttributesCache
MV:__ZN16GraphicsSettings22WarmupPreloadedShadersEv
XMe:_DES_Create_m2951526313
q5:__ZN9ShaderLab4Pass6RetainEv
qLf:_ReadOnlyCollection_1_System_Collections_Generic_ICollectionU3CTU3E_Add_m2455993995_gshared
k$e:_Event_get_isMouse_m3551276757
qp:__ZNSt3__113__tree_removeIPNS_16__tree_node_baseIPvEEEEvT_S5_
wgf:_Regex_Match_m1021969427
QVc:_Convert_ToInt16_m1720411158
R4c:_Convert_ToInt64_m3031547740
$pg:__ZN18VirtActionInvoker2IP12Il2CppObjectiE6InvokeEjPvS1_i
pqg:__ZN16VirtFuncInvoker0I29RuntimeTypeHandle_t1864875887E6InvokeEjPv
EE:__ZN11UnityEngine15CloudWebService17CloudJobScheduler11ScheduleJobEPFvPvES2_
l4g:__ZNSt3__112__hash_tableIPK19Il2CppGenericMethodN6il2cpp8metadata23Il2CppGenericMethodHashENS5_26Il2CppGenericMethodCompareENS_9allocatorIS3_EEE20__node_insert_uniqueEPNS_11__hash_nodeIS3_PvEE
Sie:_InternalEnumerator_1_get_Current_m147444170_gshared
M9f:__ZN6il2cpp2os6Socket4SendEPKhiNS0_11SocketFlagsEPi
dda:__ZNK18VertexChannelsInfoltERKS_
gqf:__Z75RuntimeInvoker_Void_t2779279689_Int32_t2847414787_Il2CppObject_Il2CppObjectPK10MethodInfoPvPS2_
faf:_ChannelServices_CreateProvider_m463156604
Kse:_Assembly_load_with_partial_name_m4063128548
Ypf:__Z34RuntimeInvoker_DateTime_t339033936PK10MethodInfoPvPS2_
xOa:__ZN10MemoryFileD0Ev
TXc:_CultureInfo_get_CurrentCulture_m2905498779
ON:__ZN39AssetBundleLoadFromStreamAsyncOperation17LoadCachedArchiveEv
voa:__ZN6Sprite13RegisterClassEv
ria:__Z27scripting_class_is_inflatedP14ScriptingClass
RI:_UNITY_png_free_data
HEb:__ZN13GUIStyleState8TransferI14SafeBinaryReadEEvRT_
Cd:_glDrawArrays
lMd:_Math_Ceiling_m3914511415
LYf:_DefaultComparer_GetHashCode_m1622792632_gshared
sRa:__Z24CreateDirectoryRecursiveRKNSt3__112basic_stringIcNS_11char_traitsIcEENS_9allocatorIcEEEE
Qr:__ZN10SampleClip12CleanupClassEv
wDc:__Z59Register_UnityEngine_Networking_UnityWebRequest_get_isErrorv
p_e:_Coroutine__ctor_m3143611649
HRb:__ZN14BlendShapeData8TransferI18StreamedBinaryReadILb0EEEEvRT_
sxc:__ZThn464_N18UnityConnectClientD1Ev
ktc:_Round_To_Grid
xkc:_UNITY_FT_Stream_Close
sPc:_StringComparer_get_OrdinalIgnoreCase_m2513153269
TIg:__ZL53IChannelInfo_t18691856_CustomAttributesCacheGeneratorP21CustomAttributesCache
EHe:_RemotingConfiguration_RegisterServerProviderTemplate_m3283034669
O4b:__ZN9rapidjson6WriterI16TempBufferWriterNS_4UTF8IcEES3_13JSONAllocatorE9WriteBoolEb
Ip:__ZN6Object10SmartResetEv
smh:_emscripten_glShaderBinary__wrapper
Wwb:__ZL17ProgramUniform3ivPK7ApiGLESjiihPKv
ZGg:__ZL64InterfaceTypeAttribute_t465097163_CustomAttributesCacheGeneratorP21CustomAttributesCache
Yhe:_InternalEnumerator_1_get_Current_m2342284108_gshared
Qlb:__Z29StdTemplateConversionFunctionIhsEbPvR14SafeBinaryRead
ZPg:__ZL57OperatingSystem_t602923589_CustomAttributesCacheGeneratorP21CustomAttributesCache
jsb:__ZN9GfxDevice25GetBackBufferColorSurfaceEv
kPa:__ZN25SingleBlockMemoryFileData9SetLengthEy
lyf:__Z80RuntimeInvoker_Void_t2779279689_Il2CppObject_Int32_t2847414787_Int16_t2847414729PK10MethodInfoPvPS2_
aBc:__ZN21DownloadHandlerBuffer22OnReceiveContentLengthEj
gif:_Literal_Compile_m2265605006
$Ra:__Z14GetMessageLoopv
Sqd:_AttrListImpl_get_Values_m713372555
qyg:__ZL48UInt16_t985925268_CustomAttributesCacheGeneratorP21CustomAttributesCache
OXd:_TlsServerKeyExchange__ctor_m3272285064
lah:__ZNSt3__19__num_getIwE19__stage2_float_loopEwRbRcPcRS4_wwRKNS_12basic_stringIcNS_11char_traitsIcEENS_9allocatorIcEEEEPjRSE_RjPw
s8g:__ZNSt3__112basic_stringIwNS_11char_traitsIwEENS_9allocatorIwEEE9push_backEw
yRf:_UploadHandler_set_contentType_m3087243632
Zqa:__ZN9Texture3D23VirtualRedirectTransferER19StreamedBinaryWriteILb0EE
uUd:_PKCS1_Encode_v15_m2783024148
cP:__Z30GetDisableImmediateDestructionv
zwg:__ZNSt3__16__treeINS_12__value_typeIP24Il2CppReflectionAssemblyPvEENS_19__map_value_compareIS3_S5_NS_4lessIS3_EELb1EEENS_9allocatorIS5_EEE4findIS3_EENS_15__tree_iteratorIS5_PNS_11__tree_nodeIS5_S4_EEiEERKT_
Ada:__ZN21BillboardBatchManager24AutoBillboardShaderPropsC2ER16ShaderKeywordSetR24BuiltinShaderParamValues
JXc:_Char_IsDigit_m1743537211
SGb:__ZL26Transfer_SimpleNativeClassI13ProxyTransfer10RectOffsetLb0EEvRK29SerializationCommandArgumentsR31RuntimeSerializationCommandInfo
m9e:_SafeHandle_DangerousGetHandle_m4113584652
Ztd:_Array_InternalArray__IEnumerable_GetEnumerator_TisIntPtr_t_m1800769702_gshared
Q_a:__ZN7ApiGLES11FlushBufferEjN2gl12BufferTargetEll
WX:__ZN18ReflectionProbeJob3RunEv
Apb:__ZN12_GLOBAL__N_127PrepareReadback_ResolveMSAAER18GfxFramebufferGLESR7ApiGLESP17RenderSurfaceGLESS5_
v1:__ZN9Behaviour8TransferI19StreamedBinaryWriteILb0EEEEvRT_
SQd:_OutOfMemoryException__ctor_m3970465100
PGb:__Z16Transfer_BuiltinI8BitField13ProxyTransferLb0EEvRK29SerializationCommandArgumentsR31RuntimeSerializationCommandInfo
xHc:_SignatureDescription__ctor_m565127101
_Ob:__ZNK24RendererAnimationBinding9BindValueER6ObjectRKN11UnityEngine9Animation14GenericBindingERNS3_10BoundCurveE
MGf:_List_1__cctor_m3826137881_gshared
Ie:_glBindBuffer
MJb:__ZN8GUIStyle8TransferI18StreamedBinaryReadILb0EEEEvRT_
Ep:__ZN5Unity9Component20WillDestroyComponentEv
M8c:_DateTimeFormatInfo_get_SortableDateTimePattern_m1830034941
kse:_Assembly__ctor_m3527373192
Ckd:_PrimeGeneratorBase_get_Confidence_m2613103415
x4b:__ZN11IMGUIModule21ClearDeveloperConsoleEv
zva:__Z16GetBuildSettingsv
Pff:_PatternCompiler_EmitAlternationEnd_m2098295803
Z0a:__ZN14GfxContextGLES8InstanceD2Ev
TBa:__ZN18LoadSceneOperation13CleanupMemoryEv
G6g:_isupper
AHf:_List_1_System_Collections_IList_Add_m225941485_gshared
jng:__ZN21InterfaceFuncInvoker1IhP12Il2CppObjectE6InvokeEjP11Il2CppClassPvS1_
k4:__ZN12CachedReaderD2Ev
$lg:__ZN18VirtActionInvoker1IP31AsymmetricAlgorithm_t4236534322E6InvokeEjPvS1_
DQg:__ZL67AssemblyLoadEventHandler_t3698454801_CustomAttributesCacheGeneratorP21CustomAttributesCache
Ifh:__ZNKSt3__17num_getIwNS_19istreambuf_iteratorIwNS_11char_traitsIwEEEEE17__do_get_unsignedItEES4_S4_S4_RNS_8ios_baseERjRT_
lf:_getuid
pag:__ZN6il2cpp2gc8GCHandle15GetTargetHandleEP12Il2CppObjectii
UWc:_Byte_GetHashCode_m2610389752
Ftf:__Z76RuntimeInvoker_Il2CppObject_Int32_t2847414787_Il2CppObject_Int32_t2847414787PK10MethodInfoPvPS2_
Vue:_TypeBuilder_get_is_created_m695624602
XQc:_EncoderReplacementFallbackBuffer_get_Remaining_m3963160455
VUc:_ArrayTypeMismatchException__ctor_m3506476232
b3f:__ZN6il2cpp6icalls8mscorlib6System8MonoType22get_IsGenericParameterEP20Il2CppReflectionType
oJb:__Z16Transfer_BuiltinId18StreamedBinaryReadILb0EELb0EEvRK29SerializationCommandArgumentsR31RuntimeSerializationCommandInfo
amg:__ZN16VirtFuncInvoker2IP12Il2CppObjectP20ByteU5BU5D_t58506160S3_E6InvokeEjPvS3_S3_
QB:__ZN9AudioClip8TransferI19StreamedBinaryWriteILb0EEEEvRT_
rsf:__Z61RuntimeInvoker_Void_t2779279689_Il2CppObject_Byte_t2778693821PK10MethodInfoPvPS2_
Cvg:__ZNSt3__16vectorIN6il2cpp2vm17TypeNameParseInfoENS_9allocatorIS3_EEE21__push_back_slow_pathIRKS3_EEvOT_
aue:_CustomAttributeData_get_NamedArguments_m3035361272
Woe:_ValueCollection_System_Collections_ICollection_CopyTo_m1709700389_gshared
eKe:_ObjectRecord_SetArrayValue_m2737762809
FY:__ZN13RenderManager28AreCamerasUsingMotionVectorsEv
wPa:__Z24GetAssetBundleFileSystemv
Q2:__Z25InitializeLODGroupManagerPv
B3d:_DictionaryNodeEnumerator_get_Current_m3751627803
b_d:_TlsStream_ReadBytes_m3691381117
Qud:_Array_IndexOf_TisCustomAttributeNamedArgument_t318735129_m2624070686_gshared
QIa:__ZN19ShaderPropertySheet5ClearEb
kMb:__Z19TransferField_ArrayI19StreamedBinaryWriteILb0EE19Converter_PrimitiveI8BitFieldEEvRK23StaticTransferFieldInfoR31RuntimeSerializationCommandInfoRT0_
q$:__Z15RenderLightGeomR9GfxDeviceRK17RenderLoopContextRK11ActiveLightRK8Vector3fRK10Matrix4x4fbPK14ChannelAssigns
HT:__ZNK6Camera11GetPositionEv
YVg:__ZL97Component_t2126946602_CustomAttributesCacheGenerator_Component_GetComponentInChildren_m1899663946P21CustomAttributesCache
Pph:_emscripten_glClearDepth__wrapper
$Na:__ZNK16MemoryFileSystem8FilenameERK13FileEntryData
cCc:__ZN19TransportJavaScript8FinalizeEv
Zf:_glUniform1fv
ag:_JS_FileSystem_Sync
mpa:__ZN7Texture8TransferI18StreamedBinaryReadILb1EEEEvRT_
fVa:__Z27Camera_CUSTOM_GetAllCamerasP14ScriptingArray
kLe:_RuntimeFieldHandle__ctor_m4059484332
c9d:_X509CertificateCollection_GetHashCode_m252984435
Z7b:__ZN11Rigidbody2D11SetVelocityERK8Vector2f
O$a:__ZN4gles15BlitFramebufferERNS_23BlitFramebufferDrawQuadER9GfxDeviceii9TextureIDiiiiiiii
RUe:_UInt16_Parse_m1444018254
O1:__Z22DelayedDestroyCallbackP6ObjectPv
r2c:_GC_SuppressFinalize_m1160635446
zmg:__ZN16VirtFuncInvoker7IiP8String_tiiS1_iiiE6InvokeEjPvS1_iiS1_iii
QHc:_SHA1CryptoServiceProvider_Finalize_m565501597
uea:__ZN13DrawImmediate5BeginE16GfxPrimitiveTypePK14ChannelAssigns
Gkf:__Z44RuntimeInvoker_Char_t2778706699_Il2CppObjectPK10MethodInfoPvPS2_
iac:__ZN15b2ContactFilter13ShouldCollideEP9b2FixtureS1_
N6e:_Keyframe_t2095052507_marshal_pinvoke
RFd:_BinaryReader_ReadDecimal_m2694462597
M0e:_GUIContent_Temp_m2857440895
Qub:__ZN11TimeManagerD0Ev
tWe:_UIntPtr_op_Explicit_m555260452
du:__ZN12AudioManager33GetAudioEffectInternalDefinitionsEv
kQa:__ZN20LocalFileSystemPosix4OpenER13FileEntryData14FilePermission16FileAutoBehavior
n_a:__ZN7ApiGLES11BindTextureEj16TextureDimension
Moh:_glGetVertexAttribPointerv__wrapper
NPg:__ZL64MemberAccessException_t3362876614_CustomAttributesCacheGeneratorP21CustomAttributesCache
Iac:__ZN23b2EdgeAndPolygonContact7DestroyEP9b2ContactP16b2BlockAllocator
rSc:_StringBuilder_AppendFormat_m508648398
Lmc:_cf2_hint_isTop
uzf:__Z89RuntimeInvoker_Il2CppObject_Il2CppObject_Vector3U26_t3456035723_QuaternionU26_t3782781613PK10MethodInfoPvPS2_
NVc:_Boolean_System_IConvertible_ToDouble_m4044182987
lMg:__ZL55UTF8Encoding_t2933319368_CustomAttributesCacheGeneratorP21CustomAttributesCache
t2:__ZN22RenderingCommandBuffer20ExecuteCommandBufferER17ShaderPassContextRK15RenderNodeQueue
sGa:__Z23InitializeStdConvertersv
jAg:__ZL68Il2CppArray_CustomAttributesCacheGenerator_Array_GetValue_m375587694P21CustomAttributesCache
nBf:__Z37RuntimeInvoker_Enumerator_t3591453091PK10MethodInfoPvPS2_
qKd:_StreamWriter__ctor_m195691908
src:_ps_unicodes_init
IPc:_ASCIIEncoding_GetCharCount_m1617524400
sWg:__ZL105Component_t2126946602_CustomAttributesCacheGenerator_Component_BroadcastMessage_m3961995854____parameter1P21CustomAttributesCache
F4e:_GUIStyle_DrawCursor_m4169664613
gfd:_CultureInfo_get_TextInfo_m3424110770
aag:__ZN6il2cpp2vm6Object3NewEP11Il2CppClass
h9f:__ZN6il2cpp2vm9Exception27GetExecutionEngineExceptionEPKc
T5d:_RemoteCertificateValidationCallback_BeginInvoke_m3899812411
vh:_JS_WebRequest_GetResponseHeaders
qnc:_UNITY_FT_Create_Class_tt_cmap_classes
ikb:__ZNSt3__16__treeINS_12__value_typeINS_4pairIPcS3_EEPFbPvR14SafeBinaryReadEEENS_19__map_value_compareIS4_SA_20smaller_cstring_pairLb1EEENS_9allocatorISA_EEE7destroyEPNS_11__tree_nodeISA_S5_EE
NMa:__ZN21ArchiveStorageCreator10BeginBlockE15CompressionType16CompressionLevelj
Wga:__ZN9Scripting18RaiseNullExceptionEPKcz
VWf:_WWW_Finalize_m1793349504
WCg:__ZL79Hashtable_t3875263730_CustomAttributesCacheGenerator_Hashtable__ctor_m346689243P21CustomAttributesCache
CWc:_Byte_System_IConvertible_ToInt16_m1270736309
Kh:_glCreateProgram
Ued:_CultureInfo_ConstructInvariant_m2998357762
P6:__ZN9ShaderLab9SubShader25CreateFromParsedSubShaderERKNS_15ParserSubShaderERNSt3__16vectorI4PPtrI6ShaderENS4_9allocatorIS8_EEEEbR12ShaderErrorsPS7_
q_:__ZN15SkyboxGenerator26ReleaseSkyboxVertexBuffersEv
enb:__ZN12ScriptMapper8TransferI13ProxyTransferEEvRT_
Meh:__ZNKSt3__17codecvtIDic11__mbstate_tE9do_lengthERS1_PKcS5_j
xlh:_glUniformMatrix3fv__wrapper
LSe:_TimeSpan_t763862892_marshal_pinvoke
Pye:_MethodBuilder_Invoke_m1851679456
zee:_Action_1_BeginInvoke_m917692971_gshared
Hie:_InternalEnumerator_1__ctor_m1127962797_gshared
Tah:__ZNKSt3__18time_getIcNS_19istreambuf_iteratorIcNS_11char_traitsIcEEEEE14do_get_weekdayES4_S4_RNS_8ios_baseERjP2tm
qrb:__ZNK3WWW17GetThreadPriorityEv
awb:__ZNK15ArchiveReadFile6IsOpenEv
XGd:_FileStream__ctor_m3655381520
mWf:_UnityException__ctor_m743662351
WMa:__ZN20ArchiveStorageHeader13GetHeaderSizeERKNS_6HeaderE
Yne:_Enumerator_get_Current_m4206657233_gshared
EIf:_List_1_CheckIndex_m2714637163_gshared
ooe:_ValueCollection_GetEnumerator_m848222311_gshared
NNa:__ZN16MemoryFileSystem16DestroyFileEntryER13FileEntryData
Gab:__ZNSt3__16__treeIN18DelayedCallManager8CallbackENS_4lessIS2_EENS_9allocatorIS2_EEE7destroyEPNS_11__tree_nodeIS2_PvEE
xTa:__Z43AssetBundleRequest_Get_Custom_PropAllAssetsP15ScriptingObject
Lbf:_LeaseSink__ctor_m1766448707
JAf:__Z111RuntimeInvoker_Void_t2779279689_IntPtr_t_Rect_t1525428817_Il2CppObject_Int32_t2847414787_Vector2U26_t2646958564PK10MethodInfoPvPS2_
Yad:_Delegate_Combine_m1842362874
a4g:__ZNSt3__16vectorIN6il2cpp2os19SocketHandleWrapperENS_9allocatorIS3_EEE26__swap_out_circular_bufferERNS_14__split_bufferIS3_RS5_EE
Hba:__ZN4Mesh30AcquireSharedMeshRenderingDataEv
Ei:_gmtime
Fi:_emscripten_glUniform3i
Tne:_Enumerator__ctor_m3508354476_gshared
m9b:__Z7b2Alloci
KSf:_UploadHandler_t2015444082_marshal_pinvoke
P_c:_CaseInsensitiveComparer_Compare_m1716797375
oae:_X509ChainElement__ctor_m1605854504
Vhf:_ExpressionCollection__ctor_m235484264
qUb:__ZN6prcoreL17RemapGenericFloatI18TexFormatARGBFloat15TexFormatRGHalfEEvPKNS_9InnerInfoE
tDb:__ZNSt3__16vectorIx13stl_allocatorIxL18MemLabelIdentifier1ELi16EEE8__appendEj
H9c:_Decimal_System_IConvertible_ToInt32_m1063784048
nEf:__Z31RuntimeInvoker_Mark_t3725932776PK10MethodInfoPvPS2_
KPe:_UTF8Encoding_GetString_m3266530939
jrh:_emscripten_glIsProgram__wrapper
gPb:__ZNSt3__16vectorIN15QualitySettings14QualitySettingENS_9allocatorIS2_EEE8__appendEj
dWg:__ZL95Component_t2126946602_CustomAttributesCacheGenerator_Component_GetComponentsInParent_m345477753P21CustomAttributesCache
AQa:__ZN20LocalFileSystemPosix5TouchER13FileEntryData
Ui:_emscripten_glDrawElements
bN:__ZN11AssetBundle23VirtualRedirectTransferER13ProxyTransfer
dbe:_X509SubjectKeyIdentifierExtension_FromHexChars_m3730448342
n_c:_SynchronizedArrayListWrapper_Clone_m4092650148
LKf:_Collection_1_set_Item_m2637546358_gshared
kch:__ZNKSt3__110moneypunctIcLb1EE13do_pos_formatEv
Nqd:_AttrListImpl_get_Length_m2232614890
rEg:__ZL53TextWriter_t1689927879_CustomAttributesCacheGeneratorP21CustomAttributesCache
era:__Z33GetMinimumTextureMipSizeForFormat13TextureFormat
w$g:__ZL97ILogHandler_t4153610460_CustomAttributesCacheGenerator_ILogHandler_LogFormat_m4223133136____args3P21CustomAttributesCache
wqh:_emscripten_glClientActiveTexture__wrapper
ucd:_Enum_System_IConvertible_ToDecimal_m3666246204
Dfc:__ZNSt3__17__sort4IR24RayHitsByDepthComparitorP12RaycastHit2DEEjT0_S5_S5_S5_T_
bJg:__ZL104ConfigHandler_t2512459856_CustomAttributesCacheGenerator_ConfigHandler_ValidatePath_m669680991____paths1P21CustomAttributesCache
t2d:_TlsStream_Flush_m2679890405
igf:_Regex__cctor_m2866248683
